ARM GAS  C:\Users\msuro\AppData\Local\Temp\cciNNHPs.s 			page 1


   1              		.cpu cortex-m0
   2              		.fpu softvfp
   3              		.eabi_attribute 20, 1
   4              		.eabi_attribute 21, 1
   5              		.eabi_attribute 23, 3
   6              		.eabi_attribute 24, 1
   7              		.eabi_attribute 25, 1
   8              		.eabi_attribute 26, 1
   9              		.eabi_attribute 30, 6
  10              		.eabi_attribute 34, 0
  11              		.eabi_attribute 18, 4
  12              		.code	16
  13              		.file	"BLE.c"
  14              		.text
  15              	.Ltext0:
  16              		.cfi_sections	.debug_frame
  17              		.global	cyBle_initVar
  18              		.bss
  19              		.type	cyBle_initVar, %object
  20              		.size	cyBle_initVar, 1
  21              	cyBle_initVar:
  22 0000 00       		.space	1
  23              		.global	cyBle_discoveryParam
  24              		.data
  25              		.align	2
  26              		.type	cyBle_discoveryParam, %object
  27              		.size	cyBle_discoveryParam, 16
  28              	cyBle_discoveryParam:
  29 0000 2000     		.short	32
  30 0002 3000     		.short	48
  31 0004 00       		.byte	0
  32 0005 00       		.byte	0
  33 0006 00       		.byte	0
  34 0007 00       		.byte	0
  35 0008 00       		.byte	0
  36 0009 00       		.byte	0
  37 000a 50       		.byte	80
  38 000b A0       		.byte	-96
  39 000c 00       		.byte	0
  40 000d 07       		.byte	7
  41 000e 00       		.byte	0
  42 000f 00       		.space	1
  43              		.global	cyBle_discoveryData
  44              		.align	2
  45              		.type	cyBle_discoveryData, %object
  46              		.size	cyBle_discoveryData, 32
  47              	cyBle_discoveryData:
  48 0010 02       		.byte	2
  49 0011 01       		.byte	1
  50 0012 06       		.byte	6
  51 0013 12       		.byte	18
  52 0014 09       		.byte	9
  53 0015 43       		.byte	67
  54 0016 6C       		.byte	108
  55 0017 69       		.byte	105
  56 0018 65       		.byte	101
  57 0019 6E       		.byte	110
ARM GAS  C:\Users\msuro\AppData\Local\Temp\cciNNHPs.s 			page 2


  58 001a 74       		.byte	116
  59 001b 20       		.byte	32
  60 001c 61       		.byte	97
  61 001d 6E       		.byte	110
  62 001e 64       		.byte	100
  63 001f 20       		.byte	32
  64 0020 53       		.byte	83
  65 0021 65       		.byte	101
  66 0022 72       		.byte	114
  67 0023 76       		.byte	118
  68 0024 65       		.byte	101
  69 0025 72       		.byte	114
  70 0026 03       		.byte	3
  71 0027 14       		.byte	20
  72 0028 0A       		.byte	10
  73 0029 18       		.byte	24
  74 002a 00       		.byte	0
  75 002b 00       		.byte	0
  76 002c 00       		.byte	0
  77 002d 00       		.byte	0
  78 002e 00       		.byte	0
  79 002f 1A       		.byte	26
  80              		.global	cyBle_scanRspData
  81              		.align	2
  82              		.type	cyBle_scanRspData, %object
  83              		.size	cyBle_scanRspData, 32
  84              	cyBle_scanRspData:
  85 0030 05       		.byte	5
  86 0031 FF       		.byte	-1
  87 0032 31       		.byte	49
  88 0033 01       		.byte	1
  89 0034 34       		.byte	52
  90 0035 12       		.byte	18
  91 0036 00       		.byte	0
  92 0037 00       		.byte	0
  93 0038 00       		.byte	0
  94 0039 00       		.byte	0
  95 003a 00       		.byte	0
  96 003b 00       		.byte	0
  97 003c 00       		.byte	0
  98 003d 00       		.byte	0
  99 003e 00       		.byte	0
 100 003f 00       		.byte	0
 101 0040 00       		.byte	0
 102 0041 00       		.byte	0
 103 0042 00       		.byte	0
 104 0043 00       		.byte	0
 105 0044 00       		.byte	0
 106 0045 00       		.byte	0
 107 0046 00       		.byte	0
 108 0047 00       		.byte	0
 109 0048 00       		.byte	0
 110 0049 00       		.byte	0
 111 004a 00       		.byte	0
 112 004b 00       		.byte	0
 113 004c 00       		.byte	0
 114 004d 00       		.byte	0
ARM GAS  C:\Users\msuro\AppData\Local\Temp\cciNNHPs.s 			page 3


 115 004e 00       		.byte	0
 116 004f 06       		.byte	6
 117              		.global	cyBle_discoveryModeInfo
 118              		.align	2
 119              		.type	cyBle_discoveryModeInfo, %object
 120              		.size	cyBle_discoveryModeInfo, 20
 121              	cyBle_discoveryModeInfo:
 122 0050 02       		.byte	2
 123 0051 000000   		.space	3
 124 0054 00000000 		.word	cyBle_discoveryParam
 125 0058 00000000 		.word	cyBle_discoveryData
 126 005c 00000000 		.word	cyBle_scanRspData
 127 0060 1E00     		.short	30
 128 0062 0000     		.space	2
 129              		.comm	cyBle_pendingFlashWrite,1,1
 130              		.comm	CyBle_ApplCallback,4,4
 131              		.global	cyBle_deviceAddress
 132              		.align	2
 133              		.type	cyBle_deviceAddress, %object
 134              		.size	cyBle_deviceAddress, 7
 135              	cyBle_deviceAddress:
 136 0064 00       		.byte	0
 137 0065 00       		.byte	0
 138 0066 00       		.byte	0
 139 0067 50       		.byte	80
 140 0068 A0       		.byte	-96
 141 0069 00       		.byte	0
 142 006a 00       		.byte	0
 143              		.global	cyBle_sflashDeviceAddress
 144 006b 00       		.align	2
 145              		.type	cyBle_sflashDeviceAddress, %object
 146              		.size	cyBle_sflashDeviceAddress, 4
 147              	cyBle_sflashDeviceAddress:
 148 006c 00F2FF0F 		.word	268431872
 149              		.section	.text.CyBle_Init,"ax",%progbits
 150              		.align	2
 151              		.global	CyBle_Init
 152              		.code	16
 153              		.thumb_func
 154              		.type	CyBle_Init, %function
 155              	CyBle_Init:
 156              	.LFB2:
 157              		.file 1 ".\\Generated_Source\\PSoC4\\BLE.c"
   1:.\Generated_Source\PSoC4/BLE.c **** /*******************************************************************************
   2:.\Generated_Source\PSoC4/BLE.c **** File Name: CYBLE.c
   3:.\Generated_Source\PSoC4/BLE.c **** Version 1.20
   4:.\Generated_Source\PSoC4/BLE.c **** 
   5:.\Generated_Source\PSoC4/BLE.c **** Description:
   6:.\Generated_Source\PSoC4/BLE.c ****  This file contains the source code for the Common APIs of the BLE Component.
   7:.\Generated_Source\PSoC4/BLE.c **** 
   8:.\Generated_Source\PSoC4/BLE.c **** ********************************************************************************
   9:.\Generated_Source\PSoC4/BLE.c **** Copyright 2014-2015, Cypress Semiconductor Corporation.  All rights reserved.
  10:.\Generated_Source\PSoC4/BLE.c **** You may use this file only in accordance with the license, terms, conditions,
  11:.\Generated_Source\PSoC4/BLE.c **** disclaimers, and limitations in the end user license agreement accompanying
  12:.\Generated_Source\PSoC4/BLE.c **** the software package with which this file was provided.
  13:.\Generated_Source\PSoC4/BLE.c **** *******************************************************************************/
  14:.\Generated_Source\PSoC4/BLE.c **** 
ARM GAS  C:\Users\msuro\AppData\Local\Temp\cciNNHPs.s 			page 4


  15:.\Generated_Source\PSoC4/BLE.c **** #include "BLE_eventHandler.h"
  16:.\Generated_Source\PSoC4/BLE.c **** #include "BLE_HAL_PVT.h"
  17:.\Generated_Source\PSoC4/BLE.c **** 
  18:.\Generated_Source\PSoC4/BLE.c **** 
  19:.\Generated_Source\PSoC4/BLE.c **** /***************************************
  20:.\Generated_Source\PSoC4/BLE.c **** ##Function Prototypes
  21:.\Generated_Source\PSoC4/BLE.c **** ***************************************/
  22:.\Generated_Source\PSoC4/BLE.c **** 
  23:.\Generated_Source\PSoC4/BLE.c **** #if(CYBLE_GATT_ROLE_SERVER)
  24:.\Generated_Source\PSoC4/BLE.c ****     #if(CYBLE_GAP_ROLE_PERIPHERAL)
  25:.\Generated_Source\PSoC4/BLE.c ****         static void CyBle_ChangeAdLocalName(const char8 name[], uint8 dest);
  26:.\Generated_Source\PSoC4/BLE.c ****     #endif /* (CYBLE_GAP_ROLE_PERIPHERAL) */
  27:.\Generated_Source\PSoC4/BLE.c **** #endif /* (CYBLE_GATT_ROLE_SERVER) */
  28:.\Generated_Source\PSoC4/BLE.c ****     
  29:.\Generated_Source\PSoC4/BLE.c **** 
  30:.\Generated_Source\PSoC4/BLE.c **** /***************************************
  31:.\Generated_Source\PSoC4/BLE.c **** ##Global Variables
  32:.\Generated_Source\PSoC4/BLE.c **** ***************************************/
  33:.\Generated_Source\PSoC4/BLE.c **** 
  34:.\Generated_Source\PSoC4/BLE.c **** /* Indicates whether the BLE has been initialized. The variable is initialized to
  35:.\Generated_Source\PSoC4/BLE.c ****    0 and set to 1 the first time CyBle_Start() is called. This allows the component
  36:.\Generated_Source\PSoC4/BLE.c ****    to restart without reinitialization after the first call to the CyBle_Start() 
  37:.\Generated_Source\PSoC4/BLE.c ****    routine. If reinitialization of the component is required, the variable should 
  38:.\Generated_Source\PSoC4/BLE.c ****    be set to 0 before the CyBle_Start() routine is called. Alternatively, the BLE
  39:.\Generated_Source\PSoC4/BLE.c ****    can be reinitialized by calling the CyBle_Init() function.
  40:.\Generated_Source\PSoC4/BLE.c **** */
  41:.\Generated_Source\PSoC4/BLE.c **** uint8  cyBle_initVar = 0u;
  42:.\Generated_Source\PSoC4/BLE.c **** 
  43:.\Generated_Source\PSoC4/BLE.c **** #if(CYBLE_GAP_ROLE_PERIPHERAL || CYBLE_GAP_ROLE_BROADCASTER)
  44:.\Generated_Source\PSoC4/BLE.c **** 
  45:.\Generated_Source\PSoC4/BLE.c **** CYBLE_GAPP_DISC_PARAM_T cyBle_discoveryParam =
  46:.\Generated_Source\PSoC4/BLE.c **** {
  47:.\Generated_Source\PSoC4/BLE.c ****     0x0020u,    /* uint16 advertising_interval_min */
  48:.\Generated_Source\PSoC4/BLE.c ****     0x0030u,    /* uint16 advertising_interval_max */
  49:.\Generated_Source\PSoC4/BLE.c ****     CYBLE_GAPP_CONNECTABLE_UNDIRECTED_ADV, /* uint8 advertising_type */
  50:.\Generated_Source\PSoC4/BLE.c ****     0x00u,      /* uint8 own_addr_type */
  51:.\Generated_Source\PSoC4/BLE.c ****     0x00u,      /* uint8 direct_addr_type */
  52:.\Generated_Source\PSoC4/BLE.c ****     {0x00u, 0x00u, 0x00u, 0x50u, 0xA0u, 0x00u}, /* uint8* direct_addr */
  53:.\Generated_Source\PSoC4/BLE.c ****     0x07u,      /* uint8 advertising_channel_map */
  54:.\Generated_Source\PSoC4/BLE.c ****     0x00u,      /* uint8 advertising_filter_policy */
  55:.\Generated_Source\PSoC4/BLE.c **** };
  56:.\Generated_Source\PSoC4/BLE.c **** 
  57:.\Generated_Source\PSoC4/BLE.c **** CYBLE_GAPP_DISC_DATA_T cyBle_discoveryData =
  58:.\Generated_Source\PSoC4/BLE.c **** {
  59:.\Generated_Source\PSoC4/BLE.c ****     { 0x02u, 0x01u, 0x06u, 0x12u, 0x09u, 0x43u, 0x6Cu,
  60:.\Generated_Source\PSoC4/BLE.c ****     0x69u, 0x65u, 0x6Eu, 0x74u, 0x20u, 0x61u, 0x6Eu, 0x64u,
  61:.\Generated_Source\PSoC4/BLE.c ****     0x20u, 0x53u, 0x65u, 0x72u, 0x76u, 0x65u, 0x72u, 0x03u,
  62:.\Generated_Source\PSoC4/BLE.c ****     0x14u, 0x0Au, 0x18u, 0x00u, 0x00u, 0x00u, 0x00u, 0x00u }, /* uint8 advertising_data[CYBLE_MAX_A
  63:.\Generated_Source\PSoC4/BLE.c ****     0x1Au,      /* uint8 adv_data_length */
  64:.\Generated_Source\PSoC4/BLE.c **** };
  65:.\Generated_Source\PSoC4/BLE.c **** 
  66:.\Generated_Source\PSoC4/BLE.c **** CYBLE_GAPP_SCAN_RSP_DATA_T cyBle_scanRspData =
  67:.\Generated_Source\PSoC4/BLE.c **** {
  68:.\Generated_Source\PSoC4/BLE.c ****     { 0x05u, 0xFFu, 0x31u, 0x01u, 0x34u, 0x12u, 0x00u,
  69:.\Generated_Source\PSoC4/BLE.c ****     0x00u, 0x00u, 0x00u, 0x00u, 0x00u, 0x00u, 0x00u, 0x00u,
  70:.\Generated_Source\PSoC4/BLE.c ****     0x00u, 0x00u, 0x00u, 0x00u, 0x00u, 0x00u, 0x00u, 0x00u,
  71:.\Generated_Source\PSoC4/BLE.c ****     0x00u, 0x00u, 0x00u, 0x00u, 0x00u, 0x00u, 0x00u, 0x00u }, /* uint8 scan_rsp_data[CYBLE_MAX_SCAN
ARM GAS  C:\Users\msuro\AppData\Local\Temp\cciNNHPs.s 			page 5


  72:.\Generated_Source\PSoC4/BLE.c ****     0x06u,      /* uint8 scan_rsp_data_length */
  73:.\Generated_Source\PSoC4/BLE.c **** };
  74:.\Generated_Source\PSoC4/BLE.c **** 
  75:.\Generated_Source\PSoC4/BLE.c **** /* This variable of type CYBLE_GAPP_DISC_MODE_INFO_T is present only when 
  76:.\Generated_Source\PSoC4/BLE.c ****    the BLE component is configured for Peripheral GAP role or Central and 
  77:.\Generated_Source\PSoC4/BLE.c ****    Peripheral GAP role. It contains the Advertisement settings and also the 
  78:.\Generated_Source\PSoC4/BLE.c ****    Advertisement and Scan response data parameters entered in the customizer.
  79:.\Generated_Source\PSoC4/BLE.c ****    This variable can be used by advanced users to change Advertisement settings,
  80:.\Generated_Source\PSoC4/BLE.c ****    Advertisement or Scan response data in runtime. 
  81:.\Generated_Source\PSoC4/BLE.c **** */
  82:.\Generated_Source\PSoC4/BLE.c **** CYBLE_GAPP_DISC_MODE_INFO_T cyBle_discoveryModeInfo =
  83:.\Generated_Source\PSoC4/BLE.c **** {
  84:.\Generated_Source\PSoC4/BLE.c ****     0x02u,      /* uint8 discMode */
  85:.\Generated_Source\PSoC4/BLE.c ****     &cyBle_discoveryParam,
  86:.\Generated_Source\PSoC4/BLE.c ****     &cyBle_discoveryData,
  87:.\Generated_Source\PSoC4/BLE.c ****     &cyBle_scanRspData,
  88:.\Generated_Source\PSoC4/BLE.c ****     0x001Eu,    /* uint16 advTo */
  89:.\Generated_Source\PSoC4/BLE.c **** };
  90:.\Generated_Source\PSoC4/BLE.c **** 
  91:.\Generated_Source\PSoC4/BLE.c **** 
  92:.\Generated_Source\PSoC4/BLE.c **** #endif /* CYBLE_GAP_ROLE_PERIPHERAL || CYBLE_GAP_ROLE_BROADCASTER */
  93:.\Generated_Source\PSoC4/BLE.c **** 
  94:.\Generated_Source\PSoC4/BLE.c **** #if(CYBLE_GAP_ROLE_CENTRAL)
  95:.\Generated_Source\PSoC4/BLE.c ****     
  96:.\Generated_Source\PSoC4/BLE.c **** CYBLE_GAPC_CONN_PARAM_T cyBle_connectionParameters;
  97:.\Generated_Source\PSoC4/BLE.c **** 
  98:.\Generated_Source\PSoC4/BLE.c **** /* Connecting timeout is set to 30 seconds in CyBle_Init function. 
  99:.\Generated_Source\PSoC4/BLE.c ****    Not zero value starts timer in CyBle_GapcConnectDevice API.
 100:.\Generated_Source\PSoC4/BLE.c **** */
 101:.\Generated_Source\PSoC4/BLE.c **** uint16 cyBle_connectingTimeout;
 102:.\Generated_Source\PSoC4/BLE.c ****     
 103:.\Generated_Source\PSoC4/BLE.c **** #endif /* CYBLE_GAP_ROLE_CENTRAL */
 104:.\Generated_Source\PSoC4/BLE.c **** 
 105:.\Generated_Source\PSoC4/BLE.c **** #if(CYBLE_GAP_ROLE_CENTRAL || CYBLE_GAP_ROLE_OBSERVER)
 106:.\Generated_Source\PSoC4/BLE.c ****     
 107:.\Generated_Source\PSoC4/BLE.c **** 
 108:.\Generated_Source\PSoC4/BLE.c ****     
 109:.\Generated_Source\PSoC4/BLE.c **** #endif /* CYBLE_GAP_ROLE_CENTRAL || CYBLE_GAP_ROLE_OBSERVER */
 110:.\Generated_Source\PSoC4/BLE.c **** 
 111:.\Generated_Source\PSoC4/BLE.c **** #if((CYBLE_GAP_ROLE_PERIPHERAL || CYBLE_GAP_ROLE_CENTRAL) && (CYBLE_BONDING_REQUIREMENT == CYBLE_BO
 112:.\Generated_Source\PSoC4/BLE.c **** 
 113:.\Generated_Source\PSoC4/BLE.c **** uint8 cyBle_pendingFlashWrite;
 114:.\Generated_Source\PSoC4/BLE.c ****     
 115:.\Generated_Source\PSoC4/BLE.c **** #endif  /* (CYBLE_BONDING_REQUIREMENT == CYBLE_BONDING_YES) */
 116:.\Generated_Source\PSoC4/BLE.c **** 
 117:.\Generated_Source\PSoC4/BLE.c **** CYBLE_CALLBACK_T CyBle_ApplCallback;
 118:.\Generated_Source\PSoC4/BLE.c **** CYBLE_GAP_BD_ADDR_T cyBle_deviceAddress = {{0x00u, 0x00u, 0x00u, 0x50u, 0xA0u, 0x00u}, 0x00u };
 119:.\Generated_Source\PSoC4/BLE.c **** CYBLE_GAP_BD_ADDR_T * cyBle_sflashDeviceAddress = CYBLE_SFLASH_DEVICE_ADDRESS_PTR;
 120:.\Generated_Source\PSoC4/BLE.c **** 
 121:.\Generated_Source\PSoC4/BLE.c **** 
 122:.\Generated_Source\PSoC4/BLE.c **** /******************************************************************************
 123:.\Generated_Source\PSoC4/BLE.c **** ##Function Name: CyBle_Init
 124:.\Generated_Source\PSoC4/BLE.c **** *******************************************************************************
 125:.\Generated_Source\PSoC4/BLE.c ****  Summary:
 126:.\Generated_Source\PSoC4/BLE.c ****   Initializes the component with the parameters set in the customizer.
 127:.\Generated_Source\PSoC4/BLE.c **** 
 128:.\Generated_Source\PSoC4/BLE.c ****  Parameters:
ARM GAS  C:\Users\msuro\AppData\Local\Temp\cciNNHPs.s 			page 6


 129:.\Generated_Source\PSoC4/BLE.c ****   None
 130:.\Generated_Source\PSoC4/BLE.c **** 
 131:.\Generated_Source\PSoC4/BLE.c ****  Return:
 132:.\Generated_Source\PSoC4/BLE.c ****   None
 133:.\Generated_Source\PSoC4/BLE.c **** 
 134:.\Generated_Source\PSoC4/BLE.c **** ******************************************************************************/
 135:.\Generated_Source\PSoC4/BLE.c **** void CyBle_Init(void)
 136:.\Generated_Source\PSoC4/BLE.c **** {
 158              		.loc 1 136 0
 159              		.cfi_startproc
 160 0000 80B5     		push	{r7, lr}
 161              		.cfi_def_cfa_offset 8
 162              		.cfi_offset 7, -8
 163              		.cfi_offset 14, -4
 164 0002 00AF     		add	r7, sp, #0
 165              		.cfi_def_cfa_register 7
 137:.\Generated_Source\PSoC4/BLE.c ****     cyBle_eventHandlerFlag = 0u;
 166              		.loc 1 137 0
 167 0004 074B     		ldr	r3, .L2
 168 0006 0022     		mov	r2, #0
 169 0008 1A70     		strb	r2, [r3]
 138:.\Generated_Source\PSoC4/BLE.c ****     cyBle_busyStatus = CYBLE_STACK_STATE_FREE;
 170              		.loc 1 138 0
 171 000a 074B     		ldr	r3, .L2+4
 172 000c 0022     		mov	r2, #0
 173 000e 1A70     		strb	r2, [r3]
 139:.\Generated_Source\PSoC4/BLE.c ****     
 140:.\Generated_Source\PSoC4/BLE.c ****     #if(CYBLE_GAP_ROLE_PERIPHERAL || CYBLE_GAP_ROLE_BROADCASTER) 
 141:.\Generated_Source\PSoC4/BLE.c ****         cyBle_advertisingIntervalType = CYBLE_ADVERTISING_FAST; 
 174              		.loc 1 141 0
 175 0010 064B     		ldr	r3, .L2+8
 176 0012 0022     		mov	r2, #0
 177 0014 1A70     		strb	r2, [r3]
 142:.\Generated_Source\PSoC4/BLE.c ****     #endif /* (CYBLE_GAP_ROLE_PERIPHERAL || CYBLE_GAP_ROLE_BROADCASTER)  */
 143:.\Generated_Source\PSoC4/BLE.c ****     #if(CYBLE_GAP_ROLE_CENTRAL || CYBLE_GAP_ROLE_OBSERVER)
 144:.\Generated_Source\PSoC4/BLE.c ****         cyBle_scanningIntervalType = CYBLE_SCANNING_FAST; 
 145:.\Generated_Source\PSoC4/BLE.c ****     #endif /* (CYBLE_GAP_ROLE_CENTRAL || CYBLE_GAP_ROLE_OBSERVER) */
 146:.\Generated_Source\PSoC4/BLE.c ****         
 147:.\Generated_Source\PSoC4/BLE.c ****     /* Init default connection parameters. 
 148:.\Generated_Source\PSoC4/BLE.c ****        Application may change it before initiating a connection */
 149:.\Generated_Source\PSoC4/BLE.c ****     #if(CYBLE_GAP_ROLE_CENTRAL)
 150:.\Generated_Source\PSoC4/BLE.c ****         cyBle_connectionParameters.scanIntv = cyBle_discoveryInfo.scanIntv;
 151:.\Generated_Source\PSoC4/BLE.c ****         cyBle_connectionParameters.scanWindow = cyBle_discoveryInfo.scanWindow;
 152:.\Generated_Source\PSoC4/BLE.c ****         cyBle_connectionParameters.ownAddrType = cyBle_discoveryInfo.ownAddrType;
 153:.\Generated_Source\PSoC4/BLE.c ****         cyBle_connectionParameters.initiatorFilterPolicy = cyBle_discoveryInfo.scanFilterPolicy;
 154:.\Generated_Source\PSoC4/BLE.c ****         cyBle_connectionParameters.connIntvMin = CYBLE_GAPC_CONNECTION_INTERVAL_MIN;
 155:.\Generated_Source\PSoC4/BLE.c ****         cyBle_connectionParameters.connIntvMax = CYBLE_GAPC_CONNECTION_INTERVAL_MAX;
 156:.\Generated_Source\PSoC4/BLE.c ****         cyBle_connectionParameters.connLatency = CYBLE_GAPC_CONNECTION_SLAVE_LATENCY;
 157:.\Generated_Source\PSoC4/BLE.c ****         cyBle_connectionParameters.supervisionTO = CYBLE_GAPC_CONNECTION_TIME_OUT;
 158:.\Generated_Source\PSoC4/BLE.c ****         cyBle_connectionParameters.minCeLength = 0x0000u;
 159:.\Generated_Source\PSoC4/BLE.c ****         cyBle_connectionParameters.maxCeLength = 0xFFFFu;
 160:.\Generated_Source\PSoC4/BLE.c ****         
 161:.\Generated_Source\PSoC4/BLE.c ****         cyBle_connectingTimeout = CYBLE_GAPC_CONNECTING_TIMEOUT;
 162:.\Generated_Source\PSoC4/BLE.c ****     #endif /* CYBLE_GAP_ROLE_CENTRAL */
 163:.\Generated_Source\PSoC4/BLE.c **** 
 164:.\Generated_Source\PSoC4/BLE.c ****     CyBle_ServiceInit();
 178              		.loc 1 164 0
ARM GAS  C:\Users\msuro\AppData\Local\Temp\cciNNHPs.s 			page 7


 179 0016 FFF7FEFF 		bl	CyBle_ServiceInit
 165:.\Generated_Source\PSoC4/BLE.c **** 
 166:.\Generated_Source\PSoC4/BLE.c **** #if((CYBLE_GAP_ROLE_PERIPHERAL || CYBLE_GAP_ROLE_CENTRAL) && (CYBLE_BONDING_REQUIREMENT == CYBLE_BO
 167:.\Generated_Source\PSoC4/BLE.c ****     cyBle_pendingFlashWrite = 0u;
 180              		.loc 1 167 0
 181 001a 054B     		ldr	r3, .L2+12
 182 001c 0022     		mov	r2, #0
 183 001e 1A70     		strb	r2, [r3]
 168:.\Generated_Source\PSoC4/BLE.c **** #endif  /* (CYBLE_BONDING_REQUIREMENT == CYBLE_BONDING_YES) */
 169:.\Generated_Source\PSoC4/BLE.c **** 
 170:.\Generated_Source\PSoC4/BLE.c **** }
 184              		.loc 1 170 0
 185 0020 BD46     		mov	sp, r7
 186              		@ sp needed
 187 0022 80BD     		pop	{r7, pc}
 188              	.L3:
 189              		.align	2
 190              	.L2:
 191 0024 00000000 		.word	cyBle_eventHandlerFlag
 192 0028 00000000 		.word	cyBle_busyStatus
 193 002c 00000000 		.word	cyBle_advertisingIntervalType
 194 0030 00000000 		.word	cyBle_pendingFlashWrite
 195              		.cfi_endproc
 196              	.LFE2:
 197              		.size	CyBle_Init, .-CyBle_Init
 198              		.section	.text.CyBle_ServiceInit,"ax",%progbits
 199              		.align	2
 200              		.global	CyBle_ServiceInit
 201              		.code	16
 202              		.thumb_func
 203              		.type	CyBle_ServiceInit, %function
 204              	CyBle_ServiceInit:
 205              	.LFB3:
 171:.\Generated_Source\PSoC4/BLE.c **** 
 172:.\Generated_Source\PSoC4/BLE.c **** 
 173:.\Generated_Source\PSoC4/BLE.c **** /******************************************************************************
 174:.\Generated_Source\PSoC4/BLE.c **** ##Function Name: CyBle_ServiceInit
 175:.\Generated_Source\PSoC4/BLE.c **** *******************************************************************************
 176:.\Generated_Source\PSoC4/BLE.c **** 
 177:.\Generated_Source\PSoC4/BLE.c **** Summary:
 178:.\Generated_Source\PSoC4/BLE.c ****  Initializes all included services.
 179:.\Generated_Source\PSoC4/BLE.c **** 
 180:.\Generated_Source\PSoC4/BLE.c **** Parameters:
 181:.\Generated_Source\PSoC4/BLE.c ****  None
 182:.\Generated_Source\PSoC4/BLE.c **** 
 183:.\Generated_Source\PSoC4/BLE.c **** Return:
 184:.\Generated_Source\PSoC4/BLE.c ****  None
 185:.\Generated_Source\PSoC4/BLE.c **** 
 186:.\Generated_Source\PSoC4/BLE.c **** ******************************************************************************/
 187:.\Generated_Source\PSoC4/BLE.c **** void CyBle_ServiceInit(void)
 188:.\Generated_Source\PSoC4/BLE.c **** {
 206              		.loc 1 188 0
 207              		.cfi_startproc
 208 0000 80B5     		push	{r7, lr}
 209              		.cfi_def_cfa_offset 8
 210              		.cfi_offset 7, -8
 211              		.cfi_offset 14, -4
ARM GAS  C:\Users\msuro\AppData\Local\Temp\cciNNHPs.s 			page 8


 212 0002 00AF     		add	r7, sp, #0
 213              		.cfi_def_cfa_register 7
 189:.\Generated_Source\PSoC4/BLE.c ****     #if(CYBLE_GATT_ROLE_CLIENT)
 190:.\Generated_Source\PSoC4/BLE.c ****         (void)memset(&cyBle_gapc, 0, sizeof(cyBle_gapc));
 214              		.loc 1 190 0
 215 0004 084B     		ldr	r3, .L5
 216 0006 181C     		mov	r0, r3
 217 0008 0021     		mov	r1, #0
 218 000a 0A22     		mov	r2, #10
 219 000c FFF7FEFF 		bl	memset
 191:.\Generated_Source\PSoC4/BLE.c ****         (void)memset(&cyBle_gattc, 0, sizeof(cyBle_gattc));
 220              		.loc 1 191 0
 221 0010 064B     		ldr	r3, .L5+4
 222 0012 181C     		mov	r0, r3
 223 0014 0021     		mov	r1, #0
 224 0016 0622     		mov	r2, #6
 225 0018 FFF7FEFF 		bl	memset
 192:.\Generated_Source\PSoC4/BLE.c ****     #endif /* CYBLE_GATT_ROLE_CLIENT */
 193:.\Generated_Source\PSoC4/BLE.c ****     
 194:.\Generated_Source\PSoC4/BLE.c ****     #ifdef CYBLE_ANS
 195:.\Generated_Source\PSoC4/BLE.c ****         CyBle_AnsInit();
 196:.\Generated_Source\PSoC4/BLE.c ****     #endif /* CYBLE_ANS */
 197:.\Generated_Source\PSoC4/BLE.c ****     
 198:.\Generated_Source\PSoC4/BLE.c ****     #ifdef CYBLE_BAS
 199:.\Generated_Source\PSoC4/BLE.c ****         CyBle_BasInit();
 200:.\Generated_Source\PSoC4/BLE.c ****     #endif /* CYBLE_BAS */
 201:.\Generated_Source\PSoC4/BLE.c ****     
 202:.\Generated_Source\PSoC4/BLE.c ****     #ifdef CYBLE_BLS
 203:.\Generated_Source\PSoC4/BLE.c ****         CyBle_BlsInit();
 204:.\Generated_Source\PSoC4/BLE.c ****     #endif /* CYBLE_BLS */
 205:.\Generated_Source\PSoC4/BLE.c ****     
 206:.\Generated_Source\PSoC4/BLE.c ****     #ifdef CYBLE_CGMS
 207:.\Generated_Source\PSoC4/BLE.c ****         CyBle_CgmsInit();
 208:.\Generated_Source\PSoC4/BLE.c ****     #endif /* CYBLE_CGMS */
 209:.\Generated_Source\PSoC4/BLE.c **** 
 210:.\Generated_Source\PSoC4/BLE.c ****     #ifdef CYBLE_CPS
 211:.\Generated_Source\PSoC4/BLE.c ****         CyBle_CpsInit();
 212:.\Generated_Source\PSoC4/BLE.c ****     #endif /* CYBLE_CPS */
 213:.\Generated_Source\PSoC4/BLE.c **** 
 214:.\Generated_Source\PSoC4/BLE.c ****     #ifdef CYBLE_CSCS
 215:.\Generated_Source\PSoC4/BLE.c ****         CyBle_CscsInit();
 216:.\Generated_Source\PSoC4/BLE.c ****     #endif /* CYBLE_CSCS */
 217:.\Generated_Source\PSoC4/BLE.c ****     
 218:.\Generated_Source\PSoC4/BLE.c ****     #ifdef CYBLE_CTS
 219:.\Generated_Source\PSoC4/BLE.c ****         CyBle_CtsInit();
 220:.\Generated_Source\PSoC4/BLE.c ****     #endif /* CYBLE_CTS */
 221:.\Generated_Source\PSoC4/BLE.c **** 
 222:.\Generated_Source\PSoC4/BLE.c ****     #ifdef CYBLE_DIS
 223:.\Generated_Source\PSoC4/BLE.c ****         CyBle_DisInit();
 226              		.loc 1 223 0
 227 001c FFF7FEFF 		bl	CyBle_DisInit
 224:.\Generated_Source\PSoC4/BLE.c ****     #endif /* CYBLE_DIS */
 225:.\Generated_Source\PSoC4/BLE.c **** 
 226:.\Generated_Source\PSoC4/BLE.c ****     #ifdef CYBLE_GLS
 227:.\Generated_Source\PSoC4/BLE.c ****         CyBle_GlsInit();
 228:.\Generated_Source\PSoC4/BLE.c ****     #endif /* CYBLE_GLS */
 229:.\Generated_Source\PSoC4/BLE.c ****     
ARM GAS  C:\Users\msuro\AppData\Local\Temp\cciNNHPs.s 			page 9


 230:.\Generated_Source\PSoC4/BLE.c ****     #ifdef CYBLE_HIDS
 231:.\Generated_Source\PSoC4/BLE.c ****         CyBle_HidsInit();
 232:.\Generated_Source\PSoC4/BLE.c ****     #endif /* CYBLE_HIDS */
 233:.\Generated_Source\PSoC4/BLE.c **** 
 234:.\Generated_Source\PSoC4/BLE.c ****     #ifdef CYBLE_HRS
 235:.\Generated_Source\PSoC4/BLE.c ****         CyBle_HrsInit();
 236:.\Generated_Source\PSoC4/BLE.c ****     #endif /* CYBLE_HRS */
 237:.\Generated_Source\PSoC4/BLE.c ****     
 238:.\Generated_Source\PSoC4/BLE.c ****     #ifdef CYBLE_HTS
 239:.\Generated_Source\PSoC4/BLE.c ****         CyBle_HtsInit();
 240:.\Generated_Source\PSoC4/BLE.c ****     #endif /* CYBLE_RSCS */
 241:.\Generated_Source\PSoC4/BLE.c **** 
 242:.\Generated_Source\PSoC4/BLE.c ****     #ifdef CYBLE_IAS
 243:.\Generated_Source\PSoC4/BLE.c ****         CyBle_IasInit();
 244:.\Generated_Source\PSoC4/BLE.c ****     #endif /* CYBLE_IAS */
 245:.\Generated_Source\PSoC4/BLE.c **** 
 246:.\Generated_Source\PSoC4/BLE.c ****     #ifdef CYBLE_LLS
 247:.\Generated_Source\PSoC4/BLE.c ****         CyBle_LlsInit();
 248:.\Generated_Source\PSoC4/BLE.c ****     #endif /* CYBLE_LLS */
 249:.\Generated_Source\PSoC4/BLE.c **** 
 250:.\Generated_Source\PSoC4/BLE.c ****     #ifdef CYBLE_RTUS
 251:.\Generated_Source\PSoC4/BLE.c ****         CyBle_RtusInit();
 252:.\Generated_Source\PSoC4/BLE.c ****     #endif /* CYBLE_RTUS */
 253:.\Generated_Source\PSoC4/BLE.c **** 
 254:.\Generated_Source\PSoC4/BLE.c ****     #ifdef CYBLE_LNS
 255:.\Generated_Source\PSoC4/BLE.c ****         CyBle_LnsInit();
 256:.\Generated_Source\PSoC4/BLE.c ****     #endif /* CYBLE_LNS */
 257:.\Generated_Source\PSoC4/BLE.c ****     
 258:.\Generated_Source\PSoC4/BLE.c ****     #ifdef CYBLE_PASS
 259:.\Generated_Source\PSoC4/BLE.c ****         CyBle_PassInit();
 260:.\Generated_Source\PSoC4/BLE.c ****     #endif /* CYBLE_PASS */
 261:.\Generated_Source\PSoC4/BLE.c ****     
 262:.\Generated_Source\PSoC4/BLE.c ****     #ifdef CYBLE_RSCS
 263:.\Generated_Source\PSoC4/BLE.c ****         CyBle_RscsInit();
 264:.\Generated_Source\PSoC4/BLE.c ****     #endif /* CYBLE_RSCS */
 265:.\Generated_Source\PSoC4/BLE.c **** 
 266:.\Generated_Source\PSoC4/BLE.c ****     #ifdef CYBLE_SCPS
 267:.\Generated_Source\PSoC4/BLE.c ****         CyBle_ScpsInit();
 268:.\Generated_Source\PSoC4/BLE.c ****     #endif /* CYBLE_SCPS */
 269:.\Generated_Source\PSoC4/BLE.c ****     
 270:.\Generated_Source\PSoC4/BLE.c ****     #ifdef CYBLE_TPS
 271:.\Generated_Source\PSoC4/BLE.c ****         CyBle_TpsInit();
 228              		.loc 1 271 0
 229 0020 FFF7FEFF 		bl	CyBle_TpsInit
 272:.\Generated_Source\PSoC4/BLE.c ****     #endif /* CYBLE_TPS */
 273:.\Generated_Source\PSoC4/BLE.c ****     
 274:.\Generated_Source\PSoC4/BLE.c ****     #ifdef CYBLE_UDS
 275:.\Generated_Source\PSoC4/BLE.c ****         CyBle_UdsInit();
 276:.\Generated_Source\PSoC4/BLE.c ****     #endif /* CYBLE_UDS */
 277:.\Generated_Source\PSoC4/BLE.c **** }
 230              		.loc 1 277 0
 231 0024 BD46     		mov	sp, r7
 232              		@ sp needed
 233 0026 80BD     		pop	{r7, pc}
 234              	.L6:
 235              		.align	2
 236              	.L5:
ARM GAS  C:\Users\msuro\AppData\Local\Temp\cciNNHPs.s 			page 10


 237 0028 00000000 		.word	cyBle_gapc
 238 002c 00000000 		.word	cyBle_gattc
 239              		.cfi_endproc
 240              	.LFE3:
 241              		.size	CyBle_ServiceInit, .-CyBle_ServiceInit
 242              		.section	.text.CyBle_Start,"ax",%progbits
 243              		.align	2
 244              		.global	CyBle_Start
 245              		.code	16
 246              		.thumb_func
 247              		.type	CyBle_Start, %function
 248              	CyBle_Start:
 249              	.LFB4:
 278:.\Generated_Source\PSoC4/BLE.c **** 
 279:.\Generated_Source\PSoC4/BLE.c **** 
 280:.\Generated_Source\PSoC4/BLE.c **** /******************************************************************************
 281:.\Generated_Source\PSoC4/BLE.c **** ##Function Name: CyBle_Start
 282:.\Generated_Source\PSoC4/BLE.c **** *******************************************************************************
 283:.\Generated_Source\PSoC4/BLE.c **** 
 284:.\Generated_Source\PSoC4/BLE.c **** Summary:
 285:.\Generated_Source\PSoC4/BLE.c ****  This function initializes the BLE Stack, which consists of the BLE Stack 
 286:.\Generated_Source\PSoC4/BLE.c ****  Manager, BLE Controller, and BLE Host modules. It takes care of initializing
 287:.\Generated_Source\PSoC4/BLE.c ****  the Profile layer, schedulers, Timer and other platform related
 288:.\Generated_Source\PSoC4/BLE.c ****  resources required for the BLE component. It also registers the callback 
 289:.\Generated_Source\PSoC4/BLE.c ****  function for BLE events that will be registered in the BLE stack.
 290:.\Generated_Source\PSoC4/BLE.c **** 
 291:.\Generated_Source\PSoC4/BLE.c ****  Note that this function does not reset the BLE Stack.
 292:.\Generated_Source\PSoC4/BLE.c **** 
 293:.\Generated_Source\PSoC4/BLE.c ****  For HCI-Mode of operation, this function will not initialize the BLE Host 
 294:.\Generated_Source\PSoC4/BLE.c ****  module.
 295:.\Generated_Source\PSoC4/BLE.c **** 
 296:.\Generated_Source\PSoC4/BLE.c ****  Calling this function results in the generation of CYBLE_EVT_STACK_ON event
 297:.\Generated_Source\PSoC4/BLE.c ****  on successful initialization of the BLE Stack.
 298:.\Generated_Source\PSoC4/BLE.c **** 
 299:.\Generated_Source\PSoC4/BLE.c **** Parameters:
 300:.\Generated_Source\PSoC4/BLE.c ****  callbackFunc: Event callback function to receive events from BLE stack.
 301:.\Generated_Source\PSoC4/BLE.c ****   CYBLE_CALLBACK_T is a function pointer type.
 302:.\Generated_Source\PSoC4/BLE.c **** 
 303:.\Generated_Source\PSoC4/BLE.c **** Return:
 304:.\Generated_Source\PSoC4/BLE.c ****  CYBLE_API_RESULT_T : Return value indicates if the function succeeded or 
 305:.\Generated_Source\PSoC4/BLE.c ****  failed. Following are the possible error codes.
 306:.\Generated_Source\PSoC4/BLE.c ****  <table>
 307:.\Generated_Source\PSoC4/BLE.c ****   Errors codes                        Description
 308:.\Generated_Source\PSoC4/BLE.c ****   ------------                        -----------------
 309:.\Generated_Source\PSoC4/BLE.c ****   CYBLE_ERROR_OK                      On successful operation.
 310:.\Generated_Source\PSoC4/BLE.c ****   CYBLE_ERROR_INVALID_PARAMETER       On passing a NULL pointer to the 
 311:.\Generated_Source\PSoC4/BLE.c ****                                        function when the BLE stack is not 
 312:.\Generated_Source\PSoC4/BLE.c ****                                        built in HCI mode.
 313:.\Generated_Source\PSoC4/BLE.c ****                                        CYBLE_ERROR_INVALID_PARAMETER
 314:.\Generated_Source\PSoC4/BLE.c ****                                        is never returned in HCI mode.
 315:.\Generated_Source\PSoC4/BLE.c ****   CYBLE_ERROR_REPEATED_ATTEMPTS       On invoking this function more
 316:.\Generated_Source\PSoC4/BLE.c ****                                        than once without calling
 317:.\Generated_Source\PSoC4/BLE.c ****                                        CyBle_Shutdown() function 
 318:.\Generated_Source\PSoC4/BLE.c ****                                        between calls to this function.
 319:.\Generated_Source\PSoC4/BLE.c ****  </table>
 320:.\Generated_Source\PSoC4/BLE.c **** 
 321:.\Generated_Source\PSoC4/BLE.c **** ******************************************************************************/
ARM GAS  C:\Users\msuro\AppData\Local\Temp\cciNNHPs.s 			page 11


 322:.\Generated_Source\PSoC4/BLE.c **** CYBLE_API_RESULT_T CyBle_Start(CYBLE_CALLBACK_T callbackFunc)
 323:.\Generated_Source\PSoC4/BLE.c **** {
 250              		.loc 1 323 0
 251              		.cfi_startproc
 252 0000 90B5     		push	{r4, r7, lr}
 253              		.cfi_def_cfa_offset 12
 254              		.cfi_offset 4, -12
 255              		.cfi_offset 7, -8
 256              		.cfi_offset 14, -4
 257 0002 85B0     		sub	sp, sp, #20
 258              		.cfi_def_cfa_offset 32
 259 0004 00AF     		add	r7, sp, #0
 260              		.cfi_def_cfa_register 7
 261 0006 7860     		str	r0, [r7, #4]
 324:.\Generated_Source\PSoC4/BLE.c ****     CYBLE_API_RESULT_T apiResult = CYBLE_ERROR_INVALID_PARAMETER;
 262              		.loc 1 324 0
 263 0008 3B1C     		mov	r3, r7
 264 000a 0E33     		add	r3, r3, #14
 265 000c 0122     		mov	r2, #1
 266 000e 1A80     		strh	r2, [r3]
 325:.\Generated_Source\PSoC4/BLE.c ****     
 326:.\Generated_Source\PSoC4/BLE.c ****     /* Allocate RAM memory for stack */
 327:.\Generated_Source\PSoC4/BLE.c ****     CYBLE_CYALIGNED static uint8 cyBle_stackMemoryRam[CYBLE_STACK_RAM_SIZE];
 328:.\Generated_Source\PSoC4/BLE.c ****     
 329:.\Generated_Source\PSoC4/BLE.c ****     /* If not initialized then initialize all the required hardware and software */
 330:.\Generated_Source\PSoC4/BLE.c ****     if(cyBle_initVar == 0u)
 267              		.loc 1 330 0
 268 0010 1B4B     		ldr	r3, .L11
 269 0012 1B78     		ldrb	r3, [r3]
 270 0014 002B     		cmp	r3, #0
 271 0016 04D1     		bne	.L8
 331:.\Generated_Source\PSoC4/BLE.c ****     {
 332:.\Generated_Source\PSoC4/BLE.c ****         CyBle_Init();
 272              		.loc 1 332 0
 273 0018 FFF7FEFF 		bl	CyBle_Init
 333:.\Generated_Source\PSoC4/BLE.c ****         cyBle_initVar = 1u;
 274              		.loc 1 333 0
 275 001c 184B     		ldr	r3, .L11
 276 001e 0122     		mov	r2, #1
 277 0020 1A70     		strb	r2, [r3]
 278              	.L8:
 334:.\Generated_Source\PSoC4/BLE.c ****     }
 335:.\Generated_Source\PSoC4/BLE.c ****     
 336:.\Generated_Source\PSoC4/BLE.c ****     if(NULL != callbackFunc)
 279              		.loc 1 336 0
 280 0022 7B68     		ldr	r3, [r7, #4]
 281 0024 002B     		cmp	r3, #0
 282 0026 24D0     		beq	.L9
 337:.\Generated_Source\PSoC4/BLE.c ****     {
 338:.\Generated_Source\PSoC4/BLE.c ****         CyBle_ApplCallback = callbackFunc;
 283              		.loc 1 338 0
 284 0028 164B     		ldr	r3, .L11+4
 285 002a 7A68     		ldr	r2, [r7, #4]
 286 002c 1A60     		str	r2, [r3]
 339:.\Generated_Source\PSoC4/BLE.c **** 
 340:.\Generated_Source\PSoC4/BLE.c ****         apiResult = CyBle_StackInit(&CyBle_EventHandler, cyBle_stackMemoryRam, CYBLE_GATT_MTU);
 287              		.loc 1 340 0
ARM GAS  C:\Users\msuro\AppData\Local\Temp\cciNNHPs.s 			page 12


 288 002e 3C1C     		mov	r4, r7
 289 0030 0E34     		add	r4, r4, #14
 290 0032 1549     		ldr	r1, .L11+8
 291 0034 154A     		ldr	r2, .L11+12
 292 0036 8023     		mov	r3, #128
 293 0038 9B00     		lsl	r3, r3, #2
 294 003a 081C     		mov	r0, r1
 295 003c 111C     		mov	r1, r2
 296 003e 1A1C     		mov	r2, r3
 297 0040 FFF7FEFF 		bl	CyBle_StackInit
 298 0044 031C     		mov	r3, r0
 299 0046 2380     		strh	r3, [r4]
 341:.\Generated_Source\PSoC4/BLE.c **** 
 342:.\Generated_Source\PSoC4/BLE.c ****         if(apiResult == CYBLE_ERROR_OK)
 300              		.loc 1 342 0
 301 0048 3B1C     		mov	r3, r7
 302 004a 0E33     		add	r3, r3, #14
 303 004c 1B88     		ldrh	r3, [r3]
 304 004e 002B     		cmp	r3, #0
 305 0050 0FD1     		bne	.L9
 343:.\Generated_Source\PSoC4/BLE.c ****         {
 344:.\Generated_Source\PSoC4/BLE.c ****             CyBle_SetState(CYBLE_STATE_INITIALIZING);
 306              		.loc 1 344 0
 307 0052 0F4B     		ldr	r3, .L11+16
 308 0054 0122     		mov	r2, #1
 309 0056 1A70     		strb	r2, [r3]
 345:.\Generated_Source\PSoC4/BLE.c ****             
 346:.\Generated_Source\PSoC4/BLE.c ****         #if (CYBLE_GATT_ROLE_CLIENT)
 347:.\Generated_Source\PSoC4/BLE.c ****             CyBle_SetClientState(CYBLE_CLIENT_STATE_DISCONNECTED);
 310              		.loc 1 347 0
 311 0058 0E4B     		ldr	r3, .L11+20
 312 005a 0822     		mov	r2, #8
 313 005c 1A70     		strb	r2, [r3]
 348:.\Generated_Source\PSoC4/BLE.c ****         #endif /* CYBLE_GATT_ROLE_CLIENT */
 349:.\Generated_Source\PSoC4/BLE.c ****             
 350:.\Generated_Source\PSoC4/BLE.c ****         #if(CYBLE_GATT_ROLE_SERVER)
 351:.\Generated_Source\PSoC4/BLE.c ****             apiResult = CyBle_GattsDbRegister(cyBle_gattDB, CYBLE_GATT_DB_INDEX_COUNT, CYBLE_GATT_D
 314              		.loc 1 351 0
 315 005e 3C1C     		mov	r4, r7
 316 0060 0E34     		add	r4, r4, #14
 317 0062 0D4B     		ldr	r3, .L11+24
 318 0064 181C     		mov	r0, r3
 319 0066 0F21     		mov	r1, #15
 320 0068 1122     		mov	r2, #17
 321 006a FFF7FEFF 		bl	CyBle_GattsDbRegister
 322 006e 031C     		mov	r3, r0
 323 0070 2380     		strh	r3, [r4]
 324              	.L9:
 352:.\Generated_Source\PSoC4/BLE.c ****         #endif /* CYBLE_GATT_ROLE_SERVER */
 353:.\Generated_Source\PSoC4/BLE.c ****         }
 354:.\Generated_Source\PSoC4/BLE.c ****     }
 355:.\Generated_Source\PSoC4/BLE.c **** 
 356:.\Generated_Source\PSoC4/BLE.c ****     return (apiResult);
 325              		.loc 1 356 0
 326 0072 3B1C     		mov	r3, r7
 327 0074 0E33     		add	r3, r3, #14
 328 0076 1B88     		ldrh	r3, [r3]
ARM GAS  C:\Users\msuro\AppData\Local\Temp\cciNNHPs.s 			page 13


 357:.\Generated_Source\PSoC4/BLE.c **** }
 329              		.loc 1 357 0
 330 0078 181C     		mov	r0, r3
 331 007a BD46     		mov	sp, r7
 332 007c 05B0     		add	sp, sp, #20
 333              		@ sp needed
 334 007e 90BD     		pop	{r4, r7, pc}
 335              	.L12:
 336              		.align	2
 337              	.L11:
 338 0080 00000000 		.word	cyBle_initVar
 339 0084 00000000 		.word	CyBle_ApplCallback
 340 0088 00000000 		.word	CyBle_EventHandler
 341 008c 08000000 		.word	cyBle_stackMemoryRam.6117
 342 0090 00000000 		.word	cyBle_state
 343 0094 00000000 		.word	cyBle_clientState
 344 0098 00000000 		.word	cyBle_gattDB
 345              		.cfi_endproc
 346              	.LFE4:
 347              		.size	CyBle_Start, .-CyBle_Start
 348              		.section	.text.CyBle_Stop,"ax",%progbits
 349              		.align	2
 350              		.global	CyBle_Stop
 351              		.code	16
 352              		.thumb_func
 353              		.type	CyBle_Stop, %function
 354              	CyBle_Stop:
 355              	.LFB5:
 358:.\Generated_Source\PSoC4/BLE.c **** 
 359:.\Generated_Source\PSoC4/BLE.c **** 
 360:.\Generated_Source\PSoC4/BLE.c **** /******************************************************************************
 361:.\Generated_Source\PSoC4/BLE.c **** ##Function Name: CyBle_Stop
 362:.\Generated_Source\PSoC4/BLE.c **** *******************************************************************************
 363:.\Generated_Source\PSoC4/BLE.c **** 
 364:.\Generated_Source\PSoC4/BLE.c **** Summary:
 365:.\Generated_Source\PSoC4/BLE.c ****  This function stops any ongoing operation in the BLE Stack and forces the 
 366:.\Generated_Source\PSoC4/BLE.c ****  BLE Stack to shut down. The only function that can be called after calling
 367:.\Generated_Source\PSoC4/BLE.c ****  this function is CyBle_Start(). 
 368:.\Generated_Source\PSoC4/BLE.c **** 
 369:.\Generated_Source\PSoC4/BLE.c **** Parameters:
 370:.\Generated_Source\PSoC4/BLE.c ****  None
 371:.\Generated_Source\PSoC4/BLE.c **** 
 372:.\Generated_Source\PSoC4/BLE.c **** Return:
 373:.\Generated_Source\PSoC4/BLE.c ****  None
 374:.\Generated_Source\PSoC4/BLE.c **** 
 375:.\Generated_Source\PSoC4/BLE.c **** ******************************************************************************/
 376:.\Generated_Source\PSoC4/BLE.c **** void CyBle_Stop(void)
 377:.\Generated_Source\PSoC4/BLE.c **** {
 356              		.loc 1 377 0
 357              		.cfi_startproc
 358 0000 80B5     		push	{r7, lr}
 359              		.cfi_def_cfa_offset 8
 360              		.cfi_offset 7, -8
 361              		.cfi_offset 14, -4
 362 0002 00AF     		add	r7, sp, #0
 363              		.cfi_def_cfa_register 7
 378:.\Generated_Source\PSoC4/BLE.c ****     CyBle_Shutdown(); /* stop all ongoing activities */
ARM GAS  C:\Users\msuro\AppData\Local\Temp\cciNNHPs.s 			page 14


 364              		.loc 1 378 0
 365 0004 FFF7FEFF 		bl	CyBle_Shutdown
 379:.\Generated_Source\PSoC4/BLE.c ****     CyBle_ProcessEvents(); /* process all pending events */
 366              		.loc 1 379 0
 367 0008 FFF7FEFF 		bl	CyBle_ProcessEvents
 380:.\Generated_Source\PSoC4/BLE.c ****     CyBle_SetState(CYBLE_STATE_STOPPED);
 368              		.loc 1 380 0
 369 000c 024B     		ldr	r3, .L14
 370 000e 0022     		mov	r2, #0
 371 0010 1A70     		strb	r2, [r3]
 381:.\Generated_Source\PSoC4/BLE.c **** }
 372              		.loc 1 381 0
 373 0012 BD46     		mov	sp, r7
 374              		@ sp needed
 375 0014 80BD     		pop	{r7, pc}
 376              	.L15:
 377 0016 C046     		.align	2
 378              	.L14:
 379 0018 00000000 		.word	cyBle_state
 380              		.cfi_endproc
 381              	.LFE5:
 382              		.size	CyBle_Stop, .-CyBle_Stop
 383              		.section	.text.CyBle_StoreBondingData,"ax",%progbits
 384              		.align	2
 385              		.global	CyBle_StoreBondingData
 386              		.code	16
 387              		.thumb_func
 388              		.type	CyBle_StoreBondingData, %function
 389              	CyBle_StoreBondingData:
 390              	.LFB6:
 382:.\Generated_Source\PSoC4/BLE.c **** 
 383:.\Generated_Source\PSoC4/BLE.c **** 
 384:.\Generated_Source\PSoC4/BLE.c **** #if((CYBLE_GAP_ROLE_PERIPHERAL || CYBLE_GAP_ROLE_CENTRAL) && (CYBLE_BONDING_REQUIREMENT == CYBLE_BO
 385:.\Generated_Source\PSoC4/BLE.c **** 
 386:.\Generated_Source\PSoC4/BLE.c ****     
 387:.\Generated_Source\PSoC4/BLE.c **** /******************************************************************************
 388:.\Generated_Source\PSoC4/BLE.c **** ##Function Name: CyBle_StoreBondingData
 389:.\Generated_Source\PSoC4/BLE.c **** *******************************************************************************
 390:.\Generated_Source\PSoC4/BLE.c **** 
 391:.\Generated_Source\PSoC4/BLE.c **** Summary:
 392:.\Generated_Source\PSoC4/BLE.c ****  This function writes the new bonding data from RAM to the dedicated Flash 
 393:.\Generated_Source\PSoC4/BLE.c ****  location as defined by the component. It performs data comparing between RAM
 394:.\Generated_Source\PSoC4/BLE.c ****  and Flash before writing to Flash. If there is no change between RAM and Flash
 395:.\Generated_Source\PSoC4/BLE.c ****  data, then no write is performed. It writes only one flash row in one call.
 396:.\Generated_Source\PSoC4/BLE.c ****  Application should keep calling this function till API return CYBLE_ERROR_OK. 
 397:.\Generated_Source\PSoC4/BLE.c ****  This function is available only when Bonding requirement is selected in
 398:.\Generated_Source\PSoC4/BLE.c ****  Security settings.    
 399:.\Generated_Source\PSoC4/BLE.c ****     
 400:.\Generated_Source\PSoC4/BLE.c **** Parameters:
 401:.\Generated_Source\PSoC4/BLE.c ****  isForceWrite:  If value is set to 0, then stack will check if flash write 
 402:.\Generated_Source\PSoC4/BLE.c ****                 is permissible. 
 403:.\Generated_Source\PSoC4/BLE.c ****  
 404:.\Generated_Source\PSoC4/BLE.c **** Return:
 405:.\Generated_Source\PSoC4/BLE.c ****  Return value is of type CYBLE_API_RESULT_T.
 406:.\Generated_Source\PSoC4/BLE.c ****  * CYBLE_ERROR_OK - On successful operation
 407:.\Generated_Source\PSoC4/BLE.c ****  * CYBLE_ERROR_FLASH_WRITE_NOT_PERMITED - Flash Write is not complete
 408:.\Generated_Source\PSoC4/BLE.c ****    
ARM GAS  C:\Users\msuro\AppData\Local\Temp\cciNNHPs.s 			page 15


 409:.\Generated_Source\PSoC4/BLE.c ****  Side Effects:
 410:.\Generated_Source\PSoC4/BLE.c ****   This API will automatically modify the clock settings for the device.
 411:.\Generated_Source\PSoC4/BLE.c ****   Writing to flash requires changes to be done to the IMO (set to 48 MHz)
 412:.\Generated_Source\PSoC4/BLE.c ****   and HFCLK (source set to IMO) settings. The configuration is restored before
 413:.\Generated_Source\PSoC4/BLE.c ****   returning. This will impact the operation of most of the hardware in the
 414:.\Generated_Source\PSoC4/BLE.c ****   device.
 415:.\Generated_Source\PSoC4/BLE.c **** 
 416:.\Generated_Source\PSoC4/BLE.c **** ******************************************************************************/
 417:.\Generated_Source\PSoC4/BLE.c **** CYBLE_API_RESULT_T CyBle_StoreBondingData(uint8 isForceWrite)
 418:.\Generated_Source\PSoC4/BLE.c **** {
 391              		.loc 1 418 0
 392              		.cfi_startproc
 393 0000 90B5     		push	{r4, r7, lr}
 394              		.cfi_def_cfa_offset 12
 395              		.cfi_offset 4, -12
 396              		.cfi_offset 7, -8
 397              		.cfi_offset 14, -4
 398 0002 85B0     		sub	sp, sp, #20
 399              		.cfi_def_cfa_offset 32
 400 0004 00AF     		add	r7, sp, #0
 401              		.cfi_def_cfa_register 7
 402 0006 021C     		mov	r2, r0
 403 0008 FB1D     		add	r3, r7, #7
 404 000a 1A70     		strb	r2, [r3]
 419:.\Generated_Source\PSoC4/BLE.c ****     CYBLE_API_RESULT_T apiResult = CYBLE_ERROR_OK;
 405              		.loc 1 419 0
 406 000c 3B1C     		mov	r3, r7
 407 000e 0E33     		add	r3, r3, #14
 408 0010 0022     		mov	r2, #0
 409 0012 1A80     		strh	r2, [r3]
 420:.\Generated_Source\PSoC4/BLE.c ****     
 421:.\Generated_Source\PSoC4/BLE.c ****     /* Store Stack data */
 422:.\Generated_Source\PSoC4/BLE.c ****     if((cyBle_pendingFlashWrite & CYBLE_PENDING_STACK_FLASH_WRITE_BIT) != 0u)
 410              		.loc 1 422 0
 411 0014 2D4B     		ldr	r3, .L21
 412 0016 1B78     		ldrb	r3, [r3]
 413 0018 1A1C     		mov	r2, r3
 414 001a 0123     		mov	r3, #1
 415 001c 1340     		and	r3, r2
 416 001e 1ED0     		beq	.L17
 423:.\Generated_Source\PSoC4/BLE.c ****     {
 424:.\Generated_Source\PSoC4/BLE.c ****         apiResult = CyBle_StoreStackData(isForceWrite);
 417              		.loc 1 424 0
 418 0020 3C1C     		mov	r4, r7
 419 0022 0E34     		add	r4, r4, #14
 420 0024 FB1D     		add	r3, r7, #7
 421 0026 1B78     		ldrb	r3, [r3]
 422 0028 181C     		mov	r0, r3
 423 002a FFF7FEFF 		bl	CyBle_StoreStackData
 424 002e 031C     		mov	r3, r0
 425 0030 2380     		strh	r3, [r4]
 425:.\Generated_Source\PSoC4/BLE.c ****         if(apiResult == CYBLE_ERROR_OK)
 426              		.loc 1 425 0
 427 0032 3B1C     		mov	r3, r7
 428 0034 0E33     		add	r3, r3, #14
 429 0036 1B88     		ldrh	r3, [r3]
 430 0038 002B     		cmp	r3, #0
ARM GAS  C:\Users\msuro\AppData\Local\Temp\cciNNHPs.s 			page 16


 431 003a 10D1     		bne	.L17
 426:.\Generated_Source\PSoC4/BLE.c ****         {
 427:.\Generated_Source\PSoC4/BLE.c ****             cyBle_pendingFlashWrite &= (uint8)~CYBLE_PENDING_STACK_FLASH_WRITE_BIT;
 432              		.loc 1 427 0
 433 003c 234B     		ldr	r3, .L21
 434 003e 1B78     		ldrb	r3, [r3]
 435 0040 0122     		mov	r2, #1
 436 0042 9343     		bic	r3, r2
 437 0044 DAB2     		uxtb	r2, r3
 438 0046 214B     		ldr	r3, .L21
 439 0048 1A70     		strb	r2, [r3]
 428:.\Generated_Source\PSoC4/BLE.c ****             /* Change apiResult if there are more pending data to store */
 429:.\Generated_Source\PSoC4/BLE.c ****             if((cyBle_pendingFlashWrite & CYBLE_PENDING_CCCD_FLASH_WRITE_BIT) != 0u)
 440              		.loc 1 429 0
 441 004a 204B     		ldr	r3, .L21
 442 004c 1B78     		ldrb	r3, [r3]
 443 004e 1A1C     		mov	r2, r3
 444 0050 0223     		mov	r3, #2
 445 0052 1340     		and	r3, r2
 446 0054 03D0     		beq	.L17
 430:.\Generated_Source\PSoC4/BLE.c ****             {
 431:.\Generated_Source\PSoC4/BLE.c ****                 apiResult = CYBLE_ERROR_FLASH_WRITE_NOT_PERMITED;
 447              		.loc 1 431 0
 448 0056 3B1C     		mov	r3, r7
 449 0058 0E33     		add	r3, r3, #14
 450 005a 2822     		mov	r2, #40
 451 005c 1A80     		strh	r2, [r3]
 452              	.L17:
 432:.\Generated_Source\PSoC4/BLE.c ****             }
 433:.\Generated_Source\PSoC4/BLE.c ****         }
 434:.\Generated_Source\PSoC4/BLE.c ****     }
 435:.\Generated_Source\PSoC4/BLE.c **** #if(CYBLE_GATT_DB_CCCD_COUNT != 0u)
 436:.\Generated_Source\PSoC4/BLE.c ****     /* Store CCCD values */
 437:.\Generated_Source\PSoC4/BLE.c ****     if( ((apiResult == CYBLE_ERROR_OK) || (isForceWrite != 0u)) && 
 453              		.loc 1 437 0
 454 005e 3B1C     		mov	r3, r7
 455 0060 0E33     		add	r3, r3, #14
 456 0062 1B88     		ldrh	r3, [r3]
 457 0064 002B     		cmp	r3, #0
 458 0066 03D0     		beq	.L18
 459              		.loc 1 437 0 is_stmt 0 discriminator 2
 460 0068 FB1D     		add	r3, r7, #7
 461 006a 1B78     		ldrb	r3, [r3]
 462 006c 002B     		cmp	r3, #0
 463 006e 26D0     		beq	.L19
 464              	.L18:
 438:.\Generated_Source\PSoC4/BLE.c ****         ((cyBle_pendingFlashWrite & CYBLE_PENDING_CCCD_FLASH_WRITE_BIT) != 0u) &&
 465              		.loc 1 438 0 is_stmt 1 discriminator 1
 466 0070 164B     		ldr	r3, .L21
 467 0072 1B78     		ldrb	r3, [r3]
 468 0074 1A1C     		mov	r2, r3
 469 0076 0223     		mov	r3, #2
 470 0078 1340     		and	r3, r2
 437:.\Generated_Source\PSoC4/BLE.c ****     if( ((apiResult == CYBLE_ERROR_OK) || (isForceWrite != 0u)) && 
 471              		.loc 1 437 0 discriminator 1
 472 007a 20D0     		beq	.L19
 439:.\Generated_Source\PSoC4/BLE.c ****         (cyBle_connHandle.bdHandle <= CYBLE_GAP_MAX_BONDED_DEVICE))
ARM GAS  C:\Users\msuro\AppData\Local\Temp\cciNNHPs.s 			page 17


 473              		.loc 1 439 0
 474 007c 144B     		ldr	r3, .L21+4
 475 007e 1B78     		ldrb	r3, [r3]
 438:.\Generated_Source\PSoC4/BLE.c ****         ((cyBle_pendingFlashWrite & CYBLE_PENDING_CCCD_FLASH_WRITE_BIT) != 0u) &&
 476              		.loc 1 438 0
 477 0080 042B     		cmp	r3, #4
 478 0082 1CD8     		bhi	.L19
 440:.\Generated_Source\PSoC4/BLE.c ****     {
 441:.\Generated_Source\PSoC4/BLE.c ****         apiResult = CyBle_StoreAppData(cyBle_attValuesCCCD, cyBle_attValuesCCCDFlashMemory[cyBle_co
 479              		.loc 1 441 0
 480 0084 124B     		ldr	r3, .L21+4
 481 0086 1B78     		ldrb	r3, [r3]
 482 0088 9A00     		lsl	r2, r3, #2
 483 008a 124B     		ldr	r3, .L21+8
 484 008c D218     		add	r2, r2, r3
 485 008e 3C1C     		mov	r4, r7
 486 0090 0E34     		add	r4, r4, #14
 487 0092 1149     		ldr	r1, .L21+12
 488 0094 FB1D     		add	r3, r7, #7
 489 0096 1B78     		ldrb	r3, [r3]
 490 0098 081C     		mov	r0, r1
 491 009a 111C     		mov	r1, r2
 492 009c 0422     		mov	r2, #4
 493 009e FFF7FEFF 		bl	CyBle_StoreAppData
 494 00a2 031C     		mov	r3, r0
 495 00a4 2380     		strh	r3, [r4]
 442:.\Generated_Source\PSoC4/BLE.c ****                                        CYBLE_GATT_DB_CCCD_COUNT, isForceWrite);
 443:.\Generated_Source\PSoC4/BLE.c ****         if(apiResult == CYBLE_ERROR_OK)
 496              		.loc 1 443 0
 497 00a6 3B1C     		mov	r3, r7
 498 00a8 0E33     		add	r3, r3, #14
 499 00aa 1B88     		ldrh	r3, [r3]
 500 00ac 002B     		cmp	r3, #0
 501 00ae 06D1     		bne	.L19
 444:.\Generated_Source\PSoC4/BLE.c ****         {
 445:.\Generated_Source\PSoC4/BLE.c ****             cyBle_pendingFlashWrite &= (uint8)~CYBLE_PENDING_CCCD_FLASH_WRITE_BIT;
 502              		.loc 1 445 0
 503 00b0 064B     		ldr	r3, .L21
 504 00b2 1B78     		ldrb	r3, [r3]
 505 00b4 0222     		mov	r2, #2
 506 00b6 9343     		bic	r3, r2
 507 00b8 DAB2     		uxtb	r2, r3
 508 00ba 044B     		ldr	r3, .L21
 509 00bc 1A70     		strb	r2, [r3]
 510              	.L19:
 446:.\Generated_Source\PSoC4/BLE.c ****         }
 447:.\Generated_Source\PSoC4/BLE.c ****     }
 448:.\Generated_Source\PSoC4/BLE.c **** #endif /* CYBLE_GATT_DB_CCCD_COUNT != 0u */
 449:.\Generated_Source\PSoC4/BLE.c ****     return(apiResult);
 511              		.loc 1 449 0
 512 00be 3B1C     		mov	r3, r7
 513 00c0 0E33     		add	r3, r3, #14
 514 00c2 1B88     		ldrh	r3, [r3]
 450:.\Generated_Source\PSoC4/BLE.c **** }
 515              		.loc 1 450 0
 516 00c4 181C     		mov	r0, r3
 517 00c6 BD46     		mov	sp, r7
ARM GAS  C:\Users\msuro\AppData\Local\Temp\cciNNHPs.s 			page 18


 518 00c8 05B0     		add	sp, sp, #20
 519              		@ sp needed
 520 00ca 90BD     		pop	{r4, r7, pc}
 521              	.L22:
 522              		.align	2
 523              	.L21:
 524 00cc 00000000 		.word	cyBle_pendingFlashWrite
 525 00d0 00000000 		.word	cyBle_connHandle
 526 00d4 00000000 		.word	cyBle_attValuesCCCDFlashMemory
 527 00d8 00000000 		.word	cyBle_attValuesCCCD
 528              		.cfi_endproc
 529              	.LFE6:
 530              		.size	CyBle_StoreBondingData, .-CyBle_StoreBondingData
 531              		.section	.text.CyBle_GappStartAdvertisement,"ax",%progbits
 532              		.align	2
 533              		.global	CyBle_GappStartAdvertisement
 534              		.code	16
 535              		.thumb_func
 536              		.type	CyBle_GappStartAdvertisement, %function
 537              	CyBle_GappStartAdvertisement:
 538              	.LFB7:
 451:.\Generated_Source\PSoC4/BLE.c **** 
 452:.\Generated_Source\PSoC4/BLE.c **** 
 453:.\Generated_Source\PSoC4/BLE.c **** #endif /* (CYBLE_GAP_ROLE_PERIPHERAL || CYBLE_GAP_ROLE_CENTRAL) && (CYBLE_BONDING_REQUIREMENT == CY
 454:.\Generated_Source\PSoC4/BLE.c **** 
 455:.\Generated_Source\PSoC4/BLE.c **** 
 456:.\Generated_Source\PSoC4/BLE.c **** #if(CYBLE_GAP_ROLE_PERIPHERAL || CYBLE_GAP_ROLE_BROADCASTER)
 457:.\Generated_Source\PSoC4/BLE.c **** 
 458:.\Generated_Source\PSoC4/BLE.c ****     /******************************************************************************
 459:.\Generated_Source\PSoC4/BLE.c ****     ##Function Name: CyBle_GappStartAdvertisement
 460:.\Generated_Source\PSoC4/BLE.c ****     *******************************************************************************
 461:.\Generated_Source\PSoC4/BLE.c ****     
 462:.\Generated_Source\PSoC4/BLE.c ****     Summary:
 463:.\Generated_Source\PSoC4/BLE.c ****      This function is used to start the advertisement using the advertisement data 
 464:.\Generated_Source\PSoC4/BLE.c ****      set in the component customizer's GUI. After invoking this API, the device 
 465:.\Generated_Source\PSoC4/BLE.c ****      will be available for connection by the devices configured for GAP central 
 466:.\Generated_Source\PSoC4/BLE.c ****      role. It is only included if the device is configured for GAP Peripheral or 
 467:.\Generated_Source\PSoC4/BLE.c ****      GAP Peripheral + Central role.
 468:.\Generated_Source\PSoC4/BLE.c ****      
 469:.\Generated_Source\PSoC4/BLE.c ****      On start of advertisement, GAP Peripheral receives the
 470:.\Generated_Source\PSoC4/BLE.c ****      CYBLE_EVT_GAPP_ADVERTISEMENT_START_STOP event. The following events are 
 471:.\Generated_Source\PSoC4/BLE.c ****      possible on invoking this function:
 472:.\Generated_Source\PSoC4/BLE.c ****      
 473:.\Generated_Source\PSoC4/BLE.c ****      * CYBLE_EVT_GAP_DEVICE_CONNECTED: If the device connects to remote GAP 
 474:.\Generated_Source\PSoC4/BLE.c ****                                          Central device
 475:.\Generated_Source\PSoC4/BLE.c ****      * CYBLE_EVT_TIMEOUT: If no device in GAP Central mode connects to this 
 476:.\Generated_Source\PSoC4/BLE.c ****                           device within the specified timeout limit. Stack 
 477:.\Generated_Source\PSoC4/BLE.c ****                           automatically initiate stop advertising when Slow 
 478:.\Generated_Source\PSoC4/BLE.c ****                           advertising was initiated, or starts Slow advertising
 479:.\Generated_Source\PSoC4/BLE.c ****                           after Fast advertising timeout occur.
 480:.\Generated_Source\PSoC4/BLE.c ****      * CYBLE_EVT_GAPP_ADVERTISEMENT_START_STOP: If device started or stopped
 481:.\Generated_Source\PSoC4/BLE.c ****                                                   advertising. Use CyBle_GetState()
 482:.\Generated_Source\PSoC4/BLE.c ****                                                   to determine the state. Sequential 
 483:.\Generated_Source\PSoC4/BLE.c ****                                                   advertising could be started when
 484:.\Generated_Source\PSoC4/BLE.c ****                                                   CYBLE_STATE_DISCONNECTED state is
 485:.\Generated_Source\PSoC4/BLE.c ****                                                   returned.
 486:.\Generated_Source\PSoC4/BLE.c **** 
ARM GAS  C:\Users\msuro\AppData\Local\Temp\cciNNHPs.s 			page 19


 487:.\Generated_Source\PSoC4/BLE.c ****     Parameters:
 488:.\Generated_Source\PSoC4/BLE.c ****      uint8 advertisingIntervalType: Fast or slow advertising interval with timings
 489:.\Generated_Source\PSoC4/BLE.c ****                                     entered in Advertising settings section of the
 490:.\Generated_Source\PSoC4/BLE.c ****                                     customizer.
 491:.\Generated_Source\PSoC4/BLE.c ****      * CYBLE_ADVERTISING_FAST   0x00u
 492:.\Generated_Source\PSoC4/BLE.c ****      * CYBLE_ADVERTISING_SLOW   0x01u
 493:.\Generated_Source\PSoC4/BLE.c ****      * CYBLE_ADVERTISING_CUSTOM 0x02u
 494:.\Generated_Source\PSoC4/BLE.c ****     
 495:.\Generated_Source\PSoC4/BLE.c ****     Return:
 496:.\Generated_Source\PSoC4/BLE.c ****      CYBLE_API_RESULT_T : Return value indicates if the function succeeded or
 497:.\Generated_Source\PSoC4/BLE.c ****      failed. Following are the possible error codes.
 498:.\Generated_Source\PSoC4/BLE.c ****      <table>
 499:.\Generated_Source\PSoC4/BLE.c ****       Errors codes                        Description
 500:.\Generated_Source\PSoC4/BLE.c ****       ------------                        -----------
 501:.\Generated_Source\PSoC4/BLE.c ****       CYBLE_ERROR_OK                      On successful operation.
 502:.\Generated_Source\PSoC4/BLE.c ****       CYBLE_ERROR_INVALID_PARAMETER       On passing an invalid parameter.
 503:.\Generated_Source\PSoC4/BLE.c ****      </table>
 504:.\Generated_Source\PSoC4/BLE.c ****     
 505:.\Generated_Source\PSoC4/BLE.c ****     ******************************************************************************/
 506:.\Generated_Source\PSoC4/BLE.c ****     CYBLE_API_RESULT_T CyBle_GappStartAdvertisement(uint8 advertisingIntervalType)
 507:.\Generated_Source\PSoC4/BLE.c ****     {
 539              		.loc 1 507 0
 540              		.cfi_startproc
 541 0000 90B5     		push	{r4, r7, lr}
 542              		.cfi_def_cfa_offset 12
 543              		.cfi_offset 4, -12
 544              		.cfi_offset 7, -8
 545              		.cfi_offset 14, -4
 546 0002 85B0     		sub	sp, sp, #20
 547              		.cfi_def_cfa_offset 32
 548 0004 00AF     		add	r7, sp, #0
 549              		.cfi_def_cfa_register 7
 550 0006 021C     		mov	r2, r0
 551 0008 FB1D     		add	r3, r7, #7
 552 000a 1A70     		strb	r2, [r3]
 508:.\Generated_Source\PSoC4/BLE.c ****         CYBLE_API_RESULT_T apiResult;
 509:.\Generated_Source\PSoC4/BLE.c ****         
 510:.\Generated_Source\PSoC4/BLE.c ****         if((CYBLE_STATE_DISCONNECTED == CyBle_GetState()) && ((cyBle_eventHandlerFlag & CYBLE_START
 553              		.loc 1 510 0
 554 000c 294B     		ldr	r3, .L30
 555 000e 1B78     		ldrb	r3, [r3]
 556 0010 042B     		cmp	r3, #4
 557 0012 42D1     		bne	.L24
 558              		.loc 1 510 0 is_stmt 0 discriminator 1
 559 0014 284B     		ldr	r3, .L30+4
 560 0016 1B78     		ldrb	r3, [r3]
 561 0018 DBB2     		uxtb	r3, r3
 562 001a 1A1C     		mov	r2, r3
 563 001c 0423     		mov	r3, #4
 564 001e 1340     		and	r3, r2
 565 0020 3BD1     		bne	.L24
 511:.\Generated_Source\PSoC4/BLE.c ****         {   
 512:.\Generated_Source\PSoC4/BLE.c ****             if(advertisingIntervalType == CYBLE_ADVERTISING_FAST)
 566              		.loc 1 512 0 is_stmt 1
 567 0022 FB1D     		add	r3, r7, #7
 568 0024 1B78     		ldrb	r3, [r3]
 569 0026 002B     		cmp	r3, #0
ARM GAS  C:\Users\msuro\AppData\Local\Temp\cciNNHPs.s 			page 20


 570 0028 0BD1     		bne	.L25
 513:.\Generated_Source\PSoC4/BLE.c ****             {
 514:.\Generated_Source\PSoC4/BLE.c ****                 cyBle_discoveryModeInfo.advTo = CYBLE_FAST_ADV_TIMEOUT;
 571              		.loc 1 514 0
 572 002a 244B     		ldr	r3, .L30+8
 573 002c 1E22     		mov	r2, #30
 574 002e 1A82     		strh	r2, [r3, #16]
 515:.\Generated_Source\PSoC4/BLE.c ****                 cyBle_discoveryModeInfo.advParam->advIntvMin = CYBLE_FAST_ADV_INT_MIN;
 575              		.loc 1 515 0
 576 0030 224B     		ldr	r3, .L30+8
 577 0032 5B68     		ldr	r3, [r3, #4]
 578 0034 2022     		mov	r2, #32
 579 0036 1A80     		strh	r2, [r3]
 516:.\Generated_Source\PSoC4/BLE.c ****                 cyBle_discoveryModeInfo.advParam->advIntvMax = CYBLE_FAST_ADV_INT_MAX;
 580              		.loc 1 516 0
 581 0038 204B     		ldr	r3, .L30+8
 582 003a 5B68     		ldr	r3, [r3, #4]
 583 003c 3022     		mov	r2, #48
 584 003e 5A80     		strh	r2, [r3, #2]
 585 0040 10E0     		b	.L26
 586              	.L25:
 517:.\Generated_Source\PSoC4/BLE.c ****             }
 518:.\Generated_Source\PSoC4/BLE.c ****             else if(advertisingIntervalType == CYBLE_ADVERTISING_SLOW)
 587              		.loc 1 518 0
 588 0042 FB1D     		add	r3, r7, #7
 589 0044 1B78     		ldrb	r3, [r3]
 590 0046 012B     		cmp	r3, #1
 591 0048 0CD1     		bne	.L26
 519:.\Generated_Source\PSoC4/BLE.c ****             {
 520:.\Generated_Source\PSoC4/BLE.c ****                 cyBle_discoveryModeInfo.advTo = CYBLE_SLOW_ADV_TIMEOUT;
 592              		.loc 1 520 0
 593 004a 1C4B     		ldr	r3, .L30+8
 594 004c 9622     		mov	r2, #150
 595 004e 1A82     		strh	r2, [r3, #16]
 521:.\Generated_Source\PSoC4/BLE.c ****                 cyBle_discoveryModeInfo.advParam->advIntvMin = CYBLE_SLOW_ADV_INT_MIN;
 596              		.loc 1 521 0
 597 0050 1A4B     		ldr	r3, .L30+8
 598 0052 5B68     		ldr	r3, [r3, #4]
 599 0054 C822     		mov	r2, #200
 600 0056 D200     		lsl	r2, r2, #3
 601 0058 1A80     		strh	r2, [r3]
 522:.\Generated_Source\PSoC4/BLE.c ****                 cyBle_discoveryModeInfo.advParam->advIntvMax = CYBLE_SLOW_ADV_INT_MAX;
 602              		.loc 1 522 0
 603 005a 184B     		ldr	r3, .L30+8
 604 005c 5B68     		ldr	r3, [r3, #4]
 605 005e 8022     		mov	r2, #128
 606 0060 D201     		lsl	r2, r2, #7
 607 0062 5A80     		strh	r2, [r3, #2]
 608              	.L26:
 523:.\Generated_Source\PSoC4/BLE.c ****             }       
 524:.\Generated_Source\PSoC4/BLE.c ****             else /* Do not update advertising intervals */
 525:.\Generated_Source\PSoC4/BLE.c ****             {
 526:.\Generated_Source\PSoC4/BLE.c ****             }
 527:.\Generated_Source\PSoC4/BLE.c ****             cyBle_advertisingIntervalType = advertisingIntervalType;
 609              		.loc 1 527 0
 610 0064 164B     		ldr	r3, .L30+12
 611 0066 FA1D     		add	r2, r7, #7
ARM GAS  C:\Users\msuro\AppData\Local\Temp\cciNNHPs.s 			page 21


 612 0068 1278     		ldrb	r2, [r2]
 613 006a 1A70     		strb	r2, [r3]
 528:.\Generated_Source\PSoC4/BLE.c ****             apiResult = CyBle_GappEnterDiscoveryMode(&cyBle_discoveryModeInfo);
 614              		.loc 1 528 0
 615 006c 3C1C     		mov	r4, r7
 616 006e 0E34     		add	r4, r4, #14
 617 0070 124B     		ldr	r3, .L30+8
 618 0072 181C     		mov	r0, r3
 619 0074 FFF7FEFF 		bl	CyBle_GappEnterDiscoveryMode
 620 0078 031C     		mov	r3, r0
 621 007a 2380     		strh	r3, [r4]
 529:.\Generated_Source\PSoC4/BLE.c ****         
 530:.\Generated_Source\PSoC4/BLE.c ****             if(CYBLE_ERROR_OK == apiResult)
 622              		.loc 1 530 0
 623 007c 3B1C     		mov	r3, r7
 624 007e 0E33     		add	r3, r3, #14
 625 0080 1B88     		ldrh	r3, [r3]
 626 0082 002B     		cmp	r3, #0
 627 0084 08D1     		bne	.L27
 531:.\Generated_Source\PSoC4/BLE.c ****             {
 532:.\Generated_Source\PSoC4/BLE.c ****                 cyBle_eventHandlerFlag |= CYBLE_START_FLAG;
 628              		.loc 1 532 0
 629 0086 0C4B     		ldr	r3, .L30+4
 630 0088 1B78     		ldrb	r3, [r3]
 631 008a DBB2     		uxtb	r3, r3
 632 008c 0422     		mov	r2, #4
 633 008e 1343     		orr	r3, r2
 634 0090 DAB2     		uxtb	r2, r3
 635 0092 094B     		ldr	r3, .L30+4
 636 0094 1A70     		strb	r2, [r3]
 530:.\Generated_Source\PSoC4/BLE.c ****             if(CYBLE_ERROR_OK == apiResult)
 637              		.loc 1 530 0
 638 0096 05E0     		b	.L28
 639              	.L27:
 530:.\Generated_Source\PSoC4/BLE.c ****             if(CYBLE_ERROR_OK == apiResult)
 640              		.loc 1 530 0 is_stmt 0 discriminator 1
 641 0098 04E0     		b	.L28
 642              	.L24:
 533:.\Generated_Source\PSoC4/BLE.c ****             }
 534:.\Generated_Source\PSoC4/BLE.c ****         }
 535:.\Generated_Source\PSoC4/BLE.c ****         else
 536:.\Generated_Source\PSoC4/BLE.c ****         {
 537:.\Generated_Source\PSoC4/BLE.c ****             apiResult = CYBLE_ERROR_INVALID_STATE;
 643              		.loc 1 537 0 is_stmt 1
 644 009a 3B1C     		mov	r3, r7
 645 009c 0E33     		add	r3, r3, #14
 646 009e 8322     		mov	r2, #131
 647 00a0 5200     		lsl	r2, r2, #1
 648 00a2 1A80     		strh	r2, [r3]
 649              	.L28:
 538:.\Generated_Source\PSoC4/BLE.c ****         }
 539:.\Generated_Source\PSoC4/BLE.c **** 
 540:.\Generated_Source\PSoC4/BLE.c ****         return (apiResult);
 650              		.loc 1 540 0
 651 00a4 3B1C     		mov	r3, r7
 652 00a6 0E33     		add	r3, r3, #14
 653 00a8 1B88     		ldrh	r3, [r3]
ARM GAS  C:\Users\msuro\AppData\Local\Temp\cciNNHPs.s 			page 22


 541:.\Generated_Source\PSoC4/BLE.c ****     }
 654              		.loc 1 541 0
 655 00aa 181C     		mov	r0, r3
 656 00ac BD46     		mov	sp, r7
 657 00ae 05B0     		add	sp, sp, #20
 658              		@ sp needed
 659 00b0 90BD     		pop	{r4, r7, pc}
 660              	.L31:
 661 00b2 C046     		.align	2
 662              	.L30:
 663 00b4 00000000 		.word	cyBle_state
 664 00b8 00000000 		.word	cyBle_eventHandlerFlag
 665 00bc 00000000 		.word	cyBle_discoveryModeInfo
 666 00c0 00000000 		.word	cyBle_advertisingIntervalType
 667              		.cfi_endproc
 668              	.LFE7:
 669              		.size	CyBle_GappStartAdvertisement, .-CyBle_GappStartAdvertisement
 670              		.section	.text.CyBle_GappStopAdvertisement,"ax",%progbits
 671              		.align	2
 672              		.global	CyBle_GappStopAdvertisement
 673              		.code	16
 674              		.thumb_func
 675              		.type	CyBle_GappStopAdvertisement, %function
 676              	CyBle_GappStopAdvertisement:
 677              	.LFB8:
 542:.\Generated_Source\PSoC4/BLE.c **** 
 543:.\Generated_Source\PSoC4/BLE.c ****     
 544:.\Generated_Source\PSoC4/BLE.c ****     /******************************************************************************
 545:.\Generated_Source\PSoC4/BLE.c ****     ##Function Name: CyBle_GappStopAdvertisement
 546:.\Generated_Source\PSoC4/BLE.c ****     *******************************************************************************
 547:.\Generated_Source\PSoC4/BLE.c ****     
 548:.\Generated_Source\PSoC4/BLE.c ****      Summary:
 549:.\Generated_Source\PSoC4/BLE.c ****       This function can be used to exit from discovery mode. After the execution 
 550:.\Generated_Source\PSoC4/BLE.c ****       of this function, there will no longer be any advertisements. On stopping 
 551:.\Generated_Source\PSoC4/BLE.c ****       advertising, GAP Peripheral receives CYBLE_EVT_GAPP_ADVERTISEMENT_START_STOP
 552:.\Generated_Source\PSoC4/BLE.c ****       event. It is expected that the application layer tracks the function call 
 553:.\Generated_Source\PSoC4/BLE.c ****       performed before occurrence of this event as this event can occur on making 
 554:.\Generated_Source\PSoC4/BLE.c ****       a call to Cy_BleGappStartAdvertisement(), CyBle_GappEnterDiscoveryMode(), 
 555:.\Generated_Source\PSoC4/BLE.c ****       or CyBle_GappStartAdvertisement() functions as well.
 556:.\Generated_Source\PSoC4/BLE.c ****       
 557:.\Generated_Source\PSoC4/BLE.c ****       The following event occurs on invoking this function:
 558:.\Generated_Source\PSoC4/BLE.c ****       * CYBLE_EVT_GAPP_ADVERTISEMENT_START_STOP
 559:.\Generated_Source\PSoC4/BLE.c ****     
 560:.\Generated_Source\PSoC4/BLE.c ****      Parameters:
 561:.\Generated_Source\PSoC4/BLE.c ****       None
 562:.\Generated_Source\PSoC4/BLE.c ****     
 563:.\Generated_Source\PSoC4/BLE.c ****      Return:
 564:.\Generated_Source\PSoC4/BLE.c ****       None
 565:.\Generated_Source\PSoC4/BLE.c ****     
 566:.\Generated_Source\PSoC4/BLE.c ****     ******************************************************************************/
 567:.\Generated_Source\PSoC4/BLE.c ****     void CyBle_GappStopAdvertisement(void)
 568:.\Generated_Source\PSoC4/BLE.c ****     {
 678              		.loc 1 568 0
 679              		.cfi_startproc
 680 0000 80B5     		push	{r7, lr}
 681              		.cfi_def_cfa_offset 8
 682              		.cfi_offset 7, -8
ARM GAS  C:\Users\msuro\AppData\Local\Temp\cciNNHPs.s 			page 23


 683              		.cfi_offset 14, -4
 684 0002 00AF     		add	r7, sp, #0
 685              		.cfi_def_cfa_register 7
 569:.\Generated_Source\PSoC4/BLE.c ****         CyBle_GappExitDiscoveryMode();
 686              		.loc 1 569 0
 687 0004 FFF7FEFF 		bl	CyBle_GappExitDiscoveryMode
 570:.\Generated_Source\PSoC4/BLE.c ****         cyBle_eventHandlerFlag |= CYBLE_STOP_FLAG;
 688              		.loc 1 570 0
 689 0008 044B     		ldr	r3, .L33
 690 000a 1B78     		ldrb	r3, [r3]
 691 000c DBB2     		uxtb	r3, r3
 692 000e 0822     		mov	r2, #8
 693 0010 1343     		orr	r3, r2
 694 0012 DAB2     		uxtb	r2, r3
 695 0014 014B     		ldr	r3, .L33
 696 0016 1A70     		strb	r2, [r3]
 571:.\Generated_Source\PSoC4/BLE.c ****     }
 697              		.loc 1 571 0
 698 0018 BD46     		mov	sp, r7
 699              		@ sp needed
 700 001a 80BD     		pop	{r7, pc}
 701              	.L34:
 702              		.align	2
 703              	.L33:
 704 001c 00000000 		.word	cyBle_eventHandlerFlag
 705              		.cfi_endproc
 706              	.LFE8:
 707              		.size	CyBle_GappStopAdvertisement, .-CyBle_GappStopAdvertisement
 708              		.section	.text.CyBle_ChangeAdDeviceAddress,"ax",%progbits
 709              		.align	2
 710              		.global	CyBle_ChangeAdDeviceAddress
 711              		.code	16
 712              		.thumb_func
 713              		.type	CyBle_ChangeAdDeviceAddress, %function
 714              	CyBle_ChangeAdDeviceAddress:
 715              	.LFB9:
 572:.\Generated_Source\PSoC4/BLE.c ****     
 573:.\Generated_Source\PSoC4/BLE.c ****     
 574:.\Generated_Source\PSoC4/BLE.c ****     /******************************************************************************
 575:.\Generated_Source\PSoC4/BLE.c ****     ##Function Name: CyBle_ChangeAdDeviceAddress
 576:.\Generated_Source\PSoC4/BLE.c ****     *******************************************************************************
 577:.\Generated_Source\PSoC4/BLE.c **** 
 578:.\Generated_Source\PSoC4/BLE.c ****     Summary:
 579:.\Generated_Source\PSoC4/BLE.c ****      This API is used to set the Bluetooth device address into the advertisement 
 580:.\Generated_Source\PSoC4/BLE.c ****      or scan response data structure.
 581:.\Generated_Source\PSoC4/BLE.c **** 
 582:.\Generated_Source\PSoC4/BLE.c ****     Parameters:
 583:.\Generated_Source\PSoC4/BLE.c ****      bdAddr: Bluetooth Device address. The variable is of type CYBLE_GAP_BD_ADDR_T
 584:.\Generated_Source\PSoC4/BLE.c ****      uint8 dest: 0 - avrevtisement structure, not zero value selects scan response
 585:.\Generated_Source\PSoC4/BLE.c ****                  structure.
 586:.\Generated_Source\PSoC4/BLE.c **** 
 587:.\Generated_Source\PSoC4/BLE.c ****     Return:
 588:.\Generated_Source\PSoC4/BLE.c ****      None
 589:.\Generated_Source\PSoC4/BLE.c ****  
 590:.\Generated_Source\PSoC4/BLE.c ****     ******************************************************************************/
 591:.\Generated_Source\PSoC4/BLE.c ****     void CyBle_ChangeAdDeviceAddress(const CYBLE_GAP_BD_ADDR_T* bdAddr, uint8 dest)
 592:.\Generated_Source\PSoC4/BLE.c ****     {
ARM GAS  C:\Users\msuro\AppData\Local\Temp\cciNNHPs.s 			page 24


 716              		.loc 1 592 0
 717              		.cfi_startproc
 718 0000 80B5     		push	{r7, lr}
 719              		.cfi_def_cfa_offset 8
 720              		.cfi_offset 7, -8
 721              		.cfi_offset 14, -4
 722 0002 84B0     		sub	sp, sp, #16
 723              		.cfi_def_cfa_offset 24
 724 0004 00AF     		add	r7, sp, #0
 725              		.cfi_def_cfa_register 7
 726 0006 7860     		str	r0, [r7, #4]
 727 0008 0A1C     		mov	r2, r1
 728 000a FB1C     		add	r3, r7, #3
 729 000c 1A70     		strb	r2, [r3]
 593:.\Generated_Source\PSoC4/BLE.c ****         uint8 i;
 594:.\Generated_Source\PSoC4/BLE.c ****         uint8 *destBuffer = NULL;
 730              		.loc 1 594 0
 731 000e 0023     		mov	r3, #0
 732 0010 BB60     		str	r3, [r7, #8]
 595:.\Generated_Source\PSoC4/BLE.c ****         
 596:.\Generated_Source\PSoC4/BLE.c ****         if(dest == 0u)      /* Destination - advertising structure */
 597:.\Generated_Source\PSoC4/BLE.c ****         {
 598:.\Generated_Source\PSoC4/BLE.c ****             #ifdef CYBLE_ADV_PKT_INDEX_BLUETOOTH_DEVICE_ADDRESS
 599:.\Generated_Source\PSoC4/BLE.c ****                 destBuffer = &cyBle_discoveryData.advData[CYBLE_ADV_PKT_INDEX_BLUETOOTH_DEVICE_ADDR
 600:.\Generated_Source\PSoC4/BLE.c ****             #endif /* CYBLE_ADV_PKT_INDEX_BLUETOOTH_DEVICE_ADDRESS */
 601:.\Generated_Source\PSoC4/BLE.c ****         }
 602:.\Generated_Source\PSoC4/BLE.c ****         else                /* Destination - scan response structure */
 603:.\Generated_Source\PSoC4/BLE.c ****         {
 604:.\Generated_Source\PSoC4/BLE.c ****             #ifdef CYBLE_SCN_PKT_INDEX_BLUETOOTH_DEVICE_ADDRESS
 605:.\Generated_Source\PSoC4/BLE.c ****                 destBuffer = &cyBle_scanRspData.scanRspData[CYBLE_SCN_PKT_INDEX_BLUETOOTH_DEVICE_AD
 606:.\Generated_Source\PSoC4/BLE.c ****             #endif /* CYBLE_SCN_PKT_INDEX_BLUETOOTH_DEVICE_ADDRESS */    
 607:.\Generated_Source\PSoC4/BLE.c ****         }
 608:.\Generated_Source\PSoC4/BLE.c ****         
 609:.\Generated_Source\PSoC4/BLE.c ****         if(destBuffer != NULL)
 733              		.loc 1 609 0
 734 0012 BB68     		ldr	r3, [r7, #8]
 735 0014 002B     		cmp	r3, #0
 736 0016 20D0     		beq	.L35
 610:.\Generated_Source\PSoC4/BLE.c ****         {
 611:.\Generated_Source\PSoC4/BLE.c ****             /* Update Device Address type */
 612:.\Generated_Source\PSoC4/BLE.c ****             destBuffer[0u] = bdAddr->type;
 737              		.loc 1 612 0
 738 0018 7B68     		ldr	r3, [r7, #4]
 739 001a 9A79     		ldrb	r2, [r3, #6]
 740 001c BB68     		ldr	r3, [r7, #8]
 741 001e 1A70     		strb	r2, [r3]
 613:.\Generated_Source\PSoC4/BLE.c ****             
 614:.\Generated_Source\PSoC4/BLE.c ****             for(i = 0; i < CYBLE_GAP_BD_ADDR_SIZE; i++)
 742              		.loc 1 614 0
 743 0020 3B1C     		mov	r3, r7
 744 0022 0F33     		add	r3, r3, #15
 745 0024 0022     		mov	r2, #0
 746 0026 1A70     		strb	r2, [r3]
 747 0028 12E0     		b	.L37
 748              	.L38:
 615:.\Generated_Source\PSoC4/BLE.c ****             {
 616:.\Generated_Source\PSoC4/BLE.c ****                 destBuffer[i + 1u] = bdAddr->bdAddr[i];
ARM GAS  C:\Users\msuro\AppData\Local\Temp\cciNNHPs.s 			page 25


 749              		.loc 1 616 0 discriminator 2
 750 002a 3B1C     		mov	r3, r7
 751 002c 0F33     		add	r3, r3, #15
 752 002e 1B78     		ldrb	r3, [r3]
 753 0030 0133     		add	r3, r3, #1
 754 0032 BA68     		ldr	r2, [r7, #8]
 755 0034 D318     		add	r3, r2, r3
 756 0036 3A1C     		mov	r2, r7
 757 0038 0F32     		add	r2, r2, #15
 758 003a 1278     		ldrb	r2, [r2]
 759 003c 7968     		ldr	r1, [r7, #4]
 760 003e 8A5C     		ldrb	r2, [r1, r2]
 761 0040 1A70     		strb	r2, [r3]
 614:.\Generated_Source\PSoC4/BLE.c ****             for(i = 0; i < CYBLE_GAP_BD_ADDR_SIZE; i++)
 762              		.loc 1 614 0 discriminator 2
 763 0042 3B1C     		mov	r3, r7
 764 0044 0F33     		add	r3, r3, #15
 765 0046 1A78     		ldrb	r2, [r3]
 766 0048 3B1C     		mov	r3, r7
 767 004a 0F33     		add	r3, r3, #15
 768 004c 0132     		add	r2, r2, #1
 769 004e 1A70     		strb	r2, [r3]
 770              	.L37:
 614:.\Generated_Source\PSoC4/BLE.c ****             for(i = 0; i < CYBLE_GAP_BD_ADDR_SIZE; i++)
 771              		.loc 1 614 0 is_stmt 0 discriminator 1
 772 0050 3B1C     		mov	r3, r7
 773 0052 0F33     		add	r3, r3, #15
 774 0054 1B78     		ldrb	r3, [r3]
 775 0056 052B     		cmp	r3, #5
 776 0058 E7D9     		bls	.L38
 777              	.L35:
 617:.\Generated_Source\PSoC4/BLE.c ****             }
 618:.\Generated_Source\PSoC4/BLE.c ****         }
 619:.\Generated_Source\PSoC4/BLE.c ****     }
 778              		.loc 1 619 0 is_stmt 1
 779 005a BD46     		mov	sp, r7
 780 005c 04B0     		add	sp, sp, #16
 781              		@ sp needed
 782 005e 80BD     		pop	{r7, pc}
 783              		.cfi_endproc
 784              	.LFE9:
 785              		.size	CyBle_ChangeAdDeviceAddress, .-CyBle_ChangeAdDeviceAddress
 786              		.section	.text.CyBle_ChangeAdLocalName,"ax",%progbits
 787              		.align	2
 788              		.code	16
 789              		.thumb_func
 790              		.type	CyBle_ChangeAdLocalName, %function
 791              	CyBle_ChangeAdLocalName:
 792              	.LFB10:
 620:.\Generated_Source\PSoC4/BLE.c ****   
 621:.\Generated_Source\PSoC4/BLE.c **** #endif /* CYBLE_GAP_ROLE_PERIPHERAL || CYBLE_GAP_ROLE_BROADCASTER */
 622:.\Generated_Source\PSoC4/BLE.c **** 
 623:.\Generated_Source\PSoC4/BLE.c **** 
 624:.\Generated_Source\PSoC4/BLE.c **** #if(CYBLE_GAP_ROLE_CENTRAL || CYBLE_GAP_ROLE_OBSERVER)
 625:.\Generated_Source\PSoC4/BLE.c **** 
 626:.\Generated_Source\PSoC4/BLE.c ****     /******************************************************************************
 627:.\Generated_Source\PSoC4/BLE.c ****     ##Function Name: CyBle_GapcStartScan
ARM GAS  C:\Users\msuro\AppData\Local\Temp\cciNNHPs.s 			page 26


 628:.\Generated_Source\PSoC4/BLE.c ****     *******************************************************************************
 629:.\Generated_Source\PSoC4/BLE.c ****     
 630:.\Generated_Source\PSoC4/BLE.c ****      Summary:
 631:.\Generated_Source\PSoC4/BLE.c ****       This function is used for discovering GAP peripheral devices that are 
 632:.\Generated_Source\PSoC4/BLE.c ****       available for connection. It performs the scanning routine using the 
 633:.\Generated_Source\PSoC4/BLE.c ****       parameters entered in the component's customizer.
 634:.\Generated_Source\PSoC4/BLE.c ****       
 635:.\Generated_Source\PSoC4/BLE.c ****       As soon as the discovery operation starts, CYBLE_EVT_GAPC_SCAN_START_STOP 
 636:.\Generated_Source\PSoC4/BLE.c ****       event is generated. The CYBLE_EVT_GAPC_SCAN_PROGRESS_RESULT event is 
 637:.\Generated_Source\PSoC4/BLE.c ****       generated when a GAP peripheral device is located. There are three discovery
 638:.\Generated_Source\PSoC4/BLE.c ****       procedures can be selected in the customizer's GUI:
 639:.\Generated_Source\PSoC4/BLE.c ****       
 640:.\Generated_Source\PSoC4/BLE.c ****       * Observation procedure: A device performing the observer role receives only
 641:.\Generated_Source\PSoC4/BLE.c ****                                advertisement data from devices irrespective of 
 642:.\Generated_Source\PSoC4/BLE.c ****                                their discoverable mode settings. Advertisement 
 643:.\Generated_Source\PSoC4/BLE.c ****                                data received is provided by the event,      
 644:.\Generated_Source\PSoC4/BLE.c ****                                CYBLE_EVT_GAPC_SCAN_PROGRESS_RESULT. This procedure
 645:.\Generated_Source\PSoC4/BLE.c ****                                requires the scanType sub parameter to be passive
 646:.\Generated_Source\PSoC4/BLE.c ****                                scanning. 
 647:.\Generated_Source\PSoC4/BLE.c ****       
 648:.\Generated_Source\PSoC4/BLE.c ****       * Limited Discovery procedure: A device performing the limited discovery
 649:.\Generated_Source\PSoC4/BLE.c ****                                      procedure receives advertisement data and 
 650:.\Generated_Source\PSoC4/BLE.c ****                                      scan# response data from devices in the 
 651:.\Generated_Source\PSoC4/BLE.c ****                                      limited discoverable mode only. Received data
 652:.\Generated_Source\PSoC4/BLE.c ****                                      is provided by the event, 
 653:.\Generated_Source\PSoC4/BLE.c ****                                      CYBLE_EVT_GAPC_SCAN_PROGRESS_RESULT. This 
 654:.\Generated_Source\PSoC4/BLE.c ****                                      procedure requires the scanType sub-parameter 
 655:.\Generated_Source\PSoC4/BLE.c ****                                      to be active scanning.
 656:.\Generated_Source\PSoC4/BLE.c ****       
 657:.\Generated_Source\PSoC4/BLE.c ****       * General Discovery procedure: A device performing the general discovery 
 658:.\Generated_Source\PSoC4/BLE.c ****                                      procedure receives the advertisement data and
 659:.\Generated_Source\PSoC4/BLE.c ****                                      scan response data from devices in both 
 660:.\Generated_Source\PSoC4/BLE.c ****                                      limited discoverable mode and the general 
 661:.\Generated_Source\PSoC4/BLE.c ****                                      discoverable mode. Received data is provided
 662:.\Generated_Source\PSoC4/BLE.c ****                                      by the event,
 663:.\Generated_Source\PSoC4/BLE.c ****                                      CYBLE_EVT_GAPC_SCAN_PROGRESS_RESULT. This 
 664:.\Generated_Source\PSoC4/BLE.c ****                                      procedure requires the scanType sub-parameter
 665:.\Generated_Source\PSoC4/BLE.c ****                                      to be active scanning.
 666:.\Generated_Source\PSoC4/BLE.c ****       
 667:.\Generated_Source\PSoC4/BLE.c ****       Every Advertisement / Scan response packet received results in a new event, 
 668:.\Generated_Source\PSoC4/BLE.c ****       CYBLE_EVT_GAPC_SCAN_PROGRESS_RESULT.
 669:.\Generated_Source\PSoC4/BLE.c ****       If 'scanTo' sub-parameter is a non-zero value, then upon commencement of 
 670:.\Generated_Source\PSoC4/BLE.c ****       discovery procedure and elapsed time = 'scanTo', CYBLE_EVT_TIMEOUT event
 671:.\Generated_Source\PSoC4/BLE.c ****       is generated with the event parameter indicating CYBLE_GAP_SCAN_TO.
 672:.\Generated_Source\PSoC4/BLE.c ****       Possible generated events are:
 673:.\Generated_Source\PSoC4/BLE.c ****       * CYBLE_EVT_GAPC_SCAN_START_STOP: If a device started or stopped scanning. 
 674:.\Generated_Source\PSoC4/BLE.c ****                                         Use CyBle_GetState() to determine the 
 675:.\Generated_Source\PSoC4/BLE.c ****                                         state. Sequential scanning could be 
 676:.\Generated_Source\PSoC4/BLE.c ****                                         started when CYBLE_STATE_DISCONNECTED 
 677:.\Generated_Source\PSoC4/BLE.c ****                                         state is returned. 
 678:.\Generated_Source\PSoC4/BLE.c ****       * CYBLE_EVT_GAPC_SCAN_PROGRESS_RESULT 
 679:.\Generated_Source\PSoC4/BLE.c ****       * CYBLE_EVT_TIMEOUT (CYBLE_GAP_SCAN_TO)
 680:.\Generated_Source\PSoC4/BLE.c ****     
 681:.\Generated_Source\PSoC4/BLE.c ****      Parameters:
 682:.\Generated_Source\PSoC4/BLE.c ****       uint8 scanningIntervalType:  Fast or slow scanning interval with
 683:.\Generated_Source\PSoC4/BLE.c ****           timings entered in Scan settings section of the customiser.
 684:.\Generated_Source\PSoC4/BLE.c ****     	  * CYBLE_SCANNING_FAST   0x00u
ARM GAS  C:\Users\msuro\AppData\Local\Temp\cciNNHPs.s 			page 27


 685:.\Generated_Source\PSoC4/BLE.c ****     	  * CYBLE_SCANNING_SLOW   0x01u
 686:.\Generated_Source\PSoC4/BLE.c ****     	  * CYBLE_SCANNING_CUSTOM 0x02u
 687:.\Generated_Source\PSoC4/BLE.c ****     
 688:.\Generated_Source\PSoC4/BLE.c ****     Return:
 689:.\Generated_Source\PSoC4/BLE.c ****      CYBLE_API_RESULT_T : Return value indicates if the function succeeded or
 690:.\Generated_Source\PSoC4/BLE.c ****      failed. Following are the possible error codes.
 691:.\Generated_Source\PSoC4/BLE.c ****      <table>
 692:.\Generated_Source\PSoC4/BLE.c ****       Errors codes                        Values  Description
 693:.\Generated_Source\PSoC4/BLE.c ****       ------------                        ------  -----------
 694:.\Generated_Source\PSoC4/BLE.c ****       CYBLE_ERROR_OK                      0x0000  On successful operation.
 695:.\Generated_Source\PSoC4/BLE.c ****       CYBLE_ERROR_STACK_INTERNAL          0x0003  An error occurred in the 
 696:.\Generated_Source\PSoC4/BLE.c ****                                                    BLE stack.
 697:.\Generated_Source\PSoC4/BLE.c ****      </table>
 698:.\Generated_Source\PSoC4/BLE.c ****      
 699:.\Generated_Source\PSoC4/BLE.c ****     ******************************************************************************/
 700:.\Generated_Source\PSoC4/BLE.c ****     CYBLE_API_RESULT_T CyBle_GapcStartScan(uint8 scanningIntervalType)
 701:.\Generated_Source\PSoC4/BLE.c ****     {
 702:.\Generated_Source\PSoC4/BLE.c ****         CYBLE_API_RESULT_T apiResult;
 703:.\Generated_Source\PSoC4/BLE.c **** 
 704:.\Generated_Source\PSoC4/BLE.c ****         if(scanningIntervalType == CYBLE_SCANNING_FAST)
 705:.\Generated_Source\PSoC4/BLE.c ****         {
 706:.\Generated_Source\PSoC4/BLE.c ****             cyBle_discoveryInfo.scanTo = CYBLE_FAST_SCAN_TIMEOUT;
 707:.\Generated_Source\PSoC4/BLE.c ****             cyBle_discoveryInfo.scanIntv = CYBLE_FAST_SCAN_INTERVAL;
 708:.\Generated_Source\PSoC4/BLE.c ****             cyBle_discoveryInfo.scanWindow = CYBLE_FAST_SCAN_WINDOW;
 709:.\Generated_Source\PSoC4/BLE.c ****         }
 710:.\Generated_Source\PSoC4/BLE.c ****         else if(scanningIntervalType == CYBLE_SCANNING_SLOW)
 711:.\Generated_Source\PSoC4/BLE.c ****         {
 712:.\Generated_Source\PSoC4/BLE.c ****             cyBle_discoveryInfo.scanTo = CYBLE_SLOW_SCAN_TIMEOUT;
 713:.\Generated_Source\PSoC4/BLE.c ****             cyBle_discoveryInfo.scanIntv = CYBLE_SLOW_SCAN_INTERVAL;
 714:.\Generated_Source\PSoC4/BLE.c ****             cyBle_discoveryInfo.scanWindow = CYBLE_SLOW_SCAN_WINDOW;
 715:.\Generated_Source\PSoC4/BLE.c ****         }       
 716:.\Generated_Source\PSoC4/BLE.c ****         else /* Do not update scanning intervals */
 717:.\Generated_Source\PSoC4/BLE.c ****         {
 718:.\Generated_Source\PSoC4/BLE.c ****         }
 719:.\Generated_Source\PSoC4/BLE.c ****         
 720:.\Generated_Source\PSoC4/BLE.c ****         cyBle_scanningIntervalType = scanningIntervalType;
 721:.\Generated_Source\PSoC4/BLE.c ****         apiResult = CyBle_GapcStartDiscovery(&cyBle_discoveryInfo);
 722:.\Generated_Source\PSoC4/BLE.c ****     
 723:.\Generated_Source\PSoC4/BLE.c ****         if(CYBLE_ERROR_OK == apiResult)
 724:.\Generated_Source\PSoC4/BLE.c ****         {
 725:.\Generated_Source\PSoC4/BLE.c ****             cyBle_eventHandlerFlag |= CYBLE_START_FLAG;
 726:.\Generated_Source\PSoC4/BLE.c ****         }
 727:.\Generated_Source\PSoC4/BLE.c ****        
 728:.\Generated_Source\PSoC4/BLE.c ****         return (apiResult);
 729:.\Generated_Source\PSoC4/BLE.c ****     }
 730:.\Generated_Source\PSoC4/BLE.c ****     
 731:.\Generated_Source\PSoC4/BLE.c ****     
 732:.\Generated_Source\PSoC4/BLE.c ****     /******************************************************************************
 733:.\Generated_Source\PSoC4/BLE.c ****     ##Function Name: CyBle_GapcStopScan
 734:.\Generated_Source\PSoC4/BLE.c ****     *******************************************************************************
 735:.\Generated_Source\PSoC4/BLE.c ****     
 736:.\Generated_Source\PSoC4/BLE.c ****      Summary:
 737:.\Generated_Source\PSoC4/BLE.c ****       This function used to stop the discovery of devices. On stopping discovery
 738:.\Generated_Source\PSoC4/BLE.c ****       operation, CYBLE_EVT_GAPC_SCAN_START_STOP event is generated. Application
 739:.\Generated_Source\PSoC4/BLE.c ****       layer needs to keep track of the function call made before receiving this
 740:.\Generated_Source\PSoC4/BLE.c ****       event to associate this event with either the start or stop discovery
 741:.\Generated_Source\PSoC4/BLE.c ****       function.
ARM GAS  C:\Users\msuro\AppData\Local\Temp\cciNNHPs.s 			page 28


 742:.\Generated_Source\PSoC4/BLE.c ****     
 743:.\Generated_Source\PSoC4/BLE.c ****       Possible events generated are:
 744:.\Generated_Source\PSoC4/BLE.c ****        * CYBLE_EVT_GAPC_SCAN_START_STOP
 745:.\Generated_Source\PSoC4/BLE.c ****     
 746:.\Generated_Source\PSoC4/BLE.c ****      Parameters:
 747:.\Generated_Source\PSoC4/BLE.c ****       None
 748:.\Generated_Source\PSoC4/BLE.c ****     
 749:.\Generated_Source\PSoC4/BLE.c ****      Return:
 750:.\Generated_Source\PSoC4/BLE.c ****       None
 751:.\Generated_Source\PSoC4/BLE.c ****     
 752:.\Generated_Source\PSoC4/BLE.c ****     ******************************************************************************/
 753:.\Generated_Source\PSoC4/BLE.c ****     void CyBle_GapcStopScan(void)
 754:.\Generated_Source\PSoC4/BLE.c ****     {
 755:.\Generated_Source\PSoC4/BLE.c ****         CyBle_GapcStopDiscovery();
 756:.\Generated_Source\PSoC4/BLE.c ****         
 757:.\Generated_Source\PSoC4/BLE.c ****         cyBle_eventHandlerFlag |= CYBLE_STOP_FLAG;
 758:.\Generated_Source\PSoC4/BLE.c ****     }
 759:.\Generated_Source\PSoC4/BLE.c **** 
 760:.\Generated_Source\PSoC4/BLE.c ****     
 761:.\Generated_Source\PSoC4/BLE.c **** #endif /* CYBLE_GAP_ROLE_CENTRAL || CYBLE_GAP_ROLE_OBSERVER */
 762:.\Generated_Source\PSoC4/BLE.c **** 
 763:.\Generated_Source\PSoC4/BLE.c **** 
 764:.\Generated_Source\PSoC4/BLE.c **** #if(CYBLE_GAP_ROLE_CENTRAL)
 765:.\Generated_Source\PSoC4/BLE.c **** 
 766:.\Generated_Source\PSoC4/BLE.c ****     /******************************************************************************
 767:.\Generated_Source\PSoC4/BLE.c ****     ##Function Name: CyBle_GapcConnectDevice
 768:.\Generated_Source\PSoC4/BLE.c ****     *******************************************************************************
 769:.\Generated_Source\PSoC4/BLE.c ****     
 770:.\Generated_Source\PSoC4/BLE.c ****     Summary:
 771:.\Generated_Source\PSoC4/BLE.c ****      This function is used to send a connection request to the remote device with
 772:.\Generated_Source\PSoC4/BLE.c ****      the connection parameters set in the component customizer. This function needs
 773:.\Generated_Source\PSoC4/BLE.c ****      to be called only once after the target device is discovered by 
 774:.\Generated_Source\PSoC4/BLE.c ****      CyBle_GapcStartScan() and further scanning has stopped. Scanning is 
 775:.\Generated_Source\PSoC4/BLE.c ****      successfully stopped on invoking CyBle_GapcStopScan() and then receiving the
 776:.\Generated_Source\PSoC4/BLE.c ****      event CYBLE_EVT_GAPC_SCAN_START_STOP with sub-parameter 'success' = 0x01u.
 777:.\Generated_Source\PSoC4/BLE.c ****      
 778:.\Generated_Source\PSoC4/BLE.c ****      On successful connection, the following events are generated at the GAP 
 779:.\Generated_Source\PSoC4/BLE.c ****      Central device (as well as the GAP Peripheral device), in the following order.
 780:.\Generated_Source\PSoC4/BLE.c ****      * CYBLE_EVT_GATT_CONNECT_IND
 781:.\Generated_Source\PSoC4/BLE.c ****      * CYBLE_EVT_GAP_DEVICE_CONNECTED
 782:.\Generated_Source\PSoC4/BLE.c ****  
 783:.\Generated_Source\PSoC4/BLE.c ****      A procedure is considered to have timed out if a connection response packet is 
 784:.\Generated_Source\PSoC4/BLE.c ****      not received within time set by cyBle_connectingTimeout global variable
 785:.\Generated_Source\PSoC4/BLE.c ****      (30 seconds by default). CYBLE_EVT_TIMEOUT event with CYBLE_GENERIC_TO parameter
 786:.\Generated_Source\PSoC4/BLE.c ****      will indicate about connection procedure timeout. Connection will automatically
 787:.\Generated_Source\PSoC4/BLE.c ****      be cancelled and state will be changed to CYBLE_STATE_DISCONNECTED.
 788:.\Generated_Source\PSoC4/BLE.c ****     
 789:.\Generated_Source\PSoC4/BLE.c ****     Parameters:
 790:.\Generated_Source\PSoC4/BLE.c ****      const CYBLE_GAP_BD_ADDR_T address: The device address of the remote device to 
 791:.\Generated_Source\PSoC4/BLE.c ****                                         connect to. 
 792:.\Generated_Source\PSoC4/BLE.c ****      timeout: Timeout for which timer to be started in seconds.
 793:.\Generated_Source\PSoC4/BLE.c ****  
 794:.\Generated_Source\PSoC4/BLE.c ****     Return:
 795:.\Generated_Source\PSoC4/BLE.c ****      CYBLE_API_RESULT_T : Return value indicates if the function succeeded or 
 796:.\Generated_Source\PSoC4/BLE.c ****      failed. Following are the possible error codes.
 797:.\Generated_Source\PSoC4/BLE.c ****      <table>
 798:.\Generated_Source\PSoC4/BLE.c ****       Errors codes                        Description
ARM GAS  C:\Users\msuro\AppData\Local\Temp\cciNNHPs.s 			page 29


 799:.\Generated_Source\PSoC4/BLE.c ****       ------------                        -----------
 800:.\Generated_Source\PSoC4/BLE.c ****       CYBLE_ERROR_OK                      On successful operation.
 801:.\Generated_Source\PSoC4/BLE.c ****       CYBLE_ERROR_STACK_INTERNAL          On error occurred in the 
 802:.\Generated_Source\PSoC4/BLE.c ****                                            BLE stack.
 803:.\Generated_Source\PSoC4/BLE.c ****       CYBLE_ERROR_INVALID_PARAMETER       On specifying NULL as input
 804:.\Generated_Source\PSoC4/BLE.c ****                                            parameter for 'scanInfo' or if
 805:.\Generated_Source\PSoC4/BLE.c ****                                            any element with in 'scanInfo'
 806:.\Generated_Source\PSoC4/BLE.c ****                                            has an invalid value.
 807:.\Generated_Source\PSoC4/BLE.c ****      </table>
 808:.\Generated_Source\PSoC4/BLE.c ****  
 809:.\Generated_Source\PSoC4/BLE.c ****     ******************************************************************************/
 810:.\Generated_Source\PSoC4/BLE.c ****     CYBLE_API_RESULT_T CyBle_GapcConnectDevice(const CYBLE_GAP_BD_ADDR_T * address)
 811:.\Generated_Source\PSoC4/BLE.c ****     {
 812:.\Generated_Source\PSoC4/BLE.c ****         CYBLE_API_RESULT_T apiResult;
 813:.\Generated_Source\PSoC4/BLE.c ****         uint8 i;
 814:.\Generated_Source\PSoC4/BLE.c **** 
 815:.\Generated_Source\PSoC4/BLE.c ****         if(CYBLE_STATE_DISCONNECTED != CyBle_GetState())
 816:.\Generated_Source\PSoC4/BLE.c ****         {
 817:.\Generated_Source\PSoC4/BLE.c ****             apiResult = CYBLE_ERROR_INVALID_STATE;
 818:.\Generated_Source\PSoC4/BLE.c ****         }
 819:.\Generated_Source\PSoC4/BLE.c ****         else if(address == NULL)
 820:.\Generated_Source\PSoC4/BLE.c ****         {
 821:.\Generated_Source\PSoC4/BLE.c ****             apiResult = CYBLE_ERROR_INVALID_PARAMETER;
 822:.\Generated_Source\PSoC4/BLE.c ****         }
 823:.\Generated_Source\PSoC4/BLE.c ****         else
 824:.\Generated_Source\PSoC4/BLE.c ****         {
 825:.\Generated_Source\PSoC4/BLE.c ****             for(i = 0u; i < CYBLE_GAP_BD_ADDR_SIZE; i++)
 826:.\Generated_Source\PSoC4/BLE.c ****             {
 827:.\Generated_Source\PSoC4/BLE.c ****                 cyBle_connectionParameters.peerBdAddr[i] = address->bdAddr[i];
 828:.\Generated_Source\PSoC4/BLE.c ****             }
 829:.\Generated_Source\PSoC4/BLE.c ****             cyBle_connectionParameters.peerAddrType = address -> type;
 830:.\Generated_Source\PSoC4/BLE.c ****             apiResult = CyBle_GapcInitConnection(&cyBle_connectionParameters);
 831:.\Generated_Source\PSoC4/BLE.c ****             
 832:.\Generated_Source\PSoC4/BLE.c ****             if(CYBLE_ERROR_OK == apiResult)
 833:.\Generated_Source\PSoC4/BLE.c ****             {
 834:.\Generated_Source\PSoC4/BLE.c ****                 CyBle_SetState(CYBLE_STATE_CONNECTING);
 835:.\Generated_Source\PSoC4/BLE.c ****                 if(cyBle_connectingTimeout != 0u)
 836:.\Generated_Source\PSoC4/BLE.c ****                 {
 837:.\Generated_Source\PSoC4/BLE.c ****                     (void)CyBle_StartTimer(cyBle_connectingTimeout);
 838:.\Generated_Source\PSoC4/BLE.c ****                 }
 839:.\Generated_Source\PSoC4/BLE.c ****             }
 840:.\Generated_Source\PSoC4/BLE.c ****         }
 841:.\Generated_Source\PSoC4/BLE.c ****         return (apiResult);
 842:.\Generated_Source\PSoC4/BLE.c ****     }
 843:.\Generated_Source\PSoC4/BLE.c ****     
 844:.\Generated_Source\PSoC4/BLE.c **** 
 845:.\Generated_Source\PSoC4/BLE.c ****     /******************************************************************************
 846:.\Generated_Source\PSoC4/BLE.c ****     ##Function Name: CyBle_GapcCancelDeviceConnection
 847:.\Generated_Source\PSoC4/BLE.c ****     *******************************************************************************
 848:.\Generated_Source\PSoC4/BLE.c ****     
 849:.\Generated_Source\PSoC4/BLE.c ****     Summary:
 850:.\Generated_Source\PSoC4/BLE.c ****      This function cancels a previously initiated connection with the remote 
 851:.\Generated_Source\PSoC4/BLE.c ****      device. It is a blocking function. No event is generated on calling this 
 852:.\Generated_Source\PSoC4/BLE.c ****      function. If the devices are already connected then this function should not
 853:.\Generated_Source\PSoC4/BLE.c ****      be used. If you intend to disconnect from an existing connection, the function
 854:.\Generated_Source\PSoC4/BLE.c ****      CyBle_GapDisconnect() should be used.
 855:.\Generated_Source\PSoC4/BLE.c **** 
ARM GAS  C:\Users\msuro\AppData\Local\Temp\cciNNHPs.s 			page 30


 856:.\Generated_Source\PSoC4/BLE.c ****     Parameters:
 857:.\Generated_Source\PSoC4/BLE.c ****      None
 858:.\Generated_Source\PSoC4/BLE.c **** 
 859:.\Generated_Source\PSoC4/BLE.c ****     Return:
 860:.\Generated_Source\PSoC4/BLE.c ****      CYBLE_API_RESULT_T : Return value indicates if the function succeeded or 
 861:.\Generated_Source\PSoC4/BLE.c ****      failed. Following are the possible error codes.
 862:.\Generated_Source\PSoC4/BLE.c ****      <table>
 863:.\Generated_Source\PSoC4/BLE.c ****       Errors codes                        Description
 864:.\Generated_Source\PSoC4/BLE.c ****       ------------                        -----------
 865:.\Generated_Source\PSoC4/BLE.c ****       CYBLE_ERROR_OK                      On successful operation.
 866:.\Generated_Source\PSoC4/BLE.c ****       CYBLE_ERROR_STACK_INTERNAL          An error occurred in the 
 867:.\Generated_Source\PSoC4/BLE.c ****                                            BLE stack.
 868:.\Generated_Source\PSoC4/BLE.c ****       CYBLE_ERROR_INVALID_OPERATION       Device is already connected.
 869:.\Generated_Source\PSoC4/BLE.c ****      </table>
 870:.\Generated_Source\PSoC4/BLE.c ****  
 871:.\Generated_Source\PSoC4/BLE.c ****     ******************************************************************************/
 872:.\Generated_Source\PSoC4/BLE.c ****     CYBLE_API_RESULT_T CyBle_GapcCancelDeviceConnection(void)
 873:.\Generated_Source\PSoC4/BLE.c ****     {
 874:.\Generated_Source\PSoC4/BLE.c ****         CYBLE_API_RESULT_T apiResult;
 875:.\Generated_Source\PSoC4/BLE.c ****         
 876:.\Generated_Source\PSoC4/BLE.c ****         apiResult = CyBle_GapcCancelConnection();
 877:.\Generated_Source\PSoC4/BLE.c ****             
 878:.\Generated_Source\PSoC4/BLE.c ****         if(cyBle_connectingTimeout != 0u)
 879:.\Generated_Source\PSoC4/BLE.c ****         {
 880:.\Generated_Source\PSoC4/BLE.c ****             (void)CyBle_StopTimer();
 881:.\Generated_Source\PSoC4/BLE.c ****         }
 882:.\Generated_Source\PSoC4/BLE.c **** 
 883:.\Generated_Source\PSoC4/BLE.c ****         if(CYBLE_ERROR_OK == apiResult)
 884:.\Generated_Source\PSoC4/BLE.c ****         {
 885:.\Generated_Source\PSoC4/BLE.c ****             CyBle_SetState(CYBLE_STATE_DISCONNECTED);
 886:.\Generated_Source\PSoC4/BLE.c ****         }
 887:.\Generated_Source\PSoC4/BLE.c ****         return (apiResult);
 888:.\Generated_Source\PSoC4/BLE.c ****     }    
 889:.\Generated_Source\PSoC4/BLE.c **** 
 890:.\Generated_Source\PSoC4/BLE.c ****     
 891:.\Generated_Source\PSoC4/BLE.c **** #endif /* CYBLE_GAP_ROLE_CENTRAL */
 892:.\Generated_Source\PSoC4/BLE.c **** 
 893:.\Generated_Source\PSoC4/BLE.c **** 
 894:.\Generated_Source\PSoC4/BLE.c **** #if(CYBLE_GATT_ROLE_SERVER)
 895:.\Generated_Source\PSoC4/BLE.c **** 
 896:.\Generated_Source\PSoC4/BLE.c **** #if(CYBLE_GAP_ROLE_PERIPHERAL)
 897:.\Generated_Source\PSoC4/BLE.c **** 
 898:.\Generated_Source\PSoC4/BLE.c ****         /******************************************************************************
 899:.\Generated_Source\PSoC4/BLE.c ****         ##Function Name: CyBle_ChangeAdLocalName
 900:.\Generated_Source\PSoC4/BLE.c ****         *******************************************************************************
 901:.\Generated_Source\PSoC4/BLE.c ****         Summary:
 902:.\Generated_Source\PSoC4/BLE.c ****          This API is used to set the local device name in the advertisement or scan 
 903:.\Generated_Source\PSoC4/BLE.c ****          response data structure.
 904:.\Generated_Source\PSoC4/BLE.c **** 
 905:.\Generated_Source\PSoC4/BLE.c ****         Parameters:
 906:.\Generated_Source\PSoC4/BLE.c ****          char8 name: The local device name string to be set in advertisement data 
 907:.\Generated_Source\PSoC4/BLE.c ****                    structure.
 908:.\Generated_Source\PSoC4/BLE.c ****          uint8 dest: 0 - avrevtisement structure, not zero value selects scan response
 909:.\Generated_Source\PSoC4/BLE.c ****                      structure.
 910:.\Generated_Source\PSoC4/BLE.c **** 
 911:.\Generated_Source\PSoC4/BLE.c ****         Return:
 912:.\Generated_Source\PSoC4/BLE.c ****          None
ARM GAS  C:\Users\msuro\AppData\Local\Temp\cciNNHPs.s 			page 31


 913:.\Generated_Source\PSoC4/BLE.c ****      
 914:.\Generated_Source\PSoC4/BLE.c ****         ******************************************************************************/
 915:.\Generated_Source\PSoC4/BLE.c ****         static void CyBle_ChangeAdLocalName(const char8 name[], uint8 dest)
 916:.\Generated_Source\PSoC4/BLE.c ****         {
 793              		.loc 1 916 0
 794              		.cfi_startproc
 795 0000 80B5     		push	{r7, lr}
 796              		.cfi_def_cfa_offset 8
 797              		.cfi_offset 7, -8
 798              		.cfi_offset 14, -4
 799 0002 86B0     		sub	sp, sp, #24
 800              		.cfi_def_cfa_offset 32
 801 0004 00AF     		add	r7, sp, #0
 802              		.cfi_def_cfa_register 7
 803 0006 7860     		str	r0, [r7, #4]
 804 0008 0A1C     		mov	r2, r1
 805 000a FB1C     		add	r3, r7, #3
 806 000c 1A70     		strb	r2, [r3]
 917:.\Generated_Source\PSoC4/BLE.c ****             uint8 i;
 918:.\Generated_Source\PSoC4/BLE.c ****             uint8 flag = 0u;
 807              		.loc 1 918 0
 808 000e 3B1C     		mov	r3, r7
 809 0010 1633     		add	r3, r3, #22
 810 0012 0022     		mov	r2, #0
 811 0014 1A70     		strb	r2, [r3]
 919:.\Generated_Source\PSoC4/BLE.c ****             uint8 adLength = 0u;
 812              		.loc 1 919 0
 813 0016 3B1C     		mov	r3, r7
 814 0018 1533     		add	r3, r3, #21
 815 001a 0022     		mov	r2, #0
 816 001c 1A70     		strb	r2, [r3]
 920:.\Generated_Source\PSoC4/BLE.c ****             uint8 byteCounter = 0u;
 817              		.loc 1 920 0
 818 001e 3B1C     		mov	r3, r7
 819 0020 1433     		add	r3, r3, #20
 820 0022 0022     		mov	r2, #0
 821 0024 1A70     		strb	r2, [r3]
 921:.\Generated_Source\PSoC4/BLE.c ****             uint8 *destBuffer;
 922:.\Generated_Source\PSoC4/BLE.c ****             uint8 maxLength;
 923:.\Generated_Source\PSoC4/BLE.c ****             
 924:.\Generated_Source\PSoC4/BLE.c ****             if(dest == 0u)      /* Destination - advertising structure */
 822              		.loc 1 924 0
 823 0026 FB1C     		add	r3, r7, #3
 824 0028 1B78     		ldrb	r3, [r3]
 825 002a 002B     		cmp	r3, #0
 826 002c 07D1     		bne	.L40
 925:.\Generated_Source\PSoC4/BLE.c ****             {
 926:.\Generated_Source\PSoC4/BLE.c ****                 destBuffer = cyBle_discoveryData.advData;
 827              		.loc 1 926 0
 828 002e 5A4B     		ldr	r3, .L55
 829 0030 3B61     		str	r3, [r7, #16]
 927:.\Generated_Source\PSoC4/BLE.c ****                 maxLength = cyBle_discoveryData.advDataLen;
 830              		.loc 1 927 0
 831 0032 3B1C     		mov	r3, r7
 832 0034 0F33     		add	r3, r3, #15
 833 0036 584A     		ldr	r2, .L55
 834 0038 D27F     		ldrb	r2, [r2, #31]
ARM GAS  C:\Users\msuro\AppData\Local\Temp\cciNNHPs.s 			page 32


 835 003a 1A70     		strb	r2, [r3]
 928:.\Generated_Source\PSoC4/BLE.c ****             }
 929:.\Generated_Source\PSoC4/BLE.c ****             else                /* Destination - scan response structure */
 930:.\Generated_Source\PSoC4/BLE.c ****             {
 931:.\Generated_Source\PSoC4/BLE.c ****                 destBuffer = cyBle_scanRspData.scanRspData;
 932:.\Generated_Source\PSoC4/BLE.c ****                 maxLength = cyBle_scanRspData.scanRspDataLen;
 933:.\Generated_Source\PSoC4/BLE.c ****             }
 934:.\Generated_Source\PSoC4/BLE.c ****             
 935:.\Generated_Source\PSoC4/BLE.c ****             while((byteCounter < maxLength) && (0u == flag))
 836              		.loc 1 935 0
 837 003c 3DE0     		b	.L42
 838              	.L40:
 931:.\Generated_Source\PSoC4/BLE.c ****                 destBuffer = cyBle_scanRspData.scanRspData;
 839              		.loc 1 931 0
 840 003e 574B     		ldr	r3, .L55+4
 841 0040 3B61     		str	r3, [r7, #16]
 932:.\Generated_Source\PSoC4/BLE.c ****                 maxLength = cyBle_scanRspData.scanRspDataLen;
 842              		.loc 1 932 0
 843 0042 3B1C     		mov	r3, r7
 844 0044 0F33     		add	r3, r3, #15
 845 0046 554A     		ldr	r2, .L55+4
 846 0048 D27F     		ldrb	r2, [r2, #31]
 847 004a 1A70     		strb	r2, [r3]
 848              		.loc 1 935 0
 849 004c 35E0     		b	.L42
 850              	.L48:
 936:.\Generated_Source\PSoC4/BLE.c ****             {
 937:.\Generated_Source\PSoC4/BLE.c ****                 adLength = destBuffer[byteCounter];
 851              		.loc 1 937 0
 852 004e 3B1C     		mov	r3, r7
 853 0050 1433     		add	r3, r3, #20
 854 0052 1B78     		ldrb	r3, [r3]
 855 0054 3A69     		ldr	r2, [r7, #16]
 856 0056 D218     		add	r2, r2, r3
 857 0058 3B1C     		mov	r3, r7
 858 005a 1533     		add	r3, r3, #21
 859 005c 1278     		ldrb	r2, [r2]
 860 005e 1A70     		strb	r2, [r3]
 938:.\Generated_Source\PSoC4/BLE.c ****                 
 939:.\Generated_Source\PSoC4/BLE.c ****                 if(0u != adLength)
 861              		.loc 1 939 0
 862 0060 3B1C     		mov	r3, r7
 863 0062 1533     		add	r3, r3, #21
 864 0064 1B78     		ldrb	r3, [r3]
 865 0066 002B     		cmp	r3, #0
 866 0068 26D0     		beq	.L43
 940:.\Generated_Source\PSoC4/BLE.c ****                 {
 941:.\Generated_Source\PSoC4/BLE.c ****                     /* Increment byte counter so it can point to AD type */
 942:.\Generated_Source\PSoC4/BLE.c ****                     byteCounter++;
 867              		.loc 1 942 0
 868 006a 3B1C     		mov	r3, r7
 869 006c 1433     		add	r3, r3, #20
 870 006e 1A78     		ldrb	r2, [r3]
 871 0070 3B1C     		mov	r3, r7
 872 0072 1433     		add	r3, r3, #20
 873 0074 0132     		add	r2, r2, #1
 874 0076 1A70     		strb	r2, [r3]
ARM GAS  C:\Users\msuro\AppData\Local\Temp\cciNNHPs.s 			page 33


 943:.\Generated_Source\PSoC4/BLE.c ****                     
 944:.\Generated_Source\PSoC4/BLE.c ****                     if((CYBLE_SHORT_LOCAL_NAME == destBuffer[byteCounter]) || 
 875              		.loc 1 944 0
 876 0078 3B1C     		mov	r3, r7
 877 007a 1433     		add	r3, r3, #20
 878 007c 1B78     		ldrb	r3, [r3]
 879 007e 3A69     		ldr	r2, [r7, #16]
 880 0080 D318     		add	r3, r2, r3
 881 0082 1B78     		ldrb	r3, [r3]
 882 0084 082B     		cmp	r3, #8
 883 0086 07D0     		beq	.L44
 945:.\Generated_Source\PSoC4/BLE.c ****                         (CYBLE_COMPLETE_LOCAL_NAME == destBuffer[byteCounter]))
 884              		.loc 1 945 0 discriminator 1
 885 0088 3B1C     		mov	r3, r7
 886 008a 1433     		add	r3, r3, #20
 887 008c 1B78     		ldrb	r3, [r3]
 888 008e 3A69     		ldr	r2, [r7, #16]
 889 0090 D318     		add	r3, r2, r3
 890 0092 1B78     		ldrb	r3, [r3]
 944:.\Generated_Source\PSoC4/BLE.c ****                     if((CYBLE_SHORT_LOCAL_NAME == destBuffer[byteCounter]) || 
 891              		.loc 1 944 0 discriminator 1
 892 0094 092B     		cmp	r3, #9
 893 0096 04D1     		bne	.L45
 894              	.L44:
 946:.\Generated_Source\PSoC4/BLE.c ****                     {
 947:.\Generated_Source\PSoC4/BLE.c ****                         /* Start of the Local Name AD type was fount. Set flag and exit the loop. *
 948:.\Generated_Source\PSoC4/BLE.c ****                         flag = 1u;
 895              		.loc 1 948 0
 896 0098 3B1C     		mov	r3, r7
 897 009a 1633     		add	r3, r3, #22
 898 009c 0122     		mov	r2, #1
 899 009e 1A70     		strb	r2, [r3]
 900 00a0 0BE0     		b	.L42
 901              	.L45:
 949:.\Generated_Source\PSoC4/BLE.c ****                     }
 950:.\Generated_Source\PSoC4/BLE.c ****                     else
 951:.\Generated_Source\PSoC4/BLE.c ****                     {
 952:.\Generated_Source\PSoC4/BLE.c ****                         byteCounter += adLength;
 902              		.loc 1 952 0
 903 00a2 3B1C     		mov	r3, r7
 904 00a4 1433     		add	r3, r3, #20
 905 00a6 391C     		mov	r1, r7
 906 00a8 1431     		add	r1, r1, #20
 907 00aa 3A1C     		mov	r2, r7
 908 00ac 1532     		add	r2, r2, #21
 909 00ae 0978     		ldrb	r1, [r1]
 910 00b0 1278     		ldrb	r2, [r2]
 911 00b2 8A18     		add	r2, r1, r2
 912 00b4 1A70     		strb	r2, [r3]
 913 00b6 00E0     		b	.L42
 914              	.L43:
 953:.\Generated_Source\PSoC4/BLE.c ****                     }
 954:.\Generated_Source\PSoC4/BLE.c ****                 }
 955:.\Generated_Source\PSoC4/BLE.c ****                 else
 956:.\Generated_Source\PSoC4/BLE.c ****                 {
 957:.\Generated_Source\PSoC4/BLE.c ****                     /* The end of advertisement data structure was encountered though exit the 
 958:.\Generated_Source\PSoC4/BLE.c ****                       loop. */
ARM GAS  C:\Users\msuro\AppData\Local\Temp\cciNNHPs.s 			page 34


 959:.\Generated_Source\PSoC4/BLE.c ****                     break;
 915              		.loc 1 959 0
 916 00b8 0CE0     		b	.L47
 917              	.L42:
 935:.\Generated_Source\PSoC4/BLE.c ****             while((byteCounter < maxLength) && (0u == flag))
 918              		.loc 1 935 0 discriminator 1
 919 00ba 3A1C     		mov	r2, r7
 920 00bc 1432     		add	r2, r2, #20
 921 00be 3B1C     		mov	r3, r7
 922 00c0 0F33     		add	r3, r3, #15
 923 00c2 1278     		ldrb	r2, [r2]
 924 00c4 1B78     		ldrb	r3, [r3]
 925 00c6 9A42     		cmp	r2, r3
 926 00c8 04D2     		bcs	.L47
 935:.\Generated_Source\PSoC4/BLE.c ****             while((byteCounter < maxLength) && (0u == flag))
 927              		.loc 1 935 0 is_stmt 0 discriminator 2
 928 00ca 3B1C     		mov	r3, r7
 929 00cc 1633     		add	r3, r3, #22
 930 00ce 1B78     		ldrb	r3, [r3]
 931 00d0 002B     		cmp	r3, #0
 932 00d2 BCD0     		beq	.L48
 933              	.L47:
 960:.\Generated_Source\PSoC4/BLE.c ****                 }
 961:.\Generated_Source\PSoC4/BLE.c ****             }
 962:.\Generated_Source\PSoC4/BLE.c ****             
 963:.\Generated_Source\PSoC4/BLE.c ****             if(0u != flag)
 934              		.loc 1 963 0 is_stmt 1
 935 00d4 3B1C     		mov	r3, r7
 936 00d6 1633     		add	r3, r3, #22
 937 00d8 1B78     		ldrb	r3, [r3]
 938 00da 002B     		cmp	r3, #0
 939 00dc 59D0     		beq	.L39
 964:.\Generated_Source\PSoC4/BLE.c ****             {
 965:.\Generated_Source\PSoC4/BLE.c ****                 /* Reuse "adLength" to hold location of the last character of local name in 
 966:.\Generated_Source\PSoC4/BLE.c ****                    AD structure. */
 967:.\Generated_Source\PSoC4/BLE.c ****                 adLength += byteCounter;
 940              		.loc 1 967 0
 941 00de 3B1C     		mov	r3, r7
 942 00e0 1533     		add	r3, r3, #21
 943 00e2 391C     		mov	r1, r7
 944 00e4 1531     		add	r1, r1, #21
 945 00e6 3A1C     		mov	r2, r7
 946 00e8 1432     		add	r2, r2, #20
 947 00ea 0978     		ldrb	r1, [r1]
 948 00ec 1278     		ldrb	r2, [r2]
 949 00ee 8A18     		add	r2, r1, r2
 950 00f0 1A70     		strb	r2, [r3]
 968:.\Generated_Source\PSoC4/BLE.c ****                 
 969:.\Generated_Source\PSoC4/BLE.c ****                 /* Increment byte counter to point to start of the local Name string */
 970:.\Generated_Source\PSoC4/BLE.c ****                 byteCounter++;
 951              		.loc 1 970 0
 952 00f2 3B1C     		mov	r3, r7
 953 00f4 1433     		add	r3, r3, #20
 954 00f6 1A78     		ldrb	r2, [r3]
 955 00f8 3B1C     		mov	r3, r7
 956 00fa 1433     		add	r3, r3, #20
 957 00fc 0132     		add	r2, r2, #1
ARM GAS  C:\Users\msuro\AppData\Local\Temp\cciNNHPs.s 			page 35


 958 00fe 1A70     		strb	r2, [r3]
 971:.\Generated_Source\PSoC4/BLE.c ****                 
 972:.\Generated_Source\PSoC4/BLE.c ****                 for(i = byteCounter; ((i < (adLength)) && (CYBLE_NULL_CHARCTER != name[i - byteCoun
 959              		.loc 1 972 0
 960 0100 3B1C     		mov	r3, r7
 961 0102 1733     		add	r3, r3, #23
 962 0104 3A1C     		mov	r2, r7
 963 0106 1432     		add	r2, r2, #20
 964 0108 1278     		ldrb	r2, [r2]
 965 010a 1A70     		strb	r2, [r3]
 966 010c 16E0     		b	.L50
 967              	.L52:
 973:.\Generated_Source\PSoC4/BLE.c ****                 {
 974:.\Generated_Source\PSoC4/BLE.c ****                     destBuffer[i] = (uint8)name[i - byteCounter];
 968              		.loc 1 974 0 discriminator 1
 969 010e 3B1C     		mov	r3, r7
 970 0110 1733     		add	r3, r3, #23
 971 0112 1B78     		ldrb	r3, [r3]
 972 0114 3A69     		ldr	r2, [r7, #16]
 973 0116 D318     		add	r3, r2, r3
 974 0118 3A1C     		mov	r2, r7
 975 011a 1732     		add	r2, r2, #23
 976 011c 1178     		ldrb	r1, [r2]
 977 011e 3A1C     		mov	r2, r7
 978 0120 1432     		add	r2, r2, #20
 979 0122 1278     		ldrb	r2, [r2]
 980 0124 8A1A     		sub	r2, r1, r2
 981 0126 7968     		ldr	r1, [r7, #4]
 982 0128 8A18     		add	r2, r1, r2
 983 012a 1278     		ldrb	r2, [r2]
 984 012c 1A70     		strb	r2, [r3]
 972:.\Generated_Source\PSoC4/BLE.c ****                 for(i = byteCounter; ((i < (adLength)) && (CYBLE_NULL_CHARCTER != name[i - byteCoun
 985              		.loc 1 972 0 discriminator 1
 986 012e 3B1C     		mov	r3, r7
 987 0130 1733     		add	r3, r3, #23
 988 0132 1A78     		ldrb	r2, [r3]
 989 0134 3B1C     		mov	r3, r7
 990 0136 1733     		add	r3, r3, #23
 991 0138 0132     		add	r2, r2, #1
 992 013a 1A70     		strb	r2, [r3]
 993              	.L50:
 994 013c 3A1C     		mov	r2, r7
 995 013e 1732     		add	r2, r2, #23
 996 0140 3B1C     		mov	r3, r7
 997 0142 1533     		add	r3, r3, #21
 998 0144 1278     		ldrb	r2, [r2]
 999 0146 1B78     		ldrb	r3, [r3]
 1000 0148 9A42     		cmp	r2, r3
 1001 014a 0BD2     		bcs	.L51
 972:.\Generated_Source\PSoC4/BLE.c ****                 for(i = byteCounter; ((i < (adLength)) && (CYBLE_NULL_CHARCTER != name[i - byteCoun
 1002              		.loc 1 972 0 is_stmt 0 discriminator 2
 1003 014c 3B1C     		mov	r3, r7
 1004 014e 1733     		add	r3, r3, #23
 1005 0150 1A78     		ldrb	r2, [r3]
 1006 0152 3B1C     		mov	r3, r7
 1007 0154 1433     		add	r3, r3, #20
 1008 0156 1B78     		ldrb	r3, [r3]
ARM GAS  C:\Users\msuro\AppData\Local\Temp\cciNNHPs.s 			page 36


 1009 0158 D31A     		sub	r3, r2, r3
 1010 015a 7A68     		ldr	r2, [r7, #4]
 1011 015c D318     		add	r3, r2, r3
 1012 015e 1B78     		ldrb	r3, [r3]
 1013 0160 002B     		cmp	r3, #0
 1014 0162 D4D1     		bne	.L52
 1015              	.L51:
 975:.\Generated_Source\PSoC4/BLE.c ****                 }
 976:.\Generated_Source\PSoC4/BLE.c ****                 
 977:.\Generated_Source\PSoC4/BLE.c ****                 /* This loop handles the case when new local name is shorted than old one.
 978:.\Generated_Source\PSoC4/BLE.c ****                    In this case all remaining characters should be null characters. */
 979:.\Generated_Source\PSoC4/BLE.c ****                 while(adLength > i)
 1016              		.loc 1 979 0 is_stmt 1
 1017 0164 0DE0     		b	.L53
 1018              	.L54:
 980:.\Generated_Source\PSoC4/BLE.c ****                 {
 981:.\Generated_Source\PSoC4/BLE.c ****                     /* Terminate string */
 982:.\Generated_Source\PSoC4/BLE.c ****                     destBuffer[i] = (uint8)CYBLE_NULL_CHARCTER;
 1019              		.loc 1 982 0
 1020 0166 3B1C     		mov	r3, r7
 1021 0168 1733     		add	r3, r3, #23
 1022 016a 1B78     		ldrb	r3, [r3]
 1023 016c 3A69     		ldr	r2, [r7, #16]
 1024 016e D318     		add	r3, r2, r3
 1025 0170 0022     		mov	r2, #0
 1026 0172 1A70     		strb	r2, [r3]
 983:.\Generated_Source\PSoC4/BLE.c ****                     i++;
 1027              		.loc 1 983 0
 1028 0174 3B1C     		mov	r3, r7
 1029 0176 1733     		add	r3, r3, #23
 1030 0178 1A78     		ldrb	r2, [r3]
 1031 017a 3B1C     		mov	r3, r7
 1032 017c 1733     		add	r3, r3, #23
 1033 017e 0132     		add	r2, r2, #1
 1034 0180 1A70     		strb	r2, [r3]
 1035              	.L53:
 979:.\Generated_Source\PSoC4/BLE.c ****                 while(adLength > i)
 1036              		.loc 1 979 0 discriminator 1
 1037 0182 3A1C     		mov	r2, r7
 1038 0184 1532     		add	r2, r2, #21
 1039 0186 3B1C     		mov	r3, r7
 1040 0188 1733     		add	r3, r3, #23
 1041 018a 1278     		ldrb	r2, [r2]
 1042 018c 1B78     		ldrb	r3, [r3]
 1043 018e 9A42     		cmp	r2, r3
 1044 0190 E9D8     		bhi	.L54
 1045              	.L39:
 984:.\Generated_Source\PSoC4/BLE.c ****                 }
 985:.\Generated_Source\PSoC4/BLE.c ****             }
 986:.\Generated_Source\PSoC4/BLE.c ****         }
 1046              		.loc 1 986 0
 1047 0192 BD46     		mov	sp, r7
 1048 0194 06B0     		add	sp, sp, #24
 1049              		@ sp needed
 1050 0196 80BD     		pop	{r7, pc}
 1051              	.L56:
 1052              		.align	2
ARM GAS  C:\Users\msuro\AppData\Local\Temp\cciNNHPs.s 			page 37


 1053              	.L55:
 1054 0198 00000000 		.word	cyBle_discoveryData
 1055 019c 00000000 		.word	cyBle_scanRspData
 1056              		.cfi_endproc
 1057              	.LFE10:
 1058              		.size	CyBle_ChangeAdLocalName, .-CyBle_ChangeAdLocalName
 1059              		.section	.text.CyBle_GapSetLocalName,"ax",%progbits
 1060              		.align	2
 1061              		.global	CyBle_GapSetLocalName
 1062              		.code	16
 1063              		.thumb_func
 1064              		.type	CyBle_GapSetLocalName, %function
 1065              	CyBle_GapSetLocalName:
 1066              	.LFB11:
 987:.\Generated_Source\PSoC4/BLE.c ****         
 988:.\Generated_Source\PSoC4/BLE.c **** #endif /* (CYBLE_GAP_ROLE_PERIPHERAL) */  
 989:.\Generated_Source\PSoC4/BLE.c ****     
 990:.\Generated_Source\PSoC4/BLE.c ****     
 991:.\Generated_Source\PSoC4/BLE.c ****     /******************************************************************************
 992:.\Generated_Source\PSoC4/BLE.c ****     ##Function Name: CyBle_GapSetLocalName
 993:.\Generated_Source\PSoC4/BLE.c ****     *******************************************************************************
 994:.\Generated_Source\PSoC4/BLE.c ****     Summary:
 995:.\Generated_Source\PSoC4/BLE.c ****      This API is used to set the local device name - a Characteristic of the 
 996:.\Generated_Source\PSoC4/BLE.c ****      GAP Service. If the characteristic length entered in the component customizer
 997:.\Generated_Source\PSoC4/BLE.c ****      is shorter than the string specified by the "name" parameter, the local device
 998:.\Generated_Source\PSoC4/BLE.c ****      name will be cut to the length specified in the customizer.
 999:.\Generated_Source\PSoC4/BLE.c **** 
1000:.\Generated_Source\PSoC4/BLE.c ****     Parameters:
1001:.\Generated_Source\PSoC4/BLE.c ****      char8 name: The local device name string. The name string to be written as
1002:.\Generated_Source\PSoC4/BLE.c ****                  the local device name. It represents a UTF-8 encoded User
1003:.\Generated_Source\PSoC4/BLE.c ****                  Friendly Descriptive Name for the device. The length of the local
1004:.\Generated_Source\PSoC4/BLE.c ****                  device string is entered into the component customizer and it can
1005:.\Generated_Source\PSoC4/BLE.c ****                  be set to a value from 0 to 248 bytes. If the name contained in
1006:.\Generated_Source\PSoC4/BLE.c ****                  the parameter is shorter than the length from the customizer, the
1007:.\Generated_Source\PSoC4/BLE.c ****                  end of the name is indicated by a NULL octet (0x00).
1008:.\Generated_Source\PSoC4/BLE.c **** 
1009:.\Generated_Source\PSoC4/BLE.c ****     Return:
1010:.\Generated_Source\PSoC4/BLE.c ****      CYBLE_API_RESULT_T : Return value indicates if the function succeeded or 
1011:.\Generated_Source\PSoC4/BLE.c ****      failed. Following are the possible error codes.
1012:.\Generated_Source\PSoC4/BLE.c ****      <table>
1013:.\Generated_Source\PSoC4/BLE.c ****       Errors codes                        Description
1014:.\Generated_Source\PSoC4/BLE.c ****       ------------                        -----------
1015:.\Generated_Source\PSoC4/BLE.c ****       CYBLE_ERROR_OK                      Function completed successfully.
1016:.\Generated_Source\PSoC4/BLE.c ****       CYBLE_ERROR_INVALID_PARAMETER       On specifying NULL as input parameter
1017:.\Generated_Source\PSoC4/BLE.c ****      </table>
1018:.\Generated_Source\PSoC4/BLE.c ****  
1019:.\Generated_Source\PSoC4/BLE.c ****     ******************************************************************************/
1020:.\Generated_Source\PSoC4/BLE.c ****     CYBLE_API_RESULT_T CyBle_GapSetLocalName(const char8 name[])
1021:.\Generated_Source\PSoC4/BLE.c ****     {
 1067              		.loc 1 1021 0
 1068              		.cfi_startproc
 1069 0000 80B5     		push	{r7, lr}
 1070              		.cfi_def_cfa_offset 8
 1071              		.cfi_offset 7, -8
 1072              		.cfi_offset 14, -4
 1073 0002 86B0     		sub	sp, sp, #24
 1074              		.cfi_def_cfa_offset 32
ARM GAS  C:\Users\msuro\AppData\Local\Temp\cciNNHPs.s 			page 38


 1075 0004 00AF     		add	r7, sp, #0
 1076              		.cfi_def_cfa_register 7
 1077 0006 7860     		str	r0, [r7, #4]
1022:.\Generated_Source\PSoC4/BLE.c ****         CYBLE_API_RESULT_T apiResult = CYBLE_ERROR_OK;
 1078              		.loc 1 1022 0
 1079 0008 3B1C     		mov	r3, r7
 1080 000a 1633     		add	r3, r3, #22
 1081 000c 0022     		mov	r2, #0
 1082 000e 1A80     		strh	r2, [r3]
1023:.\Generated_Source\PSoC4/BLE.c ****         uint8 i;
1024:.\Generated_Source\PSoC4/BLE.c ****         char8 *ptr;
1025:.\Generated_Source\PSoC4/BLE.c ****         uint8 charLen;
1026:.\Generated_Source\PSoC4/BLE.c **** 
1027:.\Generated_Source\PSoC4/BLE.c ****         if(NULL != name)
 1083              		.loc 1 1027 0
 1084 0010 7B68     		ldr	r3, [r7, #4]
 1085 0012 002B     		cmp	r3, #0
 1086 0014 42D0     		beq	.L58
1028:.\Generated_Source\PSoC4/BLE.c ****         {
1029:.\Generated_Source\PSoC4/BLE.c ****             /* Get the pointer to the Device Name characteristic  */
1030:.\Generated_Source\PSoC4/BLE.c ****             ptr = (char8 *)
 1087              		.loc 1 1030 0
 1088 0016 274B     		ldr	r3, .L64
 1089 0018 9B6B     		ldr	r3, [r3, #56]
 1090 001a 3B61     		str	r3, [r7, #16]
1031:.\Generated_Source\PSoC4/BLE.c ****                 cyBle_gattDB[CYBLE_GAP_DEVICE_NAME_INDEX].attValue.attFormatValue.attGenericVal;
1032:.\Generated_Source\PSoC4/BLE.c **** 
1033:.\Generated_Source\PSoC4/BLE.c ****             /* First need to get the length of the characteristic data in the GATT
1034:.\Generated_Source\PSoC4/BLE.c ****                 database to make sure there is enough place for the data. The length
1035:.\Generated_Source\PSoC4/BLE.c ****                 can't be longer than 248, so only the LSB of 16 bit of length is to
1036:.\Generated_Source\PSoC4/BLE.c ****                 be used. */
1037:.\Generated_Source\PSoC4/BLE.c ****             charLen = (uint8) cyBle_gattDB[CYBLE_GAP_DEVICE_NAME_INDEX].attValue.attFormatValue.len
 1091              		.loc 1 1037 0
 1092 001c 254B     		ldr	r3, .L64
 1093 001e 9A8E     		ldrh	r2, [r3, #52]
 1094 0020 3B1C     		mov	r3, r7
 1095 0022 0F33     		add	r3, r3, #15
 1096 0024 1A70     		strb	r2, [r3]
1038:.\Generated_Source\PSoC4/BLE.c **** 
1039:.\Generated_Source\PSoC4/BLE.c ****             /* Copy name into characteristic */
1040:.\Generated_Source\PSoC4/BLE.c ****             for(i = 0u; ((i < (charLen - 1u)) && (CYBLE_NULL_CHARCTER != name[i])); i++)
 1097              		.loc 1 1040 0
 1098 0026 3B1C     		mov	r3, r7
 1099 0028 1533     		add	r3, r3, #21
 1100 002a 0022     		mov	r2, #0
 1101 002c 1A70     		strb	r2, [r3]
 1102 002e 12E0     		b	.L59
 1103              	.L61:
1041:.\Generated_Source\PSoC4/BLE.c ****             {
1042:.\Generated_Source\PSoC4/BLE.c ****                 ptr[i] = name[i];
 1104              		.loc 1 1042 0 discriminator 1
 1105 0030 3B1C     		mov	r3, r7
 1106 0032 1533     		add	r3, r3, #21
 1107 0034 1B78     		ldrb	r3, [r3]
 1108 0036 3A69     		ldr	r2, [r7, #16]
 1109 0038 D318     		add	r3, r2, r3
 1110 003a 3A1C     		mov	r2, r7
ARM GAS  C:\Users\msuro\AppData\Local\Temp\cciNNHPs.s 			page 39


 1111 003c 1532     		add	r2, r2, #21
 1112 003e 1278     		ldrb	r2, [r2]
 1113 0040 7968     		ldr	r1, [r7, #4]
 1114 0042 8A18     		add	r2, r1, r2
 1115 0044 1278     		ldrb	r2, [r2]
 1116 0046 1A70     		strb	r2, [r3]
1040:.\Generated_Source\PSoC4/BLE.c ****             for(i = 0u; ((i < (charLen - 1u)) && (CYBLE_NULL_CHARCTER != name[i])); i++)
 1117              		.loc 1 1040 0 discriminator 1
 1118 0048 3B1C     		mov	r3, r7
 1119 004a 1533     		add	r3, r3, #21
 1120 004c 1A78     		ldrb	r2, [r3]
 1121 004e 3B1C     		mov	r3, r7
 1122 0050 1533     		add	r3, r3, #21
 1123 0052 0132     		add	r2, r2, #1
 1124 0054 1A70     		strb	r2, [r3]
 1125              	.L59:
 1126 0056 3B1C     		mov	r3, r7
 1127 0058 1533     		add	r3, r3, #21
 1128 005a 1A78     		ldrb	r2, [r3]
 1129 005c 3B1C     		mov	r3, r7
 1130 005e 0F33     		add	r3, r3, #15
 1131 0060 1B78     		ldrb	r3, [r3]
 1132 0062 013B     		sub	r3, r3, #1
 1133 0064 9A42     		cmp	r2, r3
 1134 0066 07D2     		bcs	.L60
1040:.\Generated_Source\PSoC4/BLE.c ****             for(i = 0u; ((i < (charLen - 1u)) && (CYBLE_NULL_CHARCTER != name[i])); i++)
 1135              		.loc 1 1040 0 is_stmt 0 discriminator 2
 1136 0068 3B1C     		mov	r3, r7
 1137 006a 1533     		add	r3, r3, #21
 1138 006c 1B78     		ldrb	r3, [r3]
 1139 006e 7A68     		ldr	r2, [r7, #4]
 1140 0070 D318     		add	r3, r2, r3
 1141 0072 1B78     		ldrb	r3, [r3]
 1142 0074 002B     		cmp	r3, #0
 1143 0076 DBD1     		bne	.L61
 1144              	.L60:
1043:.\Generated_Source\PSoC4/BLE.c ****             }
1044:.\Generated_Source\PSoC4/BLE.c **** 
1045:.\Generated_Source\PSoC4/BLE.c ****             /* Terminate string */
1046:.\Generated_Source\PSoC4/BLE.c ****             ptr[i] = CYBLE_NULL_CHARCTER;
 1145              		.loc 1 1046 0 is_stmt 1
 1146 0078 3B1C     		mov	r3, r7
 1147 007a 1533     		add	r3, r3, #21
 1148 007c 1B78     		ldrb	r3, [r3]
 1149 007e 3A69     		ldr	r2, [r7, #16]
 1150 0080 D318     		add	r3, r2, r3
 1151 0082 0022     		mov	r2, #0
 1152 0084 1A70     		strb	r2, [r3]
1047:.\Generated_Source\PSoC4/BLE.c ****             
1048:.\Generated_Source\PSoC4/BLE.c ****             /* Update device name in advertising and scan response structure */
1049:.\Generated_Source\PSoC4/BLE.c ****             #if(CYBLE_GAP_ROLE_PERIPHERAL)
1050:.\Generated_Source\PSoC4/BLE.c ****                 CyBle_ChangeAdLocalName(name, 0u);
 1153              		.loc 1 1050 0
 1154 0086 7B68     		ldr	r3, [r7, #4]
 1155 0088 181C     		mov	r0, r3
 1156 008a 0021     		mov	r1, #0
 1157 008c FFF7FEFF 		bl	CyBle_ChangeAdLocalName
ARM GAS  C:\Users\msuro\AppData\Local\Temp\cciNNHPs.s 			page 40


1051:.\Generated_Source\PSoC4/BLE.c ****                 CyBle_ChangeAdLocalName(name, 1u);
 1158              		.loc 1 1051 0
 1159 0090 7B68     		ldr	r3, [r7, #4]
 1160 0092 181C     		mov	r0, r3
 1161 0094 0121     		mov	r1, #1
 1162 0096 FFF7FEFF 		bl	CyBle_ChangeAdLocalName
 1163 009a 03E0     		b	.L62
 1164              	.L58:
1052:.\Generated_Source\PSoC4/BLE.c ****             #endif /* (CYBLE_GAP_ROLE_PERIPHERAL) */
1053:.\Generated_Source\PSoC4/BLE.c ****         }
1054:.\Generated_Source\PSoC4/BLE.c ****         else
1055:.\Generated_Source\PSoC4/BLE.c ****         {
1056:.\Generated_Source\PSoC4/BLE.c ****             apiResult = CYBLE_ERROR_INVALID_PARAMETER;
 1165              		.loc 1 1056 0
 1166 009c 3B1C     		mov	r3, r7
 1167 009e 1633     		add	r3, r3, #22
 1168 00a0 0122     		mov	r2, #1
 1169 00a2 1A80     		strh	r2, [r3]
 1170              	.L62:
1057:.\Generated_Source\PSoC4/BLE.c ****         }
1058:.\Generated_Source\PSoC4/BLE.c ****         
1059:.\Generated_Source\PSoC4/BLE.c ****         return(apiResult);
 1171              		.loc 1 1059 0
 1172 00a4 3B1C     		mov	r3, r7
 1173 00a6 1633     		add	r3, r3, #22
 1174 00a8 1B88     		ldrh	r3, [r3]
1060:.\Generated_Source\PSoC4/BLE.c ****     }
 1175              		.loc 1 1060 0
 1176 00aa 181C     		mov	r0, r3
 1177 00ac BD46     		mov	sp, r7
 1178 00ae 06B0     		add	sp, sp, #24
 1179              		@ sp needed
 1180 00b0 80BD     		pop	{r7, pc}
 1181              	.L65:
 1182 00b2 C046     		.align	2
 1183              	.L64:
 1184 00b4 00000000 		.word	cyBle_gattDB
 1185              		.cfi_endproc
 1186              	.LFE11:
 1187              		.size	CyBle_GapSetLocalName, .-CyBle_GapSetLocalName
 1188              		.section	.text.CyBle_GapGetLocalName,"ax",%progbits
 1189              		.align	2
 1190              		.global	CyBle_GapGetLocalName
 1191              		.code	16
 1192              		.thumb_func
 1193              		.type	CyBle_GapGetLocalName, %function
 1194              	CyBle_GapGetLocalName:
 1195              	.LFB12:
1061:.\Generated_Source\PSoC4/BLE.c **** 
1062:.\Generated_Source\PSoC4/BLE.c **** 
1063:.\Generated_Source\PSoC4/BLE.c ****     /******************************************************************************
1064:.\Generated_Source\PSoC4/BLE.c ****     ##Function Name: CyBle_GapGetLocalName
1065:.\Generated_Source\PSoC4/BLE.c ****     *******************************************************************************
1066:.\Generated_Source\PSoC4/BLE.c ****  
1067:.\Generated_Source\PSoC4/BLE.c ****     Summary:
1068:.\Generated_Source\PSoC4/BLE.c ****      This API is used to read the local device name - a Characteristic of the 
1069:.\Generated_Source\PSoC4/BLE.c ****      GAP Service.
ARM GAS  C:\Users\msuro\AppData\Local\Temp\cciNNHPs.s 			page 41


1070:.\Generated_Source\PSoC4/BLE.c **** 
1071:.\Generated_Source\PSoC4/BLE.c ****     Parameters:
1072:.\Generated_Source\PSoC4/BLE.c ****     char8 name: The local device name string. Used to read the local name to the
1073:.\Generated_Source\PSoC4/BLE.c ****                 given string array. It represents a UTF-8 encoded User Friendly 
1074:.\Generated_Source\PSoC4/BLE.c ****                 Descriptive Name for the device. The length of the local device
1075:.\Generated_Source\PSoC4/BLE.c ****                 string is entered into the component customizer and it can be set
1076:.\Generated_Source\PSoC4/BLE.c ****                 to a value from 0 to 248 bytes. If the name contained in the
1077:.\Generated_Source\PSoC4/BLE.c ****                 parameter is shorter than the length from the customizer, the end
1078:.\Generated_Source\PSoC4/BLE.c ****                 of the name is indicated by a NULL octet (0x00).
1079:.\Generated_Source\PSoC4/BLE.c **** 
1080:.\Generated_Source\PSoC4/BLE.c ****     Return:
1081:.\Generated_Source\PSoC4/BLE.c ****      CYBLE_API_RESULT_T : Return value indicates if the function succeeded or 
1082:.\Generated_Source\PSoC4/BLE.c ****      failed. Following are the possible error codes.
1083:.\Generated_Source\PSoC4/BLE.c ****      <table>
1084:.\Generated_Source\PSoC4/BLE.c ****       Errors codes                        Description
1085:.\Generated_Source\PSoC4/BLE.c ****       ------------                        -----------
1086:.\Generated_Source\PSoC4/BLE.c ****       CYBLE_ERROR_OK                      Function completed successfully.
1087:.\Generated_Source\PSoC4/BLE.c ****       CYBLE_ERROR_INVALID_PARAMETER       On specifying NULL as input parameter
1088:.\Generated_Source\PSoC4/BLE.c ****      </table>
1089:.\Generated_Source\PSoC4/BLE.c **** 
1090:.\Generated_Source\PSoC4/BLE.c ****     ******************************************************************************/
1091:.\Generated_Source\PSoC4/BLE.c ****     CYBLE_API_RESULT_T CyBle_GapGetLocalName(char8 name[])
1092:.\Generated_Source\PSoC4/BLE.c ****     {
 1196              		.loc 1 1092 0
 1197              		.cfi_startproc
 1198 0000 80B5     		push	{r7, lr}
 1199              		.cfi_def_cfa_offset 8
 1200              		.cfi_offset 7, -8
 1201              		.cfi_offset 14, -4
 1202 0002 86B0     		sub	sp, sp, #24
 1203              		.cfi_def_cfa_offset 32
 1204 0004 00AF     		add	r7, sp, #0
 1205              		.cfi_def_cfa_register 7
 1206 0006 7860     		str	r0, [r7, #4]
1093:.\Generated_Source\PSoC4/BLE.c ****         CYBLE_API_RESULT_T apiResult = CYBLE_ERROR_OK;
 1207              		.loc 1 1093 0
 1208 0008 3B1C     		mov	r3, r7
 1209 000a 1633     		add	r3, r3, #22
 1210 000c 0022     		mov	r2, #0
 1211 000e 1A80     		strh	r2, [r3]
1094:.\Generated_Source\PSoC4/BLE.c ****         uint8 charLen;
1095:.\Generated_Source\PSoC4/BLE.c ****         uint8 i;
1096:.\Generated_Source\PSoC4/BLE.c ****         char8 *ptr;
1097:.\Generated_Source\PSoC4/BLE.c **** 
1098:.\Generated_Source\PSoC4/BLE.c ****         if(NULL != name)
 1212              		.loc 1 1098 0
 1213 0010 7B68     		ldr	r3, [r7, #4]
 1214 0012 002B     		cmp	r3, #0
 1215 0014 38D0     		beq	.L67
1099:.\Generated_Source\PSoC4/BLE.c ****         {
1100:.\Generated_Source\PSoC4/BLE.c ****             /* Get the pointer to the Device Name characteristic  */
1101:.\Generated_Source\PSoC4/BLE.c ****             ptr = (char8 *) cyBle_gattDB[CYBLE_GAP_DEVICE_NAME_INDEX].attValue.attFormatValue.attGe
 1216              		.loc 1 1101 0
 1217 0016 224B     		ldr	r3, .L73
 1218 0018 9B6B     		ldr	r3, [r3, #56]
 1219 001a 3B61     		str	r3, [r7, #16]
1102:.\Generated_Source\PSoC4/BLE.c **** 
ARM GAS  C:\Users\msuro\AppData\Local\Temp\cciNNHPs.s 			page 42


1103:.\Generated_Source\PSoC4/BLE.c ****             /* First need to get the length of the characteristic data in the GATT
1104:.\Generated_Source\PSoC4/BLE.c ****                 database to make sure there is enough place for the data. The length
1105:.\Generated_Source\PSoC4/BLE.c ****                 can't be longer than 248, so only the LSB of 16 bit of length is to
1106:.\Generated_Source\PSoC4/BLE.c ****                 be used. */
1107:.\Generated_Source\PSoC4/BLE.c ****             charLen = (uint8)cyBle_gattDB[CYBLE_GAP_DEVICE_NAME_INDEX].attValue.attFormatValue.leng
 1220              		.loc 1 1107 0
 1221 001c 204B     		ldr	r3, .L73
 1222 001e 9A8E     		ldrh	r2, [r3, #52]
 1223 0020 3B1C     		mov	r3, r7
 1224 0022 0F33     		add	r3, r3, #15
 1225 0024 1A70     		strb	r2, [r3]
1108:.\Generated_Source\PSoC4/BLE.c **** 
1109:.\Generated_Source\PSoC4/BLE.c ****             /* Copy name from characteristic */
1110:.\Generated_Source\PSoC4/BLE.c ****             for(i = 0u; ((i < (charLen - 1u)) && (CYBLE_NULL_CHARCTER != ptr[i])); i++)
 1226              		.loc 1 1110 0
 1227 0026 3B1C     		mov	r3, r7
 1228 0028 1533     		add	r3, r3, #21
 1229 002a 0022     		mov	r2, #0
 1230 002c 1A70     		strb	r2, [r3]
 1231 002e 12E0     		b	.L68
 1232              	.L70:
1111:.\Generated_Source\PSoC4/BLE.c ****             {
1112:.\Generated_Source\PSoC4/BLE.c ****                 name[i] = ptr[i];
 1233              		.loc 1 1112 0 discriminator 1
 1234 0030 3B1C     		mov	r3, r7
 1235 0032 1533     		add	r3, r3, #21
 1236 0034 1B78     		ldrb	r3, [r3]
 1237 0036 7A68     		ldr	r2, [r7, #4]
 1238 0038 D318     		add	r3, r2, r3
 1239 003a 3A1C     		mov	r2, r7
 1240 003c 1532     		add	r2, r2, #21
 1241 003e 1278     		ldrb	r2, [r2]
 1242 0040 3969     		ldr	r1, [r7, #16]
 1243 0042 8A18     		add	r2, r1, r2
 1244 0044 1278     		ldrb	r2, [r2]
 1245 0046 1A70     		strb	r2, [r3]
1110:.\Generated_Source\PSoC4/BLE.c ****             for(i = 0u; ((i < (charLen - 1u)) && (CYBLE_NULL_CHARCTER != ptr[i])); i++)
 1246              		.loc 1 1110 0 discriminator 1
 1247 0048 3B1C     		mov	r3, r7
 1248 004a 1533     		add	r3, r3, #21
 1249 004c 1A78     		ldrb	r2, [r3]
 1250 004e 3B1C     		mov	r3, r7
 1251 0050 1533     		add	r3, r3, #21
 1252 0052 0132     		add	r2, r2, #1
 1253 0054 1A70     		strb	r2, [r3]
 1254              	.L68:
 1255 0056 3B1C     		mov	r3, r7
 1256 0058 1533     		add	r3, r3, #21
 1257 005a 1A78     		ldrb	r2, [r3]
 1258 005c 3B1C     		mov	r3, r7
 1259 005e 0F33     		add	r3, r3, #15
 1260 0060 1B78     		ldrb	r3, [r3]
 1261 0062 013B     		sub	r3, r3, #1
 1262 0064 9A42     		cmp	r2, r3
 1263 0066 07D2     		bcs	.L69
1110:.\Generated_Source\PSoC4/BLE.c ****             for(i = 0u; ((i < (charLen - 1u)) && (CYBLE_NULL_CHARCTER != ptr[i])); i++)
 1264              		.loc 1 1110 0 is_stmt 0 discriminator 2
ARM GAS  C:\Users\msuro\AppData\Local\Temp\cciNNHPs.s 			page 43


 1265 0068 3B1C     		mov	r3, r7
 1266 006a 1533     		add	r3, r3, #21
 1267 006c 1B78     		ldrb	r3, [r3]
 1268 006e 3A69     		ldr	r2, [r7, #16]
 1269 0070 D318     		add	r3, r2, r3
 1270 0072 1B78     		ldrb	r3, [r3]
 1271 0074 002B     		cmp	r3, #0
 1272 0076 DBD1     		bne	.L70
 1273              	.L69:
1113:.\Generated_Source\PSoC4/BLE.c ****             }
1114:.\Generated_Source\PSoC4/BLE.c **** 
1115:.\Generated_Source\PSoC4/BLE.c ****             /* Terminate string */
1116:.\Generated_Source\PSoC4/BLE.c ****             name[i] = CYBLE_NULL_CHARCTER;
 1274              		.loc 1 1116 0 is_stmt 1
 1275 0078 3B1C     		mov	r3, r7
 1276 007a 1533     		add	r3, r3, #21
 1277 007c 1B78     		ldrb	r3, [r3]
 1278 007e 7A68     		ldr	r2, [r7, #4]
 1279 0080 D318     		add	r3, r2, r3
 1280 0082 0022     		mov	r2, #0
 1281 0084 1A70     		strb	r2, [r3]
 1282 0086 03E0     		b	.L71
 1283              	.L67:
1117:.\Generated_Source\PSoC4/BLE.c ****         }
1118:.\Generated_Source\PSoC4/BLE.c ****         else
1119:.\Generated_Source\PSoC4/BLE.c ****         {
1120:.\Generated_Source\PSoC4/BLE.c ****             apiResult = CYBLE_ERROR_INVALID_PARAMETER;
 1284              		.loc 1 1120 0
 1285 0088 3B1C     		mov	r3, r7
 1286 008a 1633     		add	r3, r3, #22
 1287 008c 0122     		mov	r2, #1
 1288 008e 1A80     		strh	r2, [r3]
 1289              	.L71:
1121:.\Generated_Source\PSoC4/BLE.c ****         }
1122:.\Generated_Source\PSoC4/BLE.c ****         
1123:.\Generated_Source\PSoC4/BLE.c ****         return(apiResult);
 1290              		.loc 1 1123 0
 1291 0090 3B1C     		mov	r3, r7
 1292 0092 1633     		add	r3, r3, #22
 1293 0094 1B88     		ldrh	r3, [r3]
1124:.\Generated_Source\PSoC4/BLE.c ****     }
 1294              		.loc 1 1124 0
 1295 0096 181C     		mov	r0, r3
 1296 0098 BD46     		mov	sp, r7
 1297 009a 06B0     		add	sp, sp, #24
 1298              		@ sp needed
 1299 009c 80BD     		pop	{r7, pc}
 1300              	.L74:
 1301 009e C046     		.align	2
 1302              	.L73:
 1303 00a0 00000000 		.word	cyBle_gattDB
 1304              		.cfi_endproc
 1305              	.LFE12:
 1306              		.size	CyBle_GapGetLocalName, .-CyBle_GapGetLocalName
 1307              		.section	.text.CyBle_Get16ByPtr,"ax",%progbits
 1308              		.align	2
 1309              		.global	CyBle_Get16ByPtr
ARM GAS  C:\Users\msuro\AppData\Local\Temp\cciNNHPs.s 			page 44


 1310              		.code	16
 1311              		.thumb_func
 1312              		.type	CyBle_Get16ByPtr, %function
 1313              	CyBle_Get16ByPtr:
 1314              	.LFB13:
1125:.\Generated_Source\PSoC4/BLE.c **** 
1126:.\Generated_Source\PSoC4/BLE.c **** #endif /* (CYBLE_GATT_ROLE_SERVER) */
1127:.\Generated_Source\PSoC4/BLE.c **** 
1128:.\Generated_Source\PSoC4/BLE.c **** 
1129:.\Generated_Source\PSoC4/BLE.c **** /******************************************************************************
1130:.\Generated_Source\PSoC4/BLE.c **** ##Function Name: CyBle_Get16ByPtr
1131:.\Generated_Source\PSoC4/BLE.c **** *******************************************************************************
1132:.\Generated_Source\PSoC4/BLE.c **** 
1133:.\Generated_Source\PSoC4/BLE.c **** Summary:
1134:.\Generated_Source\PSoC4/BLE.c ****  Returns the two-bytes value by using a pointer to the LSB.
1135:.\Generated_Source\PSoC4/BLE.c **** 
1136:.\Generated_Source\PSoC4/BLE.c **** Parameters:
1137:.\Generated_Source\PSoC4/BLE.c ****  uint8 * ptr: Pointer to the LSB of two-bytes data (little endian).
1138:.\Generated_Source\PSoC4/BLE.c **** 
1139:.\Generated_Source\PSoC4/BLE.c **** Return:
1140:.\Generated_Source\PSoC4/BLE.c ****  uint16 value: Two-bytes data.
1141:.\Generated_Source\PSoC4/BLE.c **** 
1142:.\Generated_Source\PSoC4/BLE.c **** ******************************************************************************/
1143:.\Generated_Source\PSoC4/BLE.c **** uint16 CyBle_Get16ByPtr(const uint8 ptr[])
1144:.\Generated_Source\PSoC4/BLE.c **** {
 1315              		.loc 1 1144 0
 1316              		.cfi_startproc
 1317 0000 80B5     		push	{r7, lr}
 1318              		.cfi_def_cfa_offset 8
 1319              		.cfi_offset 7, -8
 1320              		.cfi_offset 14, -4
 1321 0002 82B0     		sub	sp, sp, #8
 1322              		.cfi_def_cfa_offset 16
 1323 0004 00AF     		add	r7, sp, #0
 1324              		.cfi_def_cfa_register 7
 1325 0006 7860     		str	r0, [r7, #4]
1145:.\Generated_Source\PSoC4/BLE.c ****     return ((uint16) ptr[0u] | ((uint16) (((uint16) ptr[1u]) << 8u)));
 1326              		.loc 1 1145 0
 1327 0008 7B68     		ldr	r3, [r7, #4]
 1328 000a 1B78     		ldrb	r3, [r3]
 1329 000c 1A1C     		mov	r2, r3
 1330 000e 7B68     		ldr	r3, [r7, #4]
 1331 0010 0133     		add	r3, r3, #1
 1332 0012 1B78     		ldrb	r3, [r3]
 1333 0014 1B02     		lsl	r3, r3, #8
 1334 0016 9BB2     		uxth	r3, r3
 1335 0018 1343     		orr	r3, r2
 1336 001a 9BB2     		uxth	r3, r3
1146:.\Generated_Source\PSoC4/BLE.c **** }
 1337              		.loc 1 1146 0
 1338 001c 181C     		mov	r0, r3
 1339 001e BD46     		mov	sp, r7
 1340 0020 02B0     		add	sp, sp, #8
 1341              		@ sp needed
 1342 0022 80BD     		pop	{r7, pc}
 1343              		.cfi_endproc
 1344              	.LFE13:
ARM GAS  C:\Users\msuro\AppData\Local\Temp\cciNNHPs.s 			page 45


 1345              		.size	CyBle_Get16ByPtr, .-CyBle_Get16ByPtr
 1346              		.section	.text.CyBle_Set16ByPtr,"ax",%progbits
 1347              		.align	2
 1348              		.global	CyBle_Set16ByPtr
 1349              		.code	16
 1350              		.thumb_func
 1351              		.type	CyBle_Set16ByPtr, %function
 1352              	CyBle_Set16ByPtr:
 1353              	.LFB14:
1147:.\Generated_Source\PSoC4/BLE.c **** 
1148:.\Generated_Source\PSoC4/BLE.c **** 
1149:.\Generated_Source\PSoC4/BLE.c **** /******************************************************************************
1150:.\Generated_Source\PSoC4/BLE.c **** ##Function Name: CyBle_Set16ByPtr
1151:.\Generated_Source\PSoC4/BLE.c **** *******************************************************************************
1152:.\Generated_Source\PSoC4/BLE.c **** 
1153:.\Generated_Source\PSoC4/BLE.c **** Summary:
1154:.\Generated_Source\PSoC4/BLE.c ****  Sets the two-bytes value by using a pointer to the LSB.
1155:.\Generated_Source\PSoC4/BLE.c **** 
1156:.\Generated_Source\PSoC4/BLE.c **** Parameters:
1157:.\Generated_Source\PSoC4/BLE.c ****  uint8 * ptr:   Pointer to the LSB of two-bytes data (little endian).
1158:.\Generated_Source\PSoC4/BLE.c ****  uint16 value:  Two-bytes data to be written.
1159:.\Generated_Source\PSoC4/BLE.c **** 
1160:.\Generated_Source\PSoC4/BLE.c **** Return:
1161:.\Generated_Source\PSoC4/BLE.c ****  None
1162:.\Generated_Source\PSoC4/BLE.c **** 
1163:.\Generated_Source\PSoC4/BLE.c **** ******************************************************************************/
1164:.\Generated_Source\PSoC4/BLE.c **** void CyBle_Set16ByPtr(uint8 ptr[], uint16 value)
1165:.\Generated_Source\PSoC4/BLE.c **** {
 1354              		.loc 1 1165 0
 1355              		.cfi_startproc
 1356 0000 80B5     		push	{r7, lr}
 1357              		.cfi_def_cfa_offset 8
 1358              		.cfi_offset 7, -8
 1359              		.cfi_offset 14, -4
 1360 0002 82B0     		sub	sp, sp, #8
 1361              		.cfi_def_cfa_offset 16
 1362 0004 00AF     		add	r7, sp, #0
 1363              		.cfi_def_cfa_register 7
 1364 0006 7860     		str	r0, [r7, #4]
 1365 0008 0A1C     		mov	r2, r1
 1366 000a BB1C     		add	r3, r7, #2
 1367 000c 1A80     		strh	r2, [r3]
1166:.\Generated_Source\PSoC4/BLE.c ****     ptr[0u] = (uint8) value;
 1368              		.loc 1 1166 0
 1369 000e BB1C     		add	r3, r7, #2
 1370 0010 1B88     		ldrh	r3, [r3]
 1371 0012 DAB2     		uxtb	r2, r3
 1372 0014 7B68     		ldr	r3, [r7, #4]
 1373 0016 1A70     		strb	r2, [r3]
1167:.\Generated_Source\PSoC4/BLE.c ****     ptr[1u] = (uint8) (value >> 8u);
 1374              		.loc 1 1167 0
 1375 0018 7B68     		ldr	r3, [r7, #4]
 1376 001a 0133     		add	r3, r3, #1
 1377 001c BA1C     		add	r2, r7, #2
 1378 001e 1288     		ldrh	r2, [r2]
 1379 0020 120A     		lsr	r2, r2, #8
 1380 0022 92B2     		uxth	r2, r2
ARM GAS  C:\Users\msuro\AppData\Local\Temp\cciNNHPs.s 			page 46


 1381 0024 D2B2     		uxtb	r2, r2
 1382 0026 1A70     		strb	r2, [r3]
1168:.\Generated_Source\PSoC4/BLE.c **** }
 1383              		.loc 1 1168 0
 1384 0028 BD46     		mov	sp, r7
 1385 002a 02B0     		add	sp, sp, #8
 1386              		@ sp needed
 1387 002c 80BD     		pop	{r7, pc}
 1388              		.cfi_endproc
 1389              	.LFE14:
 1390              		.size	CyBle_Set16ByPtr, .-CyBle_Set16ByPtr
 1391 002e C046     		.bss
 1392 0001 00000000 		.align	3
 1392      000000
 1393              	cyBle_stackMemoryRam.6117:
 1394 0008 00000000 		.space	4204
 1394      00000000 
 1394      00000000 
 1394      00000000 
 1394      00000000 
 1395 1074 00000000 		.text
 1396              	.Letext0:
 1397              		.file 2 ".\\Generated_Source\\PSoC4\\cytypes.h"
 1398              		.file 3 ".\\Generated_Source\\PSoC4\\BLE_Stack.h"
 1399              		.file 4 ".\\Generated_Source\\PSoC4\\BLE_StackGap.h"
 1400              		.file 5 ".\\Generated_Source\\PSoC4\\BLE_StackGatt.h"
 1401              		.file 6 ".\\Generated_Source\\PSoC4\\BLE_StackGattDb.h"
 1402              		.file 7 ".\\Generated_Source\\PSoC4\\BLE.h"
 1403              		.file 8 ".\\Generated_Source\\PSoC4\\BLE_gatt.h"
 1404              		.file 9 ".\\Generated_Source\\PSoC4\\BLE_dis.h"
 1405              		.file 10 ".\\Generated_Source\\PSoC4\\BLE_eventHandler.h"