ARM GAS  C:\Users\msuro\AppData\Local\Temp\ccXJ5Meg.s 			page 1


   1              		.cpu cortex-m0
   2              		.fpu softvfp
   3              		.eabi_attribute 20, 1
   4              		.eabi_attribute 21, 1
   5              		.eabi_attribute 23, 3
   6              		.eabi_attribute 24, 1
   7              		.eabi_attribute 25, 1
   8              		.eabi_attribute 26, 1
   9              		.eabi_attribute 30, 6
  10              		.eabi_attribute 34, 0
  11              		.eabi_attribute 18, 4
  12              		.code	16
  13              		.file	"BLE_dis.c"
  14              		.text
  15              	.Ltext0:
  16              		.cfi_sections	.debug_frame
  17              		.comm	cyBle_disc,36,4
  18              		.bss
  19              		.align	1
  20              	cyBle_discReqHandle:
  21 0000 0000     		.space	2
  22 0002 0000     		.align	2
  23              	CyBle_DisApplCallback:
  24 0004 00000000 		.space	4
  25              		.section	.text.CyBle_DisInit,"ax",%progbits
  26              		.align	2
  27              		.global	CyBle_DisInit
  28              		.code	16
  29              		.thumb_func
  30              		.type	CyBle_DisInit, %function
  31              	CyBle_DisInit:
  32              	.LFB2:
  33              		.file 1 ".\\Generated_Source\\PSoC4\\BLE_dis.c"
   1:.\Generated_Source\PSoC4/BLE_dis.c **** /*******************************************************************************
   2:.\Generated_Source\PSoC4/BLE_dis.c **** File Name: CYBLE_dis.c
   3:.\Generated_Source\PSoC4/BLE_dis.c **** Version 1.20
   4:.\Generated_Source\PSoC4/BLE_dis.c **** 
   5:.\Generated_Source\PSoC4/BLE_dis.c **** Description:
   6:.\Generated_Source\PSoC4/BLE_dis.c ****  Contains the source code for the Device Information Service.
   7:.\Generated_Source\PSoC4/BLE_dis.c **** 
   8:.\Generated_Source\PSoC4/BLE_dis.c **** ********************************************************************************
   9:.\Generated_Source\PSoC4/BLE_dis.c **** Copyright 2014-2015, Cypress Semiconductor Corporation.  All rights reserved.
  10:.\Generated_Source\PSoC4/BLE_dis.c **** You may use this file only in accordance with the license, terms, conditions,
  11:.\Generated_Source\PSoC4/BLE_dis.c **** disclaimers, and limitations in the end user license agreement accompanying
  12:.\Generated_Source\PSoC4/BLE_dis.c **** the software package with which this file was provided.
  13:.\Generated_Source\PSoC4/BLE_dis.c **** *******************************************************************************/
  14:.\Generated_Source\PSoC4/BLE_dis.c **** 
  15:.\Generated_Source\PSoC4/BLE_dis.c **** 
  16:.\Generated_Source\PSoC4/BLE_dis.c **** #include "BLE_eventHandler.h"
  17:.\Generated_Source\PSoC4/BLE_dis.c **** 
  18:.\Generated_Source\PSoC4/BLE_dis.c **** #ifdef CYBLE_DIS_SERVER
  19:.\Generated_Source\PSoC4/BLE_dis.c **** 
  20:.\Generated_Source\PSoC4/BLE_dis.c **** 
  21:.\Generated_Source\PSoC4/BLE_dis.c **** 
  22:.\Generated_Source\PSoC4/BLE_dis.c **** #endif /* CYBLE_DIS_SERVER */
  23:.\Generated_Source\PSoC4/BLE_dis.c **** 
  24:.\Generated_Source\PSoC4/BLE_dis.c **** #ifdef CYBLE_DIS_CLIENT
ARM GAS  C:\Users\msuro\AppData\Local\Temp\ccXJ5Meg.s 			page 2


  25:.\Generated_Source\PSoC4/BLE_dis.c **** 
  26:.\Generated_Source\PSoC4/BLE_dis.c **** CYBLE_DISC_T cyBle_disc;
  27:.\Generated_Source\PSoC4/BLE_dis.c **** static CYBLE_GATT_DB_ATTR_HANDLE_T cyBle_discReqHandle;
  28:.\Generated_Source\PSoC4/BLE_dis.c **** static CYBLE_CALLBACK_T CyBle_DisApplCallback = NULL;
  29:.\Generated_Source\PSoC4/BLE_dis.c **** 
  30:.\Generated_Source\PSoC4/BLE_dis.c **** #endif /* (CYBLE_DIS_CLIENT) */
  31:.\Generated_Source\PSoC4/BLE_dis.c **** 
  32:.\Generated_Source\PSoC4/BLE_dis.c **** 
  33:.\Generated_Source\PSoC4/BLE_dis.c **** /****************************************************************************** 
  34:.\Generated_Source\PSoC4/BLE_dis.c **** ##Function Name: CyBle_DisInit
  35:.\Generated_Source\PSoC4/BLE_dis.c **** *******************************************************************************
  36:.\Generated_Source\PSoC4/BLE_dis.c **** 
  37:.\Generated_Source\PSoC4/BLE_dis.c **** Summary:
  38:.\Generated_Source\PSoC4/BLE_dis.c ****  This function initializes the DIS service.
  39:.\Generated_Source\PSoC4/BLE_dis.c **** 
  40:.\Generated_Source\PSoC4/BLE_dis.c **** Parameters:
  41:.\Generated_Source\PSoC4/BLE_dis.c ****  None
  42:.\Generated_Source\PSoC4/BLE_dis.c **** 
  43:.\Generated_Source\PSoC4/BLE_dis.c **** Return:
  44:.\Generated_Source\PSoC4/BLE_dis.c ****  None
  45:.\Generated_Source\PSoC4/BLE_dis.c **** 
  46:.\Generated_Source\PSoC4/BLE_dis.c **** ******************************************************************************/
  47:.\Generated_Source\PSoC4/BLE_dis.c **** void CyBle_DisInit(void)
  48:.\Generated_Source\PSoC4/BLE_dis.c **** {
  34              		.loc 1 48 0
  35              		.cfi_startproc
  36 0000 80B5     		push	{r7, lr}
  37              		.cfi_def_cfa_offset 8
  38              		.cfi_offset 7, -8
  39              		.cfi_offset 14, -4
  40 0002 00AF     		add	r7, sp, #0
  41              		.cfi_def_cfa_register 7
  49:.\Generated_Source\PSoC4/BLE_dis.c **** 
  50:.\Generated_Source\PSoC4/BLE_dis.c **** #ifdef CYBLE_DIS_CLIENT
  51:.\Generated_Source\PSoC4/BLE_dis.c **** 
  52:.\Generated_Source\PSoC4/BLE_dis.c ****     (void)memset(&cyBle_disc, 0, sizeof(cyBle_disc));
  42              		.loc 1 52 0
  43 0004 054B     		ldr	r3, .L2
  44 0006 181C     		mov	r0, r3
  45 0008 0021     		mov	r1, #0
  46 000a 2422     		mov	r2, #36
  47 000c FFF7FEFF 		bl	memset
  53:.\Generated_Source\PSoC4/BLE_dis.c ****     cyBle_discReqHandle = CYBLE_GATT_INVALID_ATTR_HANDLE_VALUE;
  48              		.loc 1 53 0
  49 0010 034B     		ldr	r3, .L2+4
  50 0012 0022     		mov	r2, #0
  51 0014 1A80     		strh	r2, [r3]
  54:.\Generated_Source\PSoC4/BLE_dis.c **** 
  55:.\Generated_Source\PSoC4/BLE_dis.c **** #endif /* CYBLE_DIS_CLIENT */
  56:.\Generated_Source\PSoC4/BLE_dis.c **** 
  57:.\Generated_Source\PSoC4/BLE_dis.c **** }
  52              		.loc 1 57 0
  53 0016 BD46     		mov	sp, r7
  54              		@ sp needed
  55 0018 80BD     		pop	{r7, pc}
  56              	.L3:
  57 001a C046     		.align	2
ARM GAS  C:\Users\msuro\AppData\Local\Temp\ccXJ5Meg.s 			page 3


  58              	.L2:
  59 001c 00000000 		.word	cyBle_disc
  60 0020 00000000 		.word	cyBle_discReqHandle
  61              		.cfi_endproc
  62              	.LFE2:
  63              		.size	CyBle_DisInit, .-CyBle_DisInit
  64              		.section	.text.CyBle_DisRegisterAttrCallback,"ax",%progbits
  65              		.align	2
  66              		.global	CyBle_DisRegisterAttrCallback
  67              		.code	16
  68              		.thumb_func
  69              		.type	CyBle_DisRegisterAttrCallback, %function
  70              	CyBle_DisRegisterAttrCallback:
  71              	.LFB3:
  58:.\Generated_Source\PSoC4/BLE_dis.c **** 
  59:.\Generated_Source\PSoC4/BLE_dis.c **** 
  60:.\Generated_Source\PSoC4/BLE_dis.c **** /****************************************************************************** 
  61:.\Generated_Source\PSoC4/BLE_dis.c **** ##Function Name: CyBle_DisRegisterAttrCallback
  62:.\Generated_Source\PSoC4/BLE_dis.c **** *******************************************************************************
  63:.\Generated_Source\PSoC4/BLE_dis.c **** 
  64:.\Generated_Source\PSoC4/BLE_dis.c **** Summary:
  65:.\Generated_Source\PSoC4/BLE_dis.c ****  Registers a callback function for service specific attribute operations.
  66:.\Generated_Source\PSoC4/BLE_dis.c **** 
  67:.\Generated_Source\PSoC4/BLE_dis.c **** Parameters:
  68:.\Generated_Source\PSoC4/BLE_dis.c ****  callbackFunc: An application layer event callback function to receive 
  69:.\Generated_Source\PSoC4/BLE_dis.c ****                    events from the BLE Component. The definition of 
  70:.\Generated_Source\PSoC4/BLE_dis.c ****                    CYBLE_CALLBACK_T for Device Information Service is,
  71:.\Generated_Source\PSoC4/BLE_dis.c ****             
  72:.\Generated_Source\PSoC4/BLE_dis.c ****                    typedef void (* CYBLE_CALLBACK_T) (uint32 eventCode, 
  73:.\Generated_Source\PSoC4/BLE_dis.c ****                                                       void *eventParam)
  74:.\Generated_Source\PSoC4/BLE_dis.c **** 
  75:.\Generated_Source\PSoC4/BLE_dis.c ****                    * eventCode indicates the event that triggered this 
  76:.\Generated_Source\PSoC4/BLE_dis.c ****                      callback.
  77:.\Generated_Source\PSoC4/BLE_dis.c ****                    * eventParam contains the parameters corresponding to the 
  78:.\Generated_Source\PSoC4/BLE_dis.c ****                      current event.
  79:.\Generated_Source\PSoC4/BLE_dis.c **** 
  80:.\Generated_Source\PSoC4/BLE_dis.c **** Return:
  81:.\Generated_Source\PSoC4/BLE_dis.c ****  None
  82:.\Generated_Source\PSoC4/BLE_dis.c **** 
  83:.\Generated_Source\PSoC4/BLE_dis.c **** ******************************************************************************/
  84:.\Generated_Source\PSoC4/BLE_dis.c **** void CyBle_DisRegisterAttrCallback(CYBLE_CALLBACK_T callbackFunc)
  85:.\Generated_Source\PSoC4/BLE_dis.c **** {
  72              		.loc 1 85 0
  73              		.cfi_startproc
  74 0000 80B5     		push	{r7, lr}
  75              		.cfi_def_cfa_offset 8
  76              		.cfi_offset 7, -8
  77              		.cfi_offset 14, -4
  78 0002 82B0     		sub	sp, sp, #8
  79              		.cfi_def_cfa_offset 16
  80 0004 00AF     		add	r7, sp, #0
  81              		.cfi_def_cfa_register 7
  82 0006 7860     		str	r0, [r7, #4]
  86:.\Generated_Source\PSoC4/BLE_dis.c ****     
  87:.\Generated_Source\PSoC4/BLE_dis.c **** #ifdef CYBLE_DIS_CLIENT
  88:.\Generated_Source\PSoC4/BLE_dis.c ****     CyBle_DisApplCallback = callbackFunc;
  83              		.loc 1 88 0
ARM GAS  C:\Users\msuro\AppData\Local\Temp\ccXJ5Meg.s 			page 4


  84 0008 024B     		ldr	r3, .L5
  85 000a 7A68     		ldr	r2, [r7, #4]
  86 000c 1A60     		str	r2, [r3]
  89:.\Generated_Source\PSoC4/BLE_dis.c **** #else
  90:.\Generated_Source\PSoC4/BLE_dis.c ****     if(callbackFunc != NULL) /* Callback doesn't have events in server mode */
  91:.\Generated_Source\PSoC4/BLE_dis.c ****     {
  92:.\Generated_Source\PSoC4/BLE_dis.c ****     }
  93:.\Generated_Source\PSoC4/BLE_dis.c **** #endif /* CYBLE_DIS_CLIENT */
  94:.\Generated_Source\PSoC4/BLE_dis.c ****     
  95:.\Generated_Source\PSoC4/BLE_dis.c **** }
  87              		.loc 1 95 0
  88 000e BD46     		mov	sp, r7
  89 0010 02B0     		add	sp, sp, #8
  90              		@ sp needed
  91 0012 80BD     		pop	{r7, pc}
  92              	.L6:
  93              		.align	2
  94              	.L5:
  95 0014 04000000 		.word	CyBle_DisApplCallback
  96              		.cfi_endproc
  97              	.LFE3:
  98              		.size	CyBle_DisRegisterAttrCallback, .-CyBle_DisRegisterAttrCallback
  99              		.section	.text.CyBle_DiscDiscoverCharacteristicsEventHandler,"ax",%progbits
 100              		.align	2
 101              		.global	CyBle_DiscDiscoverCharacteristicsEventHandler
 102              		.code	16
 103              		.thumb_func
 104              		.type	CyBle_DiscDiscoverCharacteristicsEventHandler, %function
 105              	CyBle_DiscDiscoverCharacteristicsEventHandler:
 106              	.LFB4:
  96:.\Generated_Source\PSoC4/BLE_dis.c **** 
  97:.\Generated_Source\PSoC4/BLE_dis.c **** #ifdef CYBLE_DIS_SERVER
  98:.\Generated_Source\PSoC4/BLE_dis.c **** 
  99:.\Generated_Source\PSoC4/BLE_dis.c **** 
 100:.\Generated_Source\PSoC4/BLE_dis.c **** /******************************************************************************
 101:.\Generated_Source\PSoC4/BLE_dis.c **** ##Function Name: CyBle_DissSetCharacteristicValue
 102:.\Generated_Source\PSoC4/BLE_dis.c **** *******************************************************************************
 103:.\Generated_Source\PSoC4/BLE_dis.c **** 
 104:.\Generated_Source\PSoC4/BLE_dis.c **** Summary:
 105:.\Generated_Source\PSoC4/BLE_dis.c ****  Sets a characteristic value of the service, which is identified by charIndex,
 106:.\Generated_Source\PSoC4/BLE_dis.c ****  to the local database.
 107:.\Generated_Source\PSoC4/BLE_dis.c **** 
 108:.\Generated_Source\PSoC4/BLE_dis.c **** 
 109:.\Generated_Source\PSoC4/BLE_dis.c **** Parameters:
 110:.\Generated_Source\PSoC4/BLE_dis.c ****  charIndex: The index of a service characteristic.
 111:.\Generated_Source\PSoC4/BLE_dis.c ****  attrSize: The size of the characteristic value attribute.
 112:.\Generated_Source\PSoC4/BLE_dis.c ****  *attrValue: The pointer to the characteristic value data that should be
 113:.\Generated_Source\PSoC4/BLE_dis.c ****                   stored to the GATT database.
 114:.\Generated_Source\PSoC4/BLE_dis.c **** 
 115:.\Generated_Source\PSoC4/BLE_dis.c **** Return:
 116:.\Generated_Source\PSoC4/BLE_dis.c ****  Return value is of type CYBLE_API_RESULT_T.
 117:.\Generated_Source\PSoC4/BLE_dis.c ****  * CYBLE_ERROR_OK - The request handled successfully
 118:.\Generated_Source\PSoC4/BLE_dis.c ****  * CYBLE_ERROR_INVALID_PARAMETER - Validation of the input parameter failed
 119:.\Generated_Source\PSoC4/BLE_dis.c **** 
 120:.\Generated_Source\PSoC4/BLE_dis.c **** ******************************************************************************/
 121:.\Generated_Source\PSoC4/BLE_dis.c **** CYBLE_API_RESULT_T CyBle_DissSetCharacteristicValue(CYBLE_DIS_CHAR_INDEX_T charIndex, uint8 attrSiz
 122:.\Generated_Source\PSoC4/BLE_dis.c **** {
ARM GAS  C:\Users\msuro\AppData\Local\Temp\ccXJ5Meg.s 			page 5


 123:.\Generated_Source\PSoC4/BLE_dis.c ****     CYBLE_API_RESULT_T apiResult = CYBLE_ERROR_OK;
 124:.\Generated_Source\PSoC4/BLE_dis.c ****     CYBLE_GATT_HANDLE_VALUE_PAIR_T locHandleValuePair;
 125:.\Generated_Source\PSoC4/BLE_dis.c **** 
 126:.\Generated_Source\PSoC4/BLE_dis.c ****     if(charIndex >= CYBLE_DIS_CHAR_COUNT)
 127:.\Generated_Source\PSoC4/BLE_dis.c ****     {
 128:.\Generated_Source\PSoC4/BLE_dis.c ****         apiResult = CYBLE_ERROR_INVALID_PARAMETER;
 129:.\Generated_Source\PSoC4/BLE_dis.c ****     }
 130:.\Generated_Source\PSoC4/BLE_dis.c ****     else
 131:.\Generated_Source\PSoC4/BLE_dis.c ****     {
 132:.\Generated_Source\PSoC4/BLE_dis.c ****         /* Store data in database */
 133:.\Generated_Source\PSoC4/BLE_dis.c ****         locHandleValuePair.attrHandle = cyBle_diss.charHandle[charIndex];
 134:.\Generated_Source\PSoC4/BLE_dis.c ****         locHandleValuePair.value.len = attrSize;
 135:.\Generated_Source\PSoC4/BLE_dis.c ****         locHandleValuePair.value.val = attrValue;
 136:.\Generated_Source\PSoC4/BLE_dis.c ****         if(CYBLE_GATT_ERR_NONE !=
 137:.\Generated_Source\PSoC4/BLE_dis.c ****             CyBle_GattsWriteAttributeValue(&locHandleValuePair, 0u, NULL, CYBLE_GATT_DB_LOCALLY_INI
 138:.\Generated_Source\PSoC4/BLE_dis.c ****         {
 139:.\Generated_Source\PSoC4/BLE_dis.c ****             apiResult = CYBLE_ERROR_INVALID_PARAMETER;
 140:.\Generated_Source\PSoC4/BLE_dis.c ****         }
 141:.\Generated_Source\PSoC4/BLE_dis.c ****     }
 142:.\Generated_Source\PSoC4/BLE_dis.c ****     return (apiResult);
 143:.\Generated_Source\PSoC4/BLE_dis.c **** }
 144:.\Generated_Source\PSoC4/BLE_dis.c **** 
 145:.\Generated_Source\PSoC4/BLE_dis.c **** 
 146:.\Generated_Source\PSoC4/BLE_dis.c **** /******************************************************************************
 147:.\Generated_Source\PSoC4/BLE_dis.c **** ##Function Name: CyBle_DissGetCharacteristicValue
 148:.\Generated_Source\PSoC4/BLE_dis.c **** *******************************************************************************
 149:.\Generated_Source\PSoC4/BLE_dis.c **** 
 150:.\Generated_Source\PSoC4/BLE_dis.c **** Summary:
 151:.\Generated_Source\PSoC4/BLE_dis.c ****  Gets a characteristic value of the service, which is identified by charIndex,
 152:.\Generated_Source\PSoC4/BLE_dis.c ****  from the GATT database.
 153:.\Generated_Source\PSoC4/BLE_dis.c **** 
 154:.\Generated_Source\PSoC4/BLE_dis.c **** Parameters:
 155:.\Generated_Source\PSoC4/BLE_dis.c ****  charIndex: The index of a service characteristic.
 156:.\Generated_Source\PSoC4/BLE_dis.c ****  attrSize: The size of the characteristic value attribute.
 157:.\Generated_Source\PSoC4/BLE_dis.c ****  *attrValue: The pointer to the location where characteristic value data
 158:.\Generated_Source\PSoC4/BLE_dis.c ****               should be stored.
 159:.\Generated_Source\PSoC4/BLE_dis.c **** 
 160:.\Generated_Source\PSoC4/BLE_dis.c **** Return:
 161:.\Generated_Source\PSoC4/BLE_dis.c ****  Return value is of type CYBLE_API_RESULT_T.
 162:.\Generated_Source\PSoC4/BLE_dis.c ****  Return value is of type CYBLE_API_RESULT_T.
 163:.\Generated_Source\PSoC4/BLE_dis.c ****  * CYBLE_ERROR_OK - The request handled successfully
 164:.\Generated_Source\PSoC4/BLE_dis.c ****  * CYBLE_ERROR_INVALID_PARAMETER - Validation of the input parameter failed
 165:.\Generated_Source\PSoC4/BLE_dis.c **** 
 166:.\Generated_Source\PSoC4/BLE_dis.c **** ******************************************************************************/
 167:.\Generated_Source\PSoC4/BLE_dis.c **** CYBLE_API_RESULT_T CyBle_DissGetCharacteristicValue(CYBLE_DIS_CHAR_INDEX_T charIndex, uint8 attrSiz
 168:.\Generated_Source\PSoC4/BLE_dis.c **** {
 169:.\Generated_Source\PSoC4/BLE_dis.c ****     CYBLE_API_RESULT_T apiResult = CYBLE_ERROR_OK;
 170:.\Generated_Source\PSoC4/BLE_dis.c ****     CYBLE_GATT_HANDLE_VALUE_PAIR_T locHandleValuePair;
 171:.\Generated_Source\PSoC4/BLE_dis.c **** 
 172:.\Generated_Source\PSoC4/BLE_dis.c ****     if(charIndex >= CYBLE_DIS_CHAR_COUNT)
 173:.\Generated_Source\PSoC4/BLE_dis.c ****     {
 174:.\Generated_Source\PSoC4/BLE_dis.c ****         apiResult = CYBLE_ERROR_INVALID_PARAMETER;
 175:.\Generated_Source\PSoC4/BLE_dis.c ****     }
 176:.\Generated_Source\PSoC4/BLE_dis.c ****     else
 177:.\Generated_Source\PSoC4/BLE_dis.c ****     {
 178:.\Generated_Source\PSoC4/BLE_dis.c ****         /* Read characteristic value from database */
 179:.\Generated_Source\PSoC4/BLE_dis.c ****         locHandleValuePair.attrHandle = cyBle_diss.charHandle[charIndex];
ARM GAS  C:\Users\msuro\AppData\Local\Temp\ccXJ5Meg.s 			page 6


 180:.\Generated_Source\PSoC4/BLE_dis.c ****         locHandleValuePair.value.len = attrSize;
 181:.\Generated_Source\PSoC4/BLE_dis.c ****         locHandleValuePair.value.val = attrValue;
 182:.\Generated_Source\PSoC4/BLE_dis.c ****         if(CYBLE_GATT_ERR_NONE !=
 183:.\Generated_Source\PSoC4/BLE_dis.c ****             CyBle_GattsReadAttributeValue(&locHandleValuePair, NULL, CYBLE_GATT_DB_LOCALLY_INITIATE
 184:.\Generated_Source\PSoC4/BLE_dis.c ****         {
 185:.\Generated_Source\PSoC4/BLE_dis.c ****             apiResult = CYBLE_ERROR_INVALID_PARAMETER;
 186:.\Generated_Source\PSoC4/BLE_dis.c ****         }
 187:.\Generated_Source\PSoC4/BLE_dis.c ****     }
 188:.\Generated_Source\PSoC4/BLE_dis.c ****     return (apiResult);
 189:.\Generated_Source\PSoC4/BLE_dis.c **** }
 190:.\Generated_Source\PSoC4/BLE_dis.c **** 
 191:.\Generated_Source\PSoC4/BLE_dis.c **** #endif /* CYBLE_DIS_SERVER */
 192:.\Generated_Source\PSoC4/BLE_dis.c **** 
 193:.\Generated_Source\PSoC4/BLE_dis.c **** #ifdef CYBLE_DIS_CLIENT
 194:.\Generated_Source\PSoC4/BLE_dis.c **** 
 195:.\Generated_Source\PSoC4/BLE_dis.c **** 
 196:.\Generated_Source\PSoC4/BLE_dis.c **** /******************************************************************************
 197:.\Generated_Source\PSoC4/BLE_dis.c **** ##Function Name: CyBle_DiscHandleDiscoverCharacteristics
 198:.\Generated_Source\PSoC4/BLE_dis.c **** *******************************************************************************
 199:.\Generated_Source\PSoC4/BLE_dis.c **** 
 200:.\Generated_Source\PSoC4/BLE_dis.c **** Summary:
 201:.\Generated_Source\PSoC4/BLE_dis.c ****  This function is called on receiving a CYBLE_EVT_GATTC_READ_BY_TYPE_RSP event.
 202:.\Generated_Source\PSoC4/BLE_dis.c ****  Based on the service UUID, an appropriate data structure is populated using the
 203:.\Generated_Source\PSoC4/BLE_dis.c ****  data received as part of the callback.
 204:.\Generated_Source\PSoC4/BLE_dis.c **** 
 205:.\Generated_Source\PSoC4/BLE_dis.c **** Parameters:
 206:.\Generated_Source\PSoC4/BLE_dis.c ****  *discCharInfo:  the pointer to a characteristic information structure.
 207:.\Generated_Source\PSoC4/BLE_dis.c **** 
 208:.\Generated_Source\PSoC4/BLE_dis.c **** Return:
 209:.\Generated_Source\PSoC4/BLE_dis.c ****  None
 210:.\Generated_Source\PSoC4/BLE_dis.c **** 
 211:.\Generated_Source\PSoC4/BLE_dis.c **** ******************************************************************************/
 212:.\Generated_Source\PSoC4/BLE_dis.c **** void CyBle_DiscDiscoverCharacteristicsEventHandler(CYBLE_DISC_CHAR_INFO_T *discCharInfo)
 213:.\Generated_Source\PSoC4/BLE_dis.c **** {
 107              		.loc 1 213 0
 108              		.cfi_startproc
 109 0000 80B5     		push	{r7, lr}
 110              		.cfi_def_cfa_offset 8
 111              		.cfi_offset 7, -8
 112              		.cfi_offset 14, -4
 113 0002 82B0     		sub	sp, sp, #8
 114              		.cfi_def_cfa_offset 16
 115 0004 00AF     		add	r7, sp, #0
 116              		.cfi_def_cfa_register 7
 117 0006 7860     		str	r0, [r7, #4]
 214:.\Generated_Source\PSoC4/BLE_dis.c ****     switch(discCharInfo->uuid.uuid16)
 118              		.loc 1 214 0
 119 0008 7B68     		ldr	r3, [r7, #4]
 120 000a DB88     		ldrh	r3, [r3, #6]
 121 000c 6E4A     		ldr	r2, .L39
 122 000e 9B18     		add	r3, r3, r2
 123 0010 2D2B     		cmp	r3, #45
 124 0012 00D9     		bls	.LCB82
 125 0014 D4E0     		b	.L38	@long jump
 126              	.LCB82:
 127 0016 9A00     		lsl	r2, r3, #2
 128 0018 6C4B     		ldr	r3, .L39+4
ARM GAS  C:\Users\msuro\AppData\Local\Temp\ccXJ5Meg.s 			page 7


 129 001a D318     		add	r3, r2, r3
 130 001c 1B68     		ldr	r3, [r3]
 131 001e 9F46     		mov	pc, r3
 132              		.section	.rodata
 133              		.align	2
 134              	.L10:
 135 0000 34010000 		.word	.L9
 136 0004 4E000000 		.word	.L11
 137 0008 7C000000 		.word	.L12
 138 000c D8000000 		.word	.L13
 139 0010 AA000000 		.word	.L14
 140 0014 06010000 		.word	.L15
 141 0018 20000000 		.word	.L16
 142 001c 62010000 		.word	.L17
 143 0020 C0010000 		.word	.L38
 144 0024 C0010000 		.word	.L38
 145 0028 C0010000 		.word	.L38
 146 002c C0010000 		.word	.L38
 147 0030 C0010000 		.word	.L38
 148 0034 C0010000 		.word	.L38
 149 0038 C0010000 		.word	.L38
 150 003c C0010000 		.word	.L38
 151 0040 C0010000 		.word	.L38
 152 0044 C0010000 		.word	.L38
 153 0048 C0010000 		.word	.L38
 154 004c C0010000 		.word	.L38
 155 0050 C0010000 		.word	.L38
 156 0054 C0010000 		.word	.L38
 157 0058 C0010000 		.word	.L38
 158 005c C0010000 		.word	.L38
 159 0060 C0010000 		.word	.L38
 160 0064 C0010000 		.word	.L38
 161 0068 C0010000 		.word	.L38
 162 006c C0010000 		.word	.L38
 163 0070 C0010000 		.word	.L38
 164 0074 C0010000 		.word	.L38
 165 0078 C0010000 		.word	.L38
 166 007c C0010000 		.word	.L38
 167 0080 C0010000 		.word	.L38
 168 0084 C0010000 		.word	.L38
 169 0088 C0010000 		.word	.L38
 170 008c C0010000 		.word	.L38
 171 0090 C0010000 		.word	.L38
 172 0094 C0010000 		.word	.L38
 173 0098 C0010000 		.word	.L38
 174 009c C0010000 		.word	.L38
 175 00a0 C0010000 		.word	.L38
 176 00a4 C0010000 		.word	.L38
 177 00a8 C0010000 		.word	.L38
 178 00ac C0010000 		.word	.L38
 179 00b0 C0010000 		.word	.L38
 180 00b4 90010000 		.word	.L18
 181              		.section	.text.CyBle_DiscDiscoverCharacteristicsEventHandler
 182              	.L16:
 215:.\Generated_Source\PSoC4/BLE_dis.c ****     {
 216:.\Generated_Source\PSoC4/BLE_dis.c ****         case CYBLE_UUID_CHAR_MANUFACTURER_NAME:
 217:.\Generated_Source\PSoC4/BLE_dis.c ****             CyBle_DiscCheckCharHandle(cyBle_disc.charInfo[CYBLE_DIS_MANUFACTURER_NAME]);
ARM GAS  C:\Users\msuro\AppData\Local\Temp\ccXJ5Meg.s 			page 8


 183              		.loc 1 217 0
 184 0020 6B4B     		ldr	r3, .L39+8
 185 0022 5B88     		ldrh	r3, [r3, #2]
 186 0024 002B     		cmp	r3, #0
 187 0026 08D1     		bne	.L19
 188              		.loc 1 217 0 is_stmt 0 discriminator 1
 189 0028 7B68     		ldr	r3, [r7, #4]
 190 002a 9A88     		ldrh	r2, [r3, #4]
 191 002c 684B     		ldr	r3, .L39+8
 192 002e 5A80     		strh	r2, [r3, #2]
 193 0030 7B68     		ldr	r3, [r7, #4]
 194 0032 9A78     		ldrb	r2, [r3, #2]
 195 0034 664B     		ldr	r3, .L39+8
 196 0036 1A70     		strb	r2, [r3]
 218:.\Generated_Source\PSoC4/BLE_dis.c ****             break;
 197              		.loc 1 218 0 is_stmt 1 discriminator 1
 198 0038 C3E0     		b	.L7
 199              	.L19:
 217:.\Generated_Source\PSoC4/BLE_dis.c ****             CyBle_DiscCheckCharHandle(cyBle_disc.charInfo[CYBLE_DIS_MANUFACTURER_NAME]);
 200              		.loc 1 217 0 discriminator 2
 201 003a 664B     		ldr	r3, .L39+12
 202 003c 1B68     		ldr	r3, [r3]
 203 003e 7A68     		ldr	r2, [r7, #4]
 204 0040 0632     		add	r2, r2, #6
 205 0042 8621     		mov	r1, #134
 206 0044 4900     		lsl	r1, r1, #1
 207 0046 081C     		mov	r0, r1
 208 0048 111C     		mov	r1, r2
 209 004a 9847     		blx	r3
 210              		.loc 1 218 0 discriminator 2
 211 004c B9E0     		b	.L7
 212              	.L11:
 219:.\Generated_Source\PSoC4/BLE_dis.c ****         case CYBLE_UUID_CHAR_MODEL_NUMBER:
 220:.\Generated_Source\PSoC4/BLE_dis.c ****             CyBle_DiscCheckCharHandle(cyBle_disc.charInfo[CYBLE_DIS_MODEL_NUMBER]);
 213              		.loc 1 220 0
 214 004e 604B     		ldr	r3, .L39+8
 215 0050 DB88     		ldrh	r3, [r3, #6]
 216 0052 002B     		cmp	r3, #0
 217 0054 08D1     		bne	.L22
 218              		.loc 1 220 0 is_stmt 0 discriminator 1
 219 0056 7B68     		ldr	r3, [r7, #4]
 220 0058 9A88     		ldrh	r2, [r3, #4]
 221 005a 5D4B     		ldr	r3, .L39+8
 222 005c DA80     		strh	r2, [r3, #6]
 223 005e 7B68     		ldr	r3, [r7, #4]
 224 0060 9A78     		ldrb	r2, [r3, #2]
 225 0062 5B4B     		ldr	r3, .L39+8
 226 0064 1A71     		strb	r2, [r3, #4]
 221:.\Generated_Source\PSoC4/BLE_dis.c ****             break;
 227              		.loc 1 221 0 is_stmt 1 discriminator 1
 228 0066 ACE0     		b	.L7
 229              	.L22:
 220:.\Generated_Source\PSoC4/BLE_dis.c ****             CyBle_DiscCheckCharHandle(cyBle_disc.charInfo[CYBLE_DIS_MODEL_NUMBER]);
 230              		.loc 1 220 0 discriminator 2
 231 0068 5A4B     		ldr	r3, .L39+12
 232 006a 1B68     		ldr	r3, [r3]
 233 006c 7A68     		ldr	r2, [r7, #4]
ARM GAS  C:\Users\msuro\AppData\Local\Temp\ccXJ5Meg.s 			page 9


 234 006e 0632     		add	r2, r2, #6
 235 0070 8621     		mov	r1, #134
 236 0072 4900     		lsl	r1, r1, #1
 237 0074 081C     		mov	r0, r1
 238 0076 111C     		mov	r1, r2
 239 0078 9847     		blx	r3
 240              		.loc 1 221 0 discriminator 2
 241 007a A2E0     		b	.L7
 242              	.L12:
 222:.\Generated_Source\PSoC4/BLE_dis.c ****         case CYBLE_UUID_CHAR_SERIAL_NUMBER:
 223:.\Generated_Source\PSoC4/BLE_dis.c ****             CyBle_DiscCheckCharHandle(cyBle_disc.charInfo[CYBLE_DIS_SERIAL_NUMBER]);
 243              		.loc 1 223 0
 244 007c 544B     		ldr	r3, .L39+8
 245 007e 5B89     		ldrh	r3, [r3, #10]
 246 0080 002B     		cmp	r3, #0
 247 0082 08D1     		bne	.L24
 248              		.loc 1 223 0 is_stmt 0 discriminator 1
 249 0084 7B68     		ldr	r3, [r7, #4]
 250 0086 9A88     		ldrh	r2, [r3, #4]
 251 0088 514B     		ldr	r3, .L39+8
 252 008a 5A81     		strh	r2, [r3, #10]
 253 008c 7B68     		ldr	r3, [r7, #4]
 254 008e 9A78     		ldrb	r2, [r3, #2]
 255 0090 4F4B     		ldr	r3, .L39+8
 256 0092 1A72     		strb	r2, [r3, #8]
 224:.\Generated_Source\PSoC4/BLE_dis.c ****             break;
 257              		.loc 1 224 0 is_stmt 1 discriminator 1
 258 0094 95E0     		b	.L7
 259              	.L24:
 223:.\Generated_Source\PSoC4/BLE_dis.c ****             CyBle_DiscCheckCharHandle(cyBle_disc.charInfo[CYBLE_DIS_SERIAL_NUMBER]);
 260              		.loc 1 223 0 discriminator 2
 261 0096 4F4B     		ldr	r3, .L39+12
 262 0098 1B68     		ldr	r3, [r3]
 263 009a 7A68     		ldr	r2, [r7, #4]
 264 009c 0632     		add	r2, r2, #6
 265 009e 8621     		mov	r1, #134
 266 00a0 4900     		lsl	r1, r1, #1
 267 00a2 081C     		mov	r0, r1
 268 00a4 111C     		mov	r1, r2
 269 00a6 9847     		blx	r3
 270              		.loc 1 224 0 discriminator 2
 271 00a8 8BE0     		b	.L7
 272              	.L14:
 225:.\Generated_Source\PSoC4/BLE_dis.c ****         case CYBLE_UUID_CHAR_HARDWARE_REV:
 226:.\Generated_Source\PSoC4/BLE_dis.c ****             CyBle_DiscCheckCharHandle(cyBle_disc.charInfo[CYBLE_DIS_HARDWARE_REV]);
 273              		.loc 1 226 0
 274 00aa 494B     		ldr	r3, .L39+8
 275 00ac DB89     		ldrh	r3, [r3, #14]
 276 00ae 002B     		cmp	r3, #0
 277 00b0 08D1     		bne	.L26
 278              		.loc 1 226 0 is_stmt 0 discriminator 1
 279 00b2 7B68     		ldr	r3, [r7, #4]
 280 00b4 9A88     		ldrh	r2, [r3, #4]
 281 00b6 464B     		ldr	r3, .L39+8
 282 00b8 DA81     		strh	r2, [r3, #14]
 283 00ba 7B68     		ldr	r3, [r7, #4]
 284 00bc 9A78     		ldrb	r2, [r3, #2]
ARM GAS  C:\Users\msuro\AppData\Local\Temp\ccXJ5Meg.s 			page 10


 285 00be 444B     		ldr	r3, .L39+8
 286 00c0 1A73     		strb	r2, [r3, #12]
 227:.\Generated_Source\PSoC4/BLE_dis.c ****             break;
 287              		.loc 1 227 0 is_stmt 1 discriminator 1
 288 00c2 7EE0     		b	.L7
 289              	.L26:
 226:.\Generated_Source\PSoC4/BLE_dis.c ****             CyBle_DiscCheckCharHandle(cyBle_disc.charInfo[CYBLE_DIS_HARDWARE_REV]);
 290              		.loc 1 226 0 discriminator 2
 291 00c4 434B     		ldr	r3, .L39+12
 292 00c6 1B68     		ldr	r3, [r3]
 293 00c8 7A68     		ldr	r2, [r7, #4]
 294 00ca 0632     		add	r2, r2, #6
 295 00cc 8621     		mov	r1, #134
 296 00ce 4900     		lsl	r1, r1, #1
 297 00d0 081C     		mov	r0, r1
 298 00d2 111C     		mov	r1, r2
 299 00d4 9847     		blx	r3
 300              		.loc 1 227 0 discriminator 2
 301 00d6 74E0     		b	.L7
 302              	.L13:
 228:.\Generated_Source\PSoC4/BLE_dis.c ****         case CYBLE_UUID_CHAR_FIRMWARE_REV:
 229:.\Generated_Source\PSoC4/BLE_dis.c ****             CyBle_DiscCheckCharHandle(cyBle_disc.charInfo[CYBLE_DIS_FIRMWARE_REV]);
 303              		.loc 1 229 0
 304 00d8 3D4B     		ldr	r3, .L39+8
 305 00da 5B8A     		ldrh	r3, [r3, #18]
 306 00dc 002B     		cmp	r3, #0
 307 00de 08D1     		bne	.L28
 308              		.loc 1 229 0 is_stmt 0 discriminator 1
 309 00e0 7B68     		ldr	r3, [r7, #4]
 310 00e2 9A88     		ldrh	r2, [r3, #4]
 311 00e4 3A4B     		ldr	r3, .L39+8
 312 00e6 5A82     		strh	r2, [r3, #18]
 313 00e8 7B68     		ldr	r3, [r7, #4]
 314 00ea 9A78     		ldrb	r2, [r3, #2]
 315 00ec 384B     		ldr	r3, .L39+8
 316 00ee 1A74     		strb	r2, [r3, #16]
 230:.\Generated_Source\PSoC4/BLE_dis.c ****             break;
 317              		.loc 1 230 0 is_stmt 1 discriminator 1
 318 00f0 67E0     		b	.L7
 319              	.L28:
 229:.\Generated_Source\PSoC4/BLE_dis.c ****             CyBle_DiscCheckCharHandle(cyBle_disc.charInfo[CYBLE_DIS_FIRMWARE_REV]);
 320              		.loc 1 229 0 discriminator 2
 321 00f2 384B     		ldr	r3, .L39+12
 322 00f4 1B68     		ldr	r3, [r3]
 323 00f6 7A68     		ldr	r2, [r7, #4]
 324 00f8 0632     		add	r2, r2, #6
 325 00fa 8621     		mov	r1, #134
 326 00fc 4900     		lsl	r1, r1, #1
 327 00fe 081C     		mov	r0, r1
 328 0100 111C     		mov	r1, r2
 329 0102 9847     		blx	r3
 330              		.loc 1 230 0 discriminator 2
 331 0104 5DE0     		b	.L7
 332              	.L15:
 231:.\Generated_Source\PSoC4/BLE_dis.c ****         case CYBLE_UUID_CHAR_SOFTWARE_REV:
 232:.\Generated_Source\PSoC4/BLE_dis.c ****             CyBle_DiscCheckCharHandle(cyBle_disc.charInfo[CYBLE_DIS_SOFTWARE_REV]);
 333              		.loc 1 232 0
ARM GAS  C:\Users\msuro\AppData\Local\Temp\ccXJ5Meg.s 			page 11


 334 0106 324B     		ldr	r3, .L39+8
 335 0108 DB8A     		ldrh	r3, [r3, #22]
 336 010a 002B     		cmp	r3, #0
 337 010c 08D1     		bne	.L30
 338              		.loc 1 232 0 is_stmt 0 discriminator 1
 339 010e 7B68     		ldr	r3, [r7, #4]
 340 0110 9A88     		ldrh	r2, [r3, #4]
 341 0112 2F4B     		ldr	r3, .L39+8
 342 0114 DA82     		strh	r2, [r3, #22]
 343 0116 7B68     		ldr	r3, [r7, #4]
 344 0118 9A78     		ldrb	r2, [r3, #2]
 345 011a 2D4B     		ldr	r3, .L39+8
 346 011c 1A75     		strb	r2, [r3, #20]
 233:.\Generated_Source\PSoC4/BLE_dis.c ****             break;
 347              		.loc 1 233 0 is_stmt 1 discriminator 1
 348 011e 50E0     		b	.L7
 349              	.L30:
 232:.\Generated_Source\PSoC4/BLE_dis.c ****             CyBle_DiscCheckCharHandle(cyBle_disc.charInfo[CYBLE_DIS_SOFTWARE_REV]);
 350              		.loc 1 232 0 discriminator 2
 351 0120 2C4B     		ldr	r3, .L39+12
 352 0122 1B68     		ldr	r3, [r3]
 353 0124 7A68     		ldr	r2, [r7, #4]
 354 0126 0632     		add	r2, r2, #6
 355 0128 8621     		mov	r1, #134
 356 012a 4900     		lsl	r1, r1, #1
 357 012c 081C     		mov	r0, r1
 358 012e 111C     		mov	r1, r2
 359 0130 9847     		blx	r3
 360              		.loc 1 233 0 discriminator 2
 361 0132 46E0     		b	.L7
 362              	.L9:
 234:.\Generated_Source\PSoC4/BLE_dis.c ****         case CYBLE_UUID_CHAR_SYSTEM_ID:
 235:.\Generated_Source\PSoC4/BLE_dis.c ****             CyBle_DiscCheckCharHandle(cyBle_disc.charInfo[CYBLE_DIS_SYSTEM_ID]);
 363              		.loc 1 235 0
 364 0134 264B     		ldr	r3, .L39+8
 365 0136 5B8B     		ldrh	r3, [r3, #26]
 366 0138 002B     		cmp	r3, #0
 367 013a 08D1     		bne	.L32
 368              		.loc 1 235 0 is_stmt 0 discriminator 1
 369 013c 7B68     		ldr	r3, [r7, #4]
 370 013e 9A88     		ldrh	r2, [r3, #4]
 371 0140 234B     		ldr	r3, .L39+8
 372 0142 5A83     		strh	r2, [r3, #26]
 373 0144 7B68     		ldr	r3, [r7, #4]
 374 0146 9A78     		ldrb	r2, [r3, #2]
 375 0148 214B     		ldr	r3, .L39+8
 376 014a 1A76     		strb	r2, [r3, #24]
 236:.\Generated_Source\PSoC4/BLE_dis.c ****             break;
 377              		.loc 1 236 0 is_stmt 1 discriminator 1
 378 014c 39E0     		b	.L7
 379              	.L32:
 235:.\Generated_Source\PSoC4/BLE_dis.c ****             CyBle_DiscCheckCharHandle(cyBle_disc.charInfo[CYBLE_DIS_SYSTEM_ID]);
 380              		.loc 1 235 0 discriminator 2
 381 014e 214B     		ldr	r3, .L39+12
 382 0150 1B68     		ldr	r3, [r3]
 383 0152 7A68     		ldr	r2, [r7, #4]
 384 0154 0632     		add	r2, r2, #6
ARM GAS  C:\Users\msuro\AppData\Local\Temp\ccXJ5Meg.s 			page 12


 385 0156 8621     		mov	r1, #134
 386 0158 4900     		lsl	r1, r1, #1
 387 015a 081C     		mov	r0, r1
 388 015c 111C     		mov	r1, r2
 389 015e 9847     		blx	r3
 390              		.loc 1 236 0 discriminator 2
 391 0160 2FE0     		b	.L7
 392              	.L17:
 237:.\Generated_Source\PSoC4/BLE_dis.c ****         case CYBLE_UUID_CHAR_REG_CERT_DATA:
 238:.\Generated_Source\PSoC4/BLE_dis.c ****             CyBle_DiscCheckCharHandle(cyBle_disc.charInfo[CYBLE_DIS_REG_CERT_DATA]);
 393              		.loc 1 238 0
 394 0162 1B4B     		ldr	r3, .L39+8
 395 0164 DB8B     		ldrh	r3, [r3, #30]
 396 0166 002B     		cmp	r3, #0
 397 0168 08D1     		bne	.L34
 398              		.loc 1 238 0 is_stmt 0 discriminator 1
 399 016a 7B68     		ldr	r3, [r7, #4]
 400 016c 9A88     		ldrh	r2, [r3, #4]
 401 016e 184B     		ldr	r3, .L39+8
 402 0170 DA83     		strh	r2, [r3, #30]
 403 0172 7B68     		ldr	r3, [r7, #4]
 404 0174 9A78     		ldrb	r2, [r3, #2]
 405 0176 164B     		ldr	r3, .L39+8
 406 0178 1A77     		strb	r2, [r3, #28]
 239:.\Generated_Source\PSoC4/BLE_dis.c ****             break;
 407              		.loc 1 239 0 is_stmt 1 discriminator 1
 408 017a 22E0     		b	.L7
 409              	.L34:
 238:.\Generated_Source\PSoC4/BLE_dis.c ****             CyBle_DiscCheckCharHandle(cyBle_disc.charInfo[CYBLE_DIS_REG_CERT_DATA]);
 410              		.loc 1 238 0 discriminator 2
 411 017c 154B     		ldr	r3, .L39+12
 412 017e 1B68     		ldr	r3, [r3]
 413 0180 7A68     		ldr	r2, [r7, #4]
 414 0182 0632     		add	r2, r2, #6
 415 0184 8621     		mov	r1, #134
 416 0186 4900     		lsl	r1, r1, #1
 417 0188 081C     		mov	r0, r1
 418 018a 111C     		mov	r1, r2
 419 018c 9847     		blx	r3
 420              		.loc 1 239 0 discriminator 2
 421 018e 18E0     		b	.L7
 422              	.L18:
 240:.\Generated_Source\PSoC4/BLE_dis.c ****         case CYBLE_UUID_CHAR_PNP_ID:
 241:.\Generated_Source\PSoC4/BLE_dis.c ****             CyBle_DiscCheckCharHandle(cyBle_disc.charInfo[CYBLE_DIS_PNP_ID]);
 423              		.loc 1 241 0
 424 0190 0F4B     		ldr	r3, .L39+8
 425 0192 5B8C     		ldrh	r3, [r3, #34]
 426 0194 002B     		cmp	r3, #0
 427 0196 09D1     		bne	.L36
 428              		.loc 1 241 0 is_stmt 0 discriminator 1
 429 0198 7B68     		ldr	r3, [r7, #4]
 430 019a 9A88     		ldrh	r2, [r3, #4]
 431 019c 0C4B     		ldr	r3, .L39+8
 432 019e 5A84     		strh	r2, [r3, #34]
 433 01a0 7B68     		ldr	r3, [r7, #4]
 434 01a2 9978     		ldrb	r1, [r3, #2]
 435 01a4 0A4A     		ldr	r2, .L39+8
ARM GAS  C:\Users\msuro\AppData\Local\Temp\ccXJ5Meg.s 			page 13


 436 01a6 2023     		mov	r3, #32
 437 01a8 D154     		strb	r1, [r2, r3]
 242:.\Generated_Source\PSoC4/BLE_dis.c ****             break;
 438              		.loc 1 242 0 is_stmt 1 discriminator 1
 439 01aa 0AE0     		b	.L7
 440              	.L36:
 241:.\Generated_Source\PSoC4/BLE_dis.c ****             CyBle_DiscCheckCharHandle(cyBle_disc.charInfo[CYBLE_DIS_PNP_ID]);
 441              		.loc 1 241 0 discriminator 2
 442 01ac 094B     		ldr	r3, .L39+12
 443 01ae 1B68     		ldr	r3, [r3]
 444 01b0 7A68     		ldr	r2, [r7, #4]
 445 01b2 0632     		add	r2, r2, #6
 446 01b4 8621     		mov	r1, #134
 447 01b6 4900     		lsl	r1, r1, #1
 448 01b8 081C     		mov	r0, r1
 449 01ba 111C     		mov	r1, r2
 450 01bc 9847     		blx	r3
 451              		.loc 1 242 0 discriminator 2
 452 01be 00E0     		b	.L7
 453              	.L38:
 243:.\Generated_Source\PSoC4/BLE_dis.c ****         default:
 244:.\Generated_Source\PSoC4/BLE_dis.c ****             break;
 454              		.loc 1 244 0
 455 01c0 C046     		mov	r8, r8
 456              	.L7:
 245:.\Generated_Source\PSoC4/BLE_dis.c ****     }
 246:.\Generated_Source\PSoC4/BLE_dis.c **** }
 457              		.loc 1 246 0
 458 01c2 BD46     		mov	sp, r7
 459 01c4 02B0     		add	sp, sp, #8
 460              		@ sp needed
 461 01c6 80BD     		pop	{r7, pc}
 462              	.L40:
 463              		.align	2
 464              	.L39:
 465 01c8 DDD5FFFF 		.word	-10787
 466 01cc 00000000 		.word	.L10
 467 01d0 00000000 		.word	cyBle_disc
 468 01d4 00000000 		.word	CyBle_ApplCallback
 469              		.cfi_endproc
 470              	.LFE4:
 471              		.size	CyBle_DiscDiscoverCharacteristicsEventHandler, .-CyBle_DiscDiscoverCharacteristicsEventHandl
 472              		.section	.text.CyBle_DiscGetCharacteristicValue,"ax",%progbits
 473              		.align	2
 474              		.global	CyBle_DiscGetCharacteristicValue
 475              		.code	16
 476              		.thumb_func
 477              		.type	CyBle_DiscGetCharacteristicValue, %function
 478              	CyBle_DiscGetCharacteristicValue:
 479              	.LFB5:
 247:.\Generated_Source\PSoC4/BLE_dis.c **** 
 248:.\Generated_Source\PSoC4/BLE_dis.c **** 
 249:.\Generated_Source\PSoC4/BLE_dis.c **** /******************************************************************************
 250:.\Generated_Source\PSoC4/BLE_dis.c **** ##Function Name: CyBle_DiscGetCharacteristicValue
 251:.\Generated_Source\PSoC4/BLE_dis.c **** *******************************************************************************
 252:.\Generated_Source\PSoC4/BLE_dis.c **** 
 253:.\Generated_Source\PSoC4/BLE_dis.c **** Summary:
ARM GAS  C:\Users\msuro\AppData\Local\Temp\ccXJ5Meg.s 			page 14


 254:.\Generated_Source\PSoC4/BLE_dis.c ****  This function is used to read the characteristic Value from a server
 255:.\Generated_Source\PSoC4/BLE_dis.c ****  which is identified by charIndex.
 256:.\Generated_Source\PSoC4/BLE_dis.c **** 
 257:.\Generated_Source\PSoC4/BLE_dis.c ****  The Read Response returns the characteristic value in the Attribute Value
 258:.\Generated_Source\PSoC4/BLE_dis.c ****  parameter. The Read Response only contains the characteristic value that is 
 259:.\Generated_Source\PSoC4/BLE_dis.c ****  less than or equal to (MTU - 1) octets in length. If the characteristic value 
 260:.\Generated_Source\PSoC4/BLE_dis.c ****  is greater than (MTU - 1) octets in length, a Read Long Characteristic Value
 261:.\Generated_Source\PSoC4/BLE_dis.c ****  procedure may be used if the rest of the characteristic value is required.
 262:.\Generated_Source\PSoC4/BLE_dis.c **** 
 263:.\Generated_Source\PSoC4/BLE_dis.c ****  This function call can result in generation of the following events based on
 264:.\Generated_Source\PSoC4/BLE_dis.c ****  the response from the server device.
 265:.\Generated_Source\PSoC4/BLE_dis.c ****  
 266:.\Generated_Source\PSoC4/BLE_dis.c ****  * CYBLE_EVT_DISC_READ_CHAR_RESPONSE
 267:.\Generated_Source\PSoC4/BLE_dis.c ****  * CYBLE_EVT_GATTC_ERROR_RSP
 268:.\Generated_Source\PSoC4/BLE_dis.c **** 
 269:.\Generated_Source\PSoC4/BLE_dis.c **** Parameters:
 270:.\Generated_Source\PSoC4/BLE_dis.c ****  connHandle: The connection handle.
 271:.\Generated_Source\PSoC4/BLE_dis.c ****  charIndex: The index of the service characteristic.
 272:.\Generated_Source\PSoC4/BLE_dis.c **** 
 273:.\Generated_Source\PSoC4/BLE_dis.c **** Return:
 274:.\Generated_Source\PSoC4/BLE_dis.c ****  Return value is of type CYBLE_API_RESULT_T.
 275:.\Generated_Source\PSoC4/BLE_dis.c ****  * CYBLE_ERROR_OK - The read request was sent successfully  
 276:.\Generated_Source\PSoC4/BLE_dis.c ****  * CYBLE_ERROR_INVALID_PARAMETER - Validation of the input parameters failed
 277:.\Generated_Source\PSoC4/BLE_dis.c ****  * CYBLE_ERROR_MEMORY_ALLOCATION_FAILED - Memory allocation failed
 278:.\Generated_Source\PSoC4/BLE_dis.c ****  * CYBLE_ERROR_INVALID_OPERATION - Operation is invalid for this 
 279:.\Generated_Source\PSoC4/BLE_dis.c ****                                     characteristic
 280:.\Generated_Source\PSoC4/BLE_dis.c **** 
 281:.\Generated_Source\PSoC4/BLE_dis.c **** ******************************************************************************/
 282:.\Generated_Source\PSoC4/BLE_dis.c **** CYBLE_API_RESULT_T CyBle_DiscGetCharacteristicValue(CYBLE_CONN_HANDLE_T connHandle, CYBLE_DIS_CHAR_
 283:.\Generated_Source\PSoC4/BLE_dis.c **** {
 480              		.loc 1 283 0
 481              		.cfi_startproc
 482 0000 90B5     		push	{r4, r7, lr}
 483              		.cfi_def_cfa_offset 12
 484              		.cfi_offset 4, -12
 485              		.cfi_offset 7, -8
 486              		.cfi_offset 14, -4
 487 0002 85B0     		sub	sp, sp, #20
 488              		.cfi_def_cfa_offset 32
 489 0004 00AF     		add	r7, sp, #0
 490              		.cfi_def_cfa_register 7
 491 0006 3B1D     		add	r3, r7, #4
 492 0008 1880     		strh	r0, [r3]
 493 000a 0A1C     		mov	r2, r1
 494 000c FB1C     		add	r3, r7, #3
 495 000e 1A70     		strb	r2, [r3]
 284:.\Generated_Source\PSoC4/BLE_dis.c ****     CYBLE_API_RESULT_T apiResult;
 285:.\Generated_Source\PSoC4/BLE_dis.c **** 
 286:.\Generated_Source\PSoC4/BLE_dis.c ****     if(charIndex >= CYBLE_DIS_CHAR_COUNT)
 496              		.loc 1 286 0
 497 0010 FB1C     		add	r3, r7, #3
 498 0012 1B78     		ldrb	r3, [r3]
 499 0014 082B     		cmp	r3, #8
 500 0016 04D9     		bls	.L42
 287:.\Generated_Source\PSoC4/BLE_dis.c ****     {
 288:.\Generated_Source\PSoC4/BLE_dis.c ****         apiResult = CYBLE_ERROR_INVALID_PARAMETER;
 501              		.loc 1 288 0
ARM GAS  C:\Users\msuro\AppData\Local\Temp\ccXJ5Meg.s 			page 15


 502 0018 3B1C     		mov	r3, r7
 503 001a 0E33     		add	r3, r3, #14
 504 001c 0122     		mov	r2, #1
 505 001e 1A80     		strh	r2, [r3]
 506 0020 1BE0     		b	.L43
 507              	.L42:
 289:.\Generated_Source\PSoC4/BLE_dis.c ****     }
 290:.\Generated_Source\PSoC4/BLE_dis.c ****     else
 291:.\Generated_Source\PSoC4/BLE_dis.c ****     {
 292:.\Generated_Source\PSoC4/BLE_dis.c ****         apiResult = CyBle_GattcReadCharacteristicValue(connHandle, cyBle_disc.charInfo[charIndex].v
 508              		.loc 1 292 0
 509 0022 FB1C     		add	r3, r7, #3
 510 0024 1B78     		ldrb	r3, [r3]
 511 0026 104A     		ldr	r2, .L45
 512 0028 9B00     		lsl	r3, r3, #2
 513 002a D318     		add	r3, r2, r3
 514 002c 5A88     		ldrh	r2, [r3, #2]
 515 002e 3C1C     		mov	r4, r7
 516 0030 0E34     		add	r4, r4, #14
 517 0032 3B1D     		add	r3, r7, #4
 518 0034 1868     		ldr	r0, [r3]
 519 0036 111C     		mov	r1, r2
 520 0038 FFF7FEFF 		bl	CyBle_GattcReadCharacteristicValue
 521 003c 031C     		mov	r3, r0
 522 003e 2380     		strh	r3, [r4]
 293:.\Generated_Source\PSoC4/BLE_dis.c ****         /* Save handle to support service specific read response from device */
 294:.\Generated_Source\PSoC4/BLE_dis.c ****         if(apiResult == CYBLE_ERROR_OK)
 523              		.loc 1 294 0
 524 0040 3B1C     		mov	r3, r7
 525 0042 0E33     		add	r3, r3, #14
 526 0044 1B88     		ldrh	r3, [r3]
 527 0046 002B     		cmp	r3, #0
 528 0048 07D1     		bne	.L43
 295:.\Generated_Source\PSoC4/BLE_dis.c ****         {
 296:.\Generated_Source\PSoC4/BLE_dis.c ****             cyBle_discReqHandle = cyBle_disc.charInfo[charIndex].valueHandle;
 529              		.loc 1 296 0
 530 004a FB1C     		add	r3, r7, #3
 531 004c 1B78     		ldrb	r3, [r3]
 532 004e 064A     		ldr	r2, .L45
 533 0050 9B00     		lsl	r3, r3, #2
 534 0052 D318     		add	r3, r2, r3
 535 0054 5A88     		ldrh	r2, [r3, #2]
 536 0056 054B     		ldr	r3, .L45+4
 537 0058 1A80     		strh	r2, [r3]
 538              	.L43:
 297:.\Generated_Source\PSoC4/BLE_dis.c ****         }
 298:.\Generated_Source\PSoC4/BLE_dis.c ****     }
 299:.\Generated_Source\PSoC4/BLE_dis.c ****     return (apiResult);
 539              		.loc 1 299 0
 540 005a 3B1C     		mov	r3, r7
 541 005c 0E33     		add	r3, r3, #14
 542 005e 1B88     		ldrh	r3, [r3]
 300:.\Generated_Source\PSoC4/BLE_dis.c **** }
 543              		.loc 1 300 0
 544 0060 181C     		mov	r0, r3
 545 0062 BD46     		mov	sp, r7
 546 0064 05B0     		add	sp, sp, #20
ARM GAS  C:\Users\msuro\AppData\Local\Temp\ccXJ5Meg.s 			page 16


 547              		@ sp needed
 548 0066 90BD     		pop	{r4, r7, pc}
 549              	.L46:
 550              		.align	2
 551              	.L45:
 552 0068 00000000 		.word	cyBle_disc
 553 006c 00000000 		.word	cyBle_discReqHandle
 554              		.cfi_endproc
 555              	.LFE5:
 556              		.size	CyBle_DiscGetCharacteristicValue, .-CyBle_DiscGetCharacteristicValue
 557              		.section	.text.CyBle_DiscReadResponseEventHandler,"ax",%progbits
 558              		.align	2
 559              		.global	CyBle_DiscReadResponseEventHandler
 560              		.code	16
 561              		.thumb_func
 562              		.type	CyBle_DiscReadResponseEventHandler, %function
 563              	CyBle_DiscReadResponseEventHandler:
 564              	.LFB6:
 301:.\Generated_Source\PSoC4/BLE_dis.c **** 
 302:.\Generated_Source\PSoC4/BLE_dis.c **** 
 303:.\Generated_Source\PSoC4/BLE_dis.c **** /******************************************************************************
 304:.\Generated_Source\PSoC4/BLE_dis.c **** ##Function Name: CyBle_DiscReadResponseEventHandler
 305:.\Generated_Source\PSoC4/BLE_dis.c **** *******************************************************************************
 306:.\Generated_Source\PSoC4/BLE_dis.c **** 
 307:.\Generated_Source\PSoC4/BLE_dis.c **** Summary:
 308:.\Generated_Source\PSoC4/BLE_dis.c ****  Handles the Read Response Event.
 309:.\Generated_Source\PSoC4/BLE_dis.c **** 
 310:.\Generated_Source\PSoC4/BLE_dis.c **** Parameters:
 311:.\Generated_Source\PSoC4/BLE_dis.c ****  *eventParam: the pointer to the data structure specified by the event.
 312:.\Generated_Source\PSoC4/BLE_dis.c **** 
 313:.\Generated_Source\PSoC4/BLE_dis.c **** Return:
 314:.\Generated_Source\PSoC4/BLE_dis.c ****  None
 315:.\Generated_Source\PSoC4/BLE_dis.c **** 
 316:.\Generated_Source\PSoC4/BLE_dis.c **** ******************************************************************************/
 317:.\Generated_Source\PSoC4/BLE_dis.c **** void CyBle_DiscReadResponseEventHandler(CYBLE_GATTC_READ_RSP_PARAM_T *eventParam)
 318:.\Generated_Source\PSoC4/BLE_dis.c **** {
 565              		.loc 1 318 0
 566              		.cfi_startproc
 567 0000 80B5     		push	{r7, lr}
 568              		.cfi_def_cfa_offset 8
 569              		.cfi_offset 7, -8
 570              		.cfi_offset 14, -4
 571 0002 86B0     		sub	sp, sp, #24
 572              		.cfi_def_cfa_offset 32
 573 0004 00AF     		add	r7, sp, #0
 574              		.cfi_def_cfa_register 7
 575 0006 7860     		str	r0, [r7, #4]
 319:.\Generated_Source\PSoC4/BLE_dis.c ****     CYBLE_DIS_CHAR_INDEX_T locCharIndex;
 320:.\Generated_Source\PSoC4/BLE_dis.c **** 
 321:.\Generated_Source\PSoC4/BLE_dis.c ****     if((NULL != CyBle_DisApplCallback) && (CYBLE_GATT_INVALID_ATTR_HANDLE_VALUE != cyBle_discReqHan
 576              		.loc 1 321 0
 577 0008 264B     		ldr	r3, .L52
 578 000a 1B68     		ldr	r3, [r3]
 579 000c 002B     		cmp	r3, #0
 580 000e 46D0     		beq	.L47
 581              		.loc 1 321 0 is_stmt 0 discriminator 1
 582 0010 254B     		ldr	r3, .L52+4
ARM GAS  C:\Users\msuro\AppData\Local\Temp\ccXJ5Meg.s 			page 17


 583 0012 1B88     		ldrh	r3, [r3]
 584 0014 002B     		cmp	r3, #0
 585 0016 42D0     		beq	.L47
 322:.\Generated_Source\PSoC4/BLE_dis.c ****     {
 323:.\Generated_Source\PSoC4/BLE_dis.c ****         for(locCharIndex = CYBLE_DIS_MANUFACTURER_NAME; locCharIndex < CYBLE_DIS_CHAR_COUNT; locCha
 586              		.loc 1 323 0 is_stmt 1
 587 0018 3B1C     		mov	r3, r7
 588 001a 1733     		add	r3, r3, #23
 589 001c 0022     		mov	r2, #0
 590 001e 1A70     		strb	r2, [r3]
 591 0020 38E0     		b	.L49
 592              	.L51:
 324:.\Generated_Source\PSoC4/BLE_dis.c ****         {
 325:.\Generated_Source\PSoC4/BLE_dis.c ****             if(cyBle_discReqHandle == cyBle_disc.charInfo[locCharIndex].valueHandle)
 593              		.loc 1 325 0
 594 0022 3B1C     		mov	r3, r7
 595 0024 1733     		add	r3, r3, #23
 596 0026 1B78     		ldrb	r3, [r3]
 597 0028 204A     		ldr	r2, .L52+8
 598 002a 9B00     		lsl	r3, r3, #2
 599 002c D318     		add	r3, r2, r3
 600 002e 5A88     		ldrh	r2, [r3, #2]
 601 0030 1D4B     		ldr	r3, .L52+4
 602 0032 1B88     		ldrh	r3, [r3]
 603 0034 9A42     		cmp	r2, r3
 604 0036 26D1     		bne	.L50
 605              	.LBB2:
 326:.\Generated_Source\PSoC4/BLE_dis.c ****             {
 327:.\Generated_Source\PSoC4/BLE_dis.c ****                 CYBLE_DIS_CHAR_VALUE_T locCharValue;
 328:.\Generated_Source\PSoC4/BLE_dis.c ****                 
 329:.\Generated_Source\PSoC4/BLE_dis.c ****                 locCharValue.connHandle = eventParam->connHandle;
 606              		.loc 1 329 0
 607 0038 3B1C     		mov	r3, r7
 608 003a 0C33     		add	r3, r3, #12
 609 003c 7A68     		ldr	r2, [r7, #4]
 610 003e 1288     		ldrh	r2, [r2]
 611 0040 1A80     		strh	r2, [r3]
 330:.\Generated_Source\PSoC4/BLE_dis.c ****                 locCharValue.charIndex = locCharIndex;
 612              		.loc 1 330 0
 613 0042 3B1C     		mov	r3, r7
 614 0044 0C33     		add	r3, r3, #12
 615 0046 3A1C     		mov	r2, r7
 616 0048 1732     		add	r2, r2, #23
 617 004a 1278     		ldrb	r2, [r2]
 618 004c 9A70     		strb	r2, [r3, #2]
 331:.\Generated_Source\PSoC4/BLE_dis.c ****                 locCharValue.value = &eventParam->value;
 619              		.loc 1 331 0
 620 004e 7B68     		ldr	r3, [r7, #4]
 621 0050 1A1D     		add	r2, r3, #4
 622 0052 3B1C     		mov	r3, r7
 623 0054 0C33     		add	r3, r3, #12
 624 0056 5A60     		str	r2, [r3, #4]
 332:.\Generated_Source\PSoC4/BLE_dis.c ****                 cyBle_eventHandlerFlag &= (uint8)~CYBLE_CALLBACK;
 625              		.loc 1 332 0
 626 0058 154B     		ldr	r3, .L52+12
 627 005a 1B78     		ldrb	r3, [r3]
 628 005c DBB2     		uxtb	r3, r3
ARM GAS  C:\Users\msuro\AppData\Local\Temp\ccXJ5Meg.s 			page 18


 629 005e 0122     		mov	r2, #1
 630 0060 9343     		bic	r3, r2
 631 0062 DAB2     		uxtb	r2, r3
 632 0064 124B     		ldr	r3, .L52+12
 633 0066 1A70     		strb	r2, [r3]
 333:.\Generated_Source\PSoC4/BLE_dis.c ****                 cyBle_discReqHandle = CYBLE_GATT_INVALID_ATTR_HANDLE_VALUE;
 634              		.loc 1 333 0
 635 0068 0F4B     		ldr	r3, .L52+4
 636 006a 0022     		mov	r2, #0
 637 006c 1A80     		strh	r2, [r3]
 334:.\Generated_Source\PSoC4/BLE_dis.c ****                 CyBle_DisApplCallback((uint32)CYBLE_EVT_DISC_READ_CHAR_RESPONSE, &locCharValue);
 638              		.loc 1 334 0
 639 006e 0D4B     		ldr	r3, .L52
 640 0070 1B68     		ldr	r3, [r3]
 641 0072 5822     		mov	r2, #88
 642 0074 111C     		mov	r1, r2
 643 0076 FF31     		add	r1, r1, #255
 644 0078 3A1C     		mov	r2, r7
 645 007a 0C32     		add	r2, r2, #12
 646 007c 081C     		mov	r0, r1
 647 007e 111C     		mov	r1, r2
 648 0080 9847     		blx	r3
 335:.\Generated_Source\PSoC4/BLE_dis.c ****                 break;
 649              		.loc 1 335 0
 650 0082 C046     		mov	r8, r8
 651 0084 0BE0     		b	.L47
 652              	.L50:
 653              	.LBE2:
 323:.\Generated_Source\PSoC4/BLE_dis.c ****         for(locCharIndex = CYBLE_DIS_MANUFACTURER_NAME; locCharIndex < CYBLE_DIS_CHAR_COUNT; locCha
 654              		.loc 1 323 0
 655 0086 3B1C     		mov	r3, r7
 656 0088 1733     		add	r3, r3, #23
 657 008a 1A78     		ldrb	r2, [r3]
 658 008c 3B1C     		mov	r3, r7
 659 008e 1733     		add	r3, r3, #23
 660 0090 0132     		add	r2, r2, #1
 661 0092 1A70     		strb	r2, [r3]
 662              	.L49:
 323:.\Generated_Source\PSoC4/BLE_dis.c ****         for(locCharIndex = CYBLE_DIS_MANUFACTURER_NAME; locCharIndex < CYBLE_DIS_CHAR_COUNT; locCha
 663              		.loc 1 323 0 is_stmt 0 discriminator 1
 664 0094 3B1C     		mov	r3, r7
 665 0096 1733     		add	r3, r3, #23
 666 0098 1B78     		ldrb	r3, [r3]
 667 009a 082B     		cmp	r3, #8
 668 009c C1D9     		bls	.L51
 669              	.L47:
 336:.\Generated_Source\PSoC4/BLE_dis.c ****             }
 337:.\Generated_Source\PSoC4/BLE_dis.c ****         }
 338:.\Generated_Source\PSoC4/BLE_dis.c ****     }
 339:.\Generated_Source\PSoC4/BLE_dis.c **** }
 670              		.loc 1 339 0 is_stmt 1
 671 009e BD46     		mov	sp, r7
 672 00a0 06B0     		add	sp, sp, #24
 673              		@ sp needed
 674 00a2 80BD     		pop	{r7, pc}
 675              	.L53:
 676              		.align	2
ARM GAS  C:\Users\msuro\AppData\Local\Temp\ccXJ5Meg.s 			page 19


 677              	.L52:
 678 00a4 04000000 		.word	CyBle_DisApplCallback
 679 00a8 00000000 		.word	cyBle_discReqHandle
 680 00ac 00000000 		.word	cyBle_disc
 681 00b0 00000000 		.word	cyBle_eventHandlerFlag
 682              		.cfi_endproc
 683              	.LFE6:
 684              		.size	CyBle_DiscReadResponseEventHandler, .-CyBle_DiscReadResponseEventHandler
 685              		.section	.text.CyBle_DiscErrorResponseEventHandler,"ax",%progbits
 686              		.align	2
 687              		.global	CyBle_DiscErrorResponseEventHandler
 688              		.code	16
 689              		.thumb_func
 690              		.type	CyBle_DiscErrorResponseEventHandler, %function
 691              	CyBle_DiscErrorResponseEventHandler:
 692              	.LFB7:
 340:.\Generated_Source\PSoC4/BLE_dis.c **** 
 341:.\Generated_Source\PSoC4/BLE_dis.c **** 
 342:.\Generated_Source\PSoC4/BLE_dis.c **** /******************************************************************************
 343:.\Generated_Source\PSoC4/BLE_dis.c **** ##Function Name: CyBle_DiscErrorResponseEventHandler
 344:.\Generated_Source\PSoC4/BLE_dis.c **** *******************************************************************************
 345:.\Generated_Source\PSoC4/BLE_dis.c **** 
 346:.\Generated_Source\PSoC4/BLE_dis.c **** Summary:
 347:.\Generated_Source\PSoC4/BLE_dis.c ****  Handles the Error Response Event.
 348:.\Generated_Source\PSoC4/BLE_dis.c **** 
 349:.\Generated_Source\PSoC4/BLE_dis.c **** Parameters:
 350:.\Generated_Source\PSoC4/BLE_dis.c ****  *eventParam: the pointer to the data structure specified by the event.
 351:.\Generated_Source\PSoC4/BLE_dis.c **** 
 352:.\Generated_Source\PSoC4/BLE_dis.c **** Return:
 353:.\Generated_Source\PSoC4/BLE_dis.c ****  None
 354:.\Generated_Source\PSoC4/BLE_dis.c **** 
 355:.\Generated_Source\PSoC4/BLE_dis.c **** ******************************************************************************/
 356:.\Generated_Source\PSoC4/BLE_dis.c **** void CyBle_DiscErrorResponseEventHandler(const CYBLE_GATTC_ERR_RSP_PARAM_T *eventParam)
 357:.\Generated_Source\PSoC4/BLE_dis.c **** {
 693              		.loc 1 357 0
 694              		.cfi_startproc
 695 0000 80B5     		push	{r7, lr}
 696              		.cfi_def_cfa_offset 8
 697              		.cfi_offset 7, -8
 698              		.cfi_offset 14, -4
 699 0002 82B0     		sub	sp, sp, #8
 700              		.cfi_def_cfa_offset 16
 701 0004 00AF     		add	r7, sp, #0
 702              		.cfi_def_cfa_register 7
 703 0006 7860     		str	r0, [r7, #4]
 358:.\Generated_Source\PSoC4/BLE_dis.c ****     if((NULL != eventParam) && (CYBLE_GATT_INVALID_ATTR_HANDLE_VALUE != cyBle_discReqHandle))
 704              		.loc 1 358 0
 705 0008 7B68     		ldr	r3, [r7, #4]
 706 000a 002B     		cmp	r3, #0
 707 000c 06D0     		beq	.L54
 708              		.loc 1 358 0 is_stmt 0 discriminator 1
 709 000e 054B     		ldr	r3, .L56
 710 0010 1B88     		ldrh	r3, [r3]
 711 0012 002B     		cmp	r3, #0
 712 0014 02D0     		beq	.L54
 359:.\Generated_Source\PSoC4/BLE_dis.c ****     {
 360:.\Generated_Source\PSoC4/BLE_dis.c ****         cyBle_discReqHandle = CYBLE_GATT_INVALID_ATTR_HANDLE_VALUE;
ARM GAS  C:\Users\msuro\AppData\Local\Temp\ccXJ5Meg.s 			page 20


 713              		.loc 1 360 0 is_stmt 1
 714 0016 034B     		ldr	r3, .L56
 715 0018 0022     		mov	r2, #0
 716 001a 1A80     		strh	r2, [r3]
 717              	.L54:
 361:.\Generated_Source\PSoC4/BLE_dis.c ****     }
 362:.\Generated_Source\PSoC4/BLE_dis.c **** }
 718              		.loc 1 362 0
 719 001c BD46     		mov	sp, r7
 720 001e 02B0     		add	sp, sp, #8
 721              		@ sp needed
 722 0020 80BD     		pop	{r7, pc}
 723              	.L57:
 724 0022 C046     		.align	2
 725              	.L56:
 726 0024 00000000 		.word	cyBle_discReqHandle
 727              		.cfi_endproc
 728              	.LFE7:
 729              		.size	CyBle_DiscErrorResponseEventHandler, .-CyBle_DiscErrorResponseEventHandler
 730              		.text
 731              	.Letext0:
 732              		.file 2 ".\\Generated_Source\\PSoC4\\cytypes.h"
 733              		.file 3 ".\\Generated_Source\\PSoC4\\BLE_Stack.h"
 734              		.file 4 ".\\Generated_Source\\PSoC4\\BLE_StackGatt.h"
 735              		.file 5 ".\\Generated_Source\\PSoC4\\BLE_StackGattClient.h"
 736              		.file 6 ".\\Generated_Source\\PSoC4\\BLE.h"
 737              		.file 7 ".\\Generated_Source\\PSoC4\\BLE_gatt.h"
 738              		.file 8 ".\\Generated_Source\\PSoC4\\BLE_dis.h"
 739              		.file 9 ".\\Generated_Source\\PSoC4\\BLE_eventHandler.h"