ARM GAS  C:\Users\msuro\AppData\Local\Temp\ccpdUrTg.s 			page 1


   1              		.cpu cortex-m0
   2              		.fpu softvfp
   3              		.eabi_attribute 20, 1
   4              		.eabi_attribute 21, 1
   5              		.eabi_attribute 23, 3
   6              		.eabi_attribute 24, 1
   7              		.eabi_attribute 25, 1
   8              		.eabi_attribute 26, 1
   9              		.eabi_attribute 30, 6
  10              		.eabi_attribute 34, 0
  11              		.eabi_attribute 18, 4
  12              		.code	16
  13              		.file	"tps.c"
  14              		.text
  15              	.Ltext0:
  16              		.cfi_sections	.debug_frame
  17              		.section	.rodata
  18              		.align	2
  19              	.LC0:
  20 0000 54505320 		.ascii	"TPS notification enabled\015\000"
  20      6E6F7469 
  20      66696361 
  20      74696F6E 
  20      20656E61 
  21 001a 0000     		.align	2
  22              	.LC2:
  23 001c 54505320 		.ascii	"TPS notification disabled\015\000"
  23      6E6F7469 
  23      66696361 
  23      74696F6E 
  23      20646973 
  24              		.section	.text.TpsServiceAppEventHandler,"ax",%progbits
  25              		.align	2
  26              		.global	TpsServiceAppEventHandler
  27              		.code	16
  28              		.thumb_func
  29              		.type	TpsServiceAppEventHandler, %function
  30              	TpsServiceAppEventHandler:
  31              	.LFB35:
  32              		.file 1 ".\\tps.c"
   1:.\tps.c       **** /*******************************************************************************
   2:.\tps.c       **** * File Name: tps.c
   3:.\tps.c       **** *
   4:.\tps.c       **** * Description:
   5:.\tps.c       **** *  This file contains Tx Power Service callback handler function.
   6:.\tps.c       **** * 
   7:.\tps.c       **** ********************************************************************************
   8:.\tps.c       **** * Copyright 2014, Cypress Semiconductor Corporation.  All rights reserved.
   9:.\tps.c       **** * You may use this file only in accordance with the license, terms, conditions,
  10:.\tps.c       **** * disclaimers, and limitations in the end user license agreement accompanying
  11:.\tps.c       **** * the software package with which this file was provided.
  12:.\tps.c       **** *******************************************************************************/
  13:.\tps.c       **** 
  14:.\tps.c       **** #include <common.h>
  15:.\tps.c       **** #include <stdio.h>
  16:.\tps.c       **** 
  17:.\tps.c       **** 
ARM GAS  C:\Users\msuro\AppData\Local\Temp\ccpdUrTg.s 			page 2


  18:.\tps.c       **** /*******************************************************************************
  19:.\tps.c       **** * Function Name: TpsServiceAppEventHandler
  20:.\tps.c       **** ********************************************************************************
  21:.\tps.c       **** *
  22:.\tps.c       **** * Summary:
  23:.\tps.c       **** *  This is an event callback function to receive events from the BLE Component,
  24:.\tps.c       **** *  which are specific to Tx Power Service.
  25:.\tps.c       **** *
  26:.\tps.c       **** * Parameters:
  27:.\tps.c       **** *  uint8 event:       Write Command event from the CYBLE component.
  28:.\tps.c       **** *  void* eventParams: A structure instance of CYBLE_GATT_HANDLE_VALUE_PAIR_T
  29:.\tps.c       **** *                     type.
  30:.\tps.c       **** *
  31:.\tps.c       **** * Return:
  32:.\tps.c       **** *  None
  33:.\tps.c       **** *
  34:.\tps.c       **** *******************************************************************************/
  35:.\tps.c       **** void TpsServiceAppEventHandler(uint32 event, void *eventParam)
  36:.\tps.c       **** {
  33              		.loc 1 36 0
  34              		.cfi_startproc
  35 0000 80B5     		push	{r7, lr}
  36              		.cfi_def_cfa_offset 8
  37              		.cfi_offset 7, -8
  38              		.cfi_offset 14, -4
  39 0002 82B0     		sub	sp, sp, #8
  40              		.cfi_def_cfa_offset 16
  41 0004 00AF     		add	r7, sp, #0
  42              		.cfi_def_cfa_register 7
  43 0006 7860     		str	r0, [r7, #4]
  44 0008 3960     		str	r1, [r7]
  37:.\tps.c       ****     switch(event)
  45              		.loc 1 37 0
  46 000a 7B68     		ldr	r3, [r7, #4]
  47 000c B222     		mov	r2, #178
  48 000e FF32     		add	r2, r2, #255
  49 0010 9342     		cmp	r3, r2
  50 0012 04D0     		beq	.L3
  51 0014 D922     		mov	r2, #217
  52 0016 5200     		lsl	r2, r2, #1
  53 0018 9342     		cmp	r3, r2
  54 001a 05D0     		beq	.L4
  38:.\tps.c       ****     {
  39:.\tps.c       ****         /***************************************
  40:.\tps.c       ****         *        TPS Server events
  41:.\tps.c       ****         ***************************************/
  42:.\tps.c       ****         case CYBLE_EVT_TPSS_NOTIFICATION_ENABLED:
  43:.\tps.c       ****             printf("TPS notification enabled\r\n");
  44:.\tps.c       ****             break;
  45:.\tps.c       ****         case CYBLE_EVT_TPSS_NOTIFICATION_DISABLED:
  46:.\tps.c       ****             printf("TPS notification disabled\r\n");
  47:.\tps.c       ****             break;
  48:.\tps.c       ****         default:
  49:.\tps.c       ****             break;
  55              		.loc 1 49 0
  56 001c 09E0     		b	.L1
  57              	.L3:
ARM GAS  C:\Users\msuro\AppData\Local\Temp\ccpdUrTg.s 			page 3


  43:.\tps.c       ****             printf("TPS notification enabled\r\n");
  58              		.loc 1 43 0
  59 001e 064B     		ldr	r3, .L6
  60 0020 181C     		mov	r0, r3
  61 0022 FFF7FEFF 		bl	puts
  44:.\tps.c       ****             break;
  62              		.loc 1 44 0
  63 0026 04E0     		b	.L1
  64              	.L4:
  46:.\tps.c       ****             printf("TPS notification disabled\r\n");
  65              		.loc 1 46 0
  66 0028 044B     		ldr	r3, .L6+4
  67 002a 181C     		mov	r0, r3
  68 002c FFF7FEFF 		bl	puts
  47:.\tps.c       ****             break;
  69              		.loc 1 47 0
  70 0030 C046     		mov	r8, r8
  71              	.L1:
  50:.\tps.c       ****     }
  51:.\tps.c       **** }
  72              		.loc 1 51 0
  73 0032 BD46     		mov	sp, r7
  74 0034 02B0     		add	sp, sp, #8
  75              		@ sp needed
  76 0036 80BD     		pop	{r7, pc}
  77              	.L7:
  78              		.align	2
  79              	.L6:
  80 0038 00000000 		.word	.LC0
  81 003c 1C000000 		.word	.LC2
  82              		.cfi_endproc
  83              	.LFE35:
  84              		.size	TpsServiceAppEventHandler, .-TpsServiceAppEventHandler
  85              		.section	.text.ConvertTxPowerlevelToInt8,"ax",%progbits
  86              		.align	2
  87              		.global	ConvertTxPowerlevelToInt8
  88              		.code	16
  89              		.thumb_func
  90              		.type	ConvertTxPowerlevelToInt8, %function
  91              	ConvertTxPowerlevelToInt8:
  92              	.LFB36:
  52:.\tps.c       **** 
  53:.\tps.c       **** 
  54:.\tps.c       **** /*******************************************************************************
  55:.\tps.c       **** * Function Name: ConvertTxPowerlevelToInt8
  56:.\tps.c       **** ********************************************************************************
  57:.\tps.c       **** *
  58:.\tps.c       **** * Summary:
  59:.\tps.c       **** *  Converts Tx Power Level from CYBLE_BLESS_PWR_LVL_T to int8.
  60:.\tps.c       **** *
  61:.\tps.c       **** * Parameters:
  62:.\tps.c       **** *  CYBLE_BLESS_PWR_LVL_T pwrLevel: value to be converted to int8
  63:.\tps.c       **** *
  64:.\tps.c       **** * Return:
  65:.\tps.c       **** *   None
  66:.\tps.c       **** *
  67:.\tps.c       **** *******************************************************************************/
ARM GAS  C:\Users\msuro\AppData\Local\Temp\ccpdUrTg.s 			page 4


  68:.\tps.c       **** int ConvertTxPowerlevelToInt8(CYBLE_BLESS_PWR_LVL_T pwrLevel)
  69:.\tps.c       **** {
  93              		.loc 1 69 0
  94              		.cfi_startproc
  95 0000 80B5     		push	{r7, lr}
  96              		.cfi_def_cfa_offset 8
  97              		.cfi_offset 7, -8
  98              		.cfi_offset 14, -4
  99 0002 84B0     		sub	sp, sp, #16
 100              		.cfi_def_cfa_offset 24
 101 0004 00AF     		add	r7, sp, #0
 102              		.cfi_def_cfa_register 7
 103 0006 021C     		mov	r2, r0
 104 0008 FB1D     		add	r3, r7, #7
 105 000a 1A70     		strb	r2, [r3]
  70:.\tps.c       ****     int8 intPwrLevel = 0;
 106              		.loc 1 70 0
 107 000c 3B1C     		mov	r3, r7
 108 000e 0F33     		add	r3, r3, #15
 109 0010 0022     		mov	r2, #0
 110 0012 1A70     		strb	r2, [r3]
  71:.\tps.c       **** 
  72:.\tps.c       ****     switch (pwrLevel)
 111              		.loc 1 72 0
 112 0014 FB1D     		add	r3, r7, #7
 113 0016 1B78     		ldrb	r3, [r3]
 114 0018 082B     		cmp	r3, #8
 115 001a 2BD8     		bhi	.L21
 116 001c 9A00     		lsl	r2, r3, #2
 117 001e 1A4B     		ldr	r3, .L22
 118 0020 D318     		add	r3, r2, r3
 119 0022 1B68     		ldr	r3, [r3]
 120 0024 9F46     		mov	pc, r3
 121              		.section	.rodata
 122 0037 00       		.align	2
 123              	.L11:
 124 0038 74000000 		.word	.L21
 125 003c 26000000 		.word	.L10
 126 0040 30000000 		.word	.L12
 127 0044 3A000000 		.word	.L13
 128 0048 44000000 		.word	.L14
 129 004c 4E000000 		.word	.L15
 130 0050 58000000 		.word	.L16
 131 0054 62000000 		.word	.L17
 132 0058 6A000000 		.word	.L18
 133              		.section	.text.ConvertTxPowerlevelToInt8
 134              	.L10:
  73:.\tps.c       ****     {
  74:.\tps.c       ****         case CYBLE_LL_PWR_LVL_NEG_18_DBM:
  75:.\tps.c       ****             intPwrLevel = -18;
 135              		.loc 1 75 0
 136 0026 3B1C     		mov	r3, r7
 137 0028 0F33     		add	r3, r3, #15
 138 002a EE22     		mov	r2, #238
 139 002c 1A70     		strb	r2, [r3]
  76:.\tps.c       ****             break;
 140              		.loc 1 76 0
ARM GAS  C:\Users\msuro\AppData\Local\Temp\ccpdUrTg.s 			page 5


 141 002e 22E0     		b	.L19
 142              	.L12:
  77:.\tps.c       ****         case CYBLE_LL_PWR_LVL_NEG_12_DBM:
  78:.\tps.c       ****             intPwrLevel = -12;
 143              		.loc 1 78 0
 144 0030 3B1C     		mov	r3, r7
 145 0032 0F33     		add	r3, r3, #15
 146 0034 F422     		mov	r2, #244
 147 0036 1A70     		strb	r2, [r3]
  79:.\tps.c       ****             break;
 148              		.loc 1 79 0
 149 0038 1DE0     		b	.L19
 150              	.L13:
  80:.\tps.c       ****         case CYBLE_LL_PWR_LVL_NEG_6_DBM:
  81:.\tps.c       ****             intPwrLevel = -6;
 151              		.loc 1 81 0
 152 003a 3B1C     		mov	r3, r7
 153 003c 0F33     		add	r3, r3, #15
 154 003e FA22     		mov	r2, #250
 155 0040 1A70     		strb	r2, [r3]
  82:.\tps.c       ****             break;
 156              		.loc 1 82 0
 157 0042 18E0     		b	.L19
 158              	.L14:
  83:.\tps.c       ****         case CYBLE_LL_PWR_LVL_NEG_3_DBM:
  84:.\tps.c       ****             intPwrLevel = -3;
 159              		.loc 1 84 0
 160 0044 3B1C     		mov	r3, r7
 161 0046 0F33     		add	r3, r3, #15
 162 0048 FD22     		mov	r2, #253
 163 004a 1A70     		strb	r2, [r3]
  85:.\tps.c       ****             break;
 164              		.loc 1 85 0
 165 004c 13E0     		b	.L19
 166              	.L15:
  86:.\tps.c       ****         case CYBLE_LL_PWR_LVL_NEG_2_DBM:
  87:.\tps.c       ****             intPwrLevel = -2;
 167              		.loc 1 87 0
 168 004e 3B1C     		mov	r3, r7
 169 0050 0F33     		add	r3, r3, #15
 170 0052 FE22     		mov	r2, #254
 171 0054 1A70     		strb	r2, [r3]
  88:.\tps.c       ****             break;
 172              		.loc 1 88 0
 173 0056 0EE0     		b	.L19
 174              	.L16:
  89:.\tps.c       ****         case CYBLE_LL_PWR_LVL_NEG_1_DBM:
  90:.\tps.c       ****             intPwrLevel = -1;
 175              		.loc 1 90 0
 176 0058 3B1C     		mov	r3, r7
 177 005a 0F33     		add	r3, r3, #15
 178 005c FF22     		mov	r2, #255
 179 005e 1A70     		strb	r2, [r3]
  91:.\tps.c       ****             break;
 180              		.loc 1 91 0
 181 0060 09E0     		b	.L19
 182              	.L17:
ARM GAS  C:\Users\msuro\AppData\Local\Temp\ccpdUrTg.s 			page 6


  92:.\tps.c       ****         case CYBLE_LL_PWR_LVL_0_DBM:
  93:.\tps.c       ****             intPwrLevel = 0;
 183              		.loc 1 93 0
 184 0062 3B1C     		mov	r3, r7
 185 0064 0F33     		add	r3, r3, #15
 186 0066 0022     		mov	r2, #0
 187 0068 1A70     		strb	r2, [r3]
 188              	.L18:
  94:.\tps.c       ****         case CYBLE_LL_PWR_LVL_3_DBM:
  95:.\tps.c       ****             intPwrLevel=3;
 189              		.loc 1 95 0
 190 006a 3B1C     		mov	r3, r7
 191 006c 0F33     		add	r3, r3, #15
 192 006e 0322     		mov	r2, #3
 193 0070 1A70     		strb	r2, [r3]
  96:.\tps.c       ****             break;
 194              		.loc 1 96 0
 195 0072 00E0     		b	.L19
 196              	.L21:
  97:.\tps.c       **** 
  98:.\tps.c       ****         default:
  99:.\tps.c       ****             break;
 197              		.loc 1 99 0
 198 0074 C046     		mov	r8, r8
 199              	.L19:
 100:.\tps.c       ****     }
 101:.\tps.c       **** 
 102:.\tps.c       ****     return(intPwrLevel);
 200              		.loc 1 102 0
 201 0076 3B1C     		mov	r3, r7
 202 0078 0F33     		add	r3, r3, #15
 203 007a 1B78     		ldrb	r3, [r3]
 204 007c 5BB2     		sxtb	r3, r3
 103:.\tps.c       **** }
 205              		.loc 1 103 0
 206 007e 181C     		mov	r0, r3
 207 0080 BD46     		mov	sp, r7
 208 0082 04B0     		add	sp, sp, #16
 209              		@ sp needed
 210 0084 80BD     		pop	{r7, pc}
 211              	.L23:
 212 0086 C046     		.align	2
 213              	.L22:
 214 0088 38000000 		.word	.L11
 215              		.cfi_endproc
 216              	.LFE36:
 217              		.size	ConvertTxPowerlevelToInt8, .-ConvertTxPowerlevelToInt8
 218              		.section	.text.DecreaseTxPowerLevelValue,"ax",%progbits
 219              		.align	2
 220              		.global	DecreaseTxPowerLevelValue
 221              		.code	16
 222              		.thumb_func
 223              		.type	DecreaseTxPowerLevelValue, %function
 224              	DecreaseTxPowerLevelValue:
 225              	.LFB37:
 104:.\tps.c       **** 
 105:.\tps.c       **** 
ARM GAS  C:\Users\msuro\AppData\Local\Temp\ccpdUrTg.s 			page 7


 106:.\tps.c       **** /*******************************************************************************
 107:.\tps.c       **** * Function Name: DecreaseTxPowerLevelValue
 108:.\tps.c       **** ********************************************************************************
 109:.\tps.c       **** *
 110:.\tps.c       **** * Summary:
 111:.\tps.c       **** *  Decreases the Tx Power level by one scale lower.
 112:.\tps.c       **** *
 113:.\tps.c       **** * Parameters:
 114:.\tps.c       **** *   None
 115:.\tps.c       **** *
 116:.\tps.c       **** * Return:
 117:.\tps.c       **** *   None
 118:.\tps.c       **** *
 119:.\tps.c       **** *******************************************************************************/
 120:.\tps.c       **** void DecreaseTxPowerLevelValue(CYBLE_BLESS_PWR_LVL_T * pwrLevel)
 121:.\tps.c       **** {
 226              		.loc 1 121 0
 227              		.cfi_startproc
 228 0000 80B5     		push	{r7, lr}
 229              		.cfi_def_cfa_offset 8
 230              		.cfi_offset 7, -8
 231              		.cfi_offset 14, -4
 232 0002 82B0     		sub	sp, sp, #8
 233              		.cfi_def_cfa_offset 16
 234 0004 00AF     		add	r7, sp, #0
 235              		.cfi_def_cfa_register 7
 236 0006 7860     		str	r0, [r7, #4]
 122:.\tps.c       ****     switch (*pwrLevel)
 237              		.loc 1 122 0
 238 0008 7B68     		ldr	r3, [r7, #4]
 239 000a 1B78     		ldrb	r3, [r3]
 240 000c 082B     		cmp	r3, #8
 241 000e 24D8     		bhi	.L36
 242 0010 9A00     		lsl	r2, r3, #2
 243 0012 144B     		ldr	r3, .L37
 244 0014 D318     		add	r3, r2, r3
 245 0016 1B68     		ldr	r3, [r3]
 246 0018 9F46     		mov	pc, r3
 247              		.section	.rodata
 248              		.align	2
 249              	.L27:
 250 005c 5A000000 		.word	.L36
 251 0060 1A000000 		.word	.L26
 252 0064 22000000 		.word	.L28
 253 0068 2A000000 		.word	.L29
 254 006c 32000000 		.word	.L30
 255 0070 3A000000 		.word	.L31
 256 0074 42000000 		.word	.L32
 257 0078 4A000000 		.word	.L33
 258 007c 52000000 		.word	.L34
 259              		.section	.text.DecreaseTxPowerLevelValue
 260              	.L26:
 123:.\tps.c       ****     {
 124:.\tps.c       ****         case CYBLE_LL_PWR_LVL_NEG_18_DBM:
 125:.\tps.c       ****             *pwrLevel = CYBLE_LL_PWR_LVL_NEG_18_DBM;
 261              		.loc 1 125 0
 262 001a 7B68     		ldr	r3, [r7, #4]
ARM GAS  C:\Users\msuro\AppData\Local\Temp\ccpdUrTg.s 			page 8


 263 001c 0122     		mov	r2, #1
 264 001e 1A70     		strb	r2, [r3]
 126:.\tps.c       ****             break;
 265              		.loc 1 126 0
 266 0020 1CE0     		b	.L24
 267              	.L28:
 127:.\tps.c       ****         case CYBLE_LL_PWR_LVL_NEG_12_DBM:
 128:.\tps.c       ****             *pwrLevel = CYBLE_LL_PWR_LVL_NEG_18_DBM;
 268              		.loc 1 128 0
 269 0022 7B68     		ldr	r3, [r7, #4]
 270 0024 0122     		mov	r2, #1
 271 0026 1A70     		strb	r2, [r3]
 129:.\tps.c       ****             break;
 272              		.loc 1 129 0
 273 0028 18E0     		b	.L24
 274              	.L29:
 130:.\tps.c       ****         case CYBLE_LL_PWR_LVL_NEG_6_DBM:
 131:.\tps.c       ****             *pwrLevel = CYBLE_LL_PWR_LVL_NEG_12_DBM;
 275              		.loc 1 131 0
 276 002a 7B68     		ldr	r3, [r7, #4]
 277 002c 0222     		mov	r2, #2
 278 002e 1A70     		strb	r2, [r3]
 132:.\tps.c       ****             break;
 279              		.loc 1 132 0
 280 0030 14E0     		b	.L24
 281              	.L30:
 133:.\tps.c       ****         case CYBLE_LL_PWR_LVL_NEG_3_DBM:
 134:.\tps.c       ****             *pwrLevel = CYBLE_LL_PWR_LVL_NEG_6_DBM;
 282              		.loc 1 134 0
 283 0032 7B68     		ldr	r3, [r7, #4]
 284 0034 0322     		mov	r2, #3
 285 0036 1A70     		strb	r2, [r3]
 135:.\tps.c       ****             break;
 286              		.loc 1 135 0
 287 0038 10E0     		b	.L24
 288              	.L31:
 136:.\tps.c       ****         case CYBLE_LL_PWR_LVL_NEG_2_DBM:
 137:.\tps.c       ****             *pwrLevel = CYBLE_LL_PWR_LVL_NEG_3_DBM;
 289              		.loc 1 137 0
 290 003a 7B68     		ldr	r3, [r7, #4]
 291 003c 0422     		mov	r2, #4
 292 003e 1A70     		strb	r2, [r3]
 138:.\tps.c       ****             break;
 293              		.loc 1 138 0
 294 0040 0CE0     		b	.L24
 295              	.L32:
 139:.\tps.c       ****         case CYBLE_LL_PWR_LVL_NEG_1_DBM:
 140:.\tps.c       ****             *pwrLevel = CYBLE_LL_PWR_LVL_NEG_2_DBM;
 296              		.loc 1 140 0
 297 0042 7B68     		ldr	r3, [r7, #4]
 298 0044 0522     		mov	r2, #5
 299 0046 1A70     		strb	r2, [r3]
 141:.\tps.c       ****             break;
 300              		.loc 1 141 0
 301 0048 08E0     		b	.L24
 302              	.L33:
 142:.\tps.c       ****         case CYBLE_LL_PWR_LVL_0_DBM:
ARM GAS  C:\Users\msuro\AppData\Local\Temp\ccpdUrTg.s 			page 9


 143:.\tps.c       ****             *pwrLevel = CYBLE_LL_PWR_LVL_NEG_1_DBM;
 303              		.loc 1 143 0
 304 004a 7B68     		ldr	r3, [r7, #4]
 305 004c 0622     		mov	r2, #6
 306 004e 1A70     		strb	r2, [r3]
 144:.\tps.c       ****             break;
 307              		.loc 1 144 0
 308 0050 04E0     		b	.L24
 309              	.L34:
 145:.\tps.c       ****         case CYBLE_LL_PWR_LVL_3_DBM:
 146:.\tps.c       ****             *pwrLevel=CYBLE_LL_PWR_LVL_0_DBM;
 310              		.loc 1 146 0
 311 0052 7B68     		ldr	r3, [r7, #4]
 312 0054 0722     		mov	r2, #7
 313 0056 1A70     		strb	r2, [r3]
 147:.\tps.c       ****             break;
 314              		.loc 1 147 0
 315 0058 00E0     		b	.L24
 316              	.L36:
 148:.\tps.c       **** 
 149:.\tps.c       ****         default:
 150:.\tps.c       ****             break;
 317              		.loc 1 150 0
 318 005a C046     		mov	r8, r8
 319              	.L24:
 151:.\tps.c       ****     }
 152:.\tps.c       **** }
 320              		.loc 1 152 0
 321 005c BD46     		mov	sp, r7
 322 005e 02B0     		add	sp, sp, #8
 323              		@ sp needed
 324 0060 80BD     		pop	{r7, pc}
 325              	.L38:
 326 0062 C046     		.align	2
 327              	.L37:
 328 0064 5C000000 		.word	.L27
 329              		.cfi_endproc
 330              	.LFE37:
 331              		.size	DecreaseTxPowerLevelValue, .-DecreaseTxPowerLevelValue
 332              		.text
 333              	.Letext0:
 334              		.file 2 ".\\Generated_Source\\PSoC4/cytypes.h"
 335              		.file 3 ".\\Generated_Source\\PSoC4/BLE_Stack.h"
 336              		.file 4 ".\\Generated_Source\\PSoC4/BLE_eventHandler.h"