ARM GAS  C:\Users\msuro\AppData\Local\Temp\ccOjNMmK.s 			page 1


   1              		.cpu cortex-m0
   2              		.fpu softvfp
   3              		.eabi_attribute 20, 1
   4              		.eabi_attribute 21, 1
   5              		.eabi_attribute 23, 3
   6              		.eabi_attribute 24, 1
   7              		.eabi_attribute 25, 1
   8              		.eabi_attribute 26, 1
   9              		.eabi_attribute 30, 6
  10              		.eabi_attribute 34, 0
  11              		.eabi_attribute 18, 4
  12              		.code	16
  13              		.file	"BLE.c"
  14              		.text
  15              	.Ltext0:
  16              		.cfi_sections	.debug_frame
  17              		.global	cyBle_initVar
  18              		.bss
  19              		.type	cyBle_initVar, %object
  20              		.size	cyBle_initVar, 1
  21              	cyBle_initVar:
  22 0000 00       		.space	1
  23              		.comm	cyBle_connectionParameters,26,4
  24              		.comm	cyBle_connectingTimeout,2,2
  25              		.global	cyBle_discoveryInfo
  26              		.data
  27              		.align	2
  28              		.type	cyBle_discoveryInfo, %object
  29              		.size	cyBle_discoveryInfo, 12
  30              	cyBle_discoveryInfo:
  31 0000 02       		.byte	2
  32 0001 01       		.byte	1
  33 0002 3000     		.short	48
  34 0004 3000     		.short	48
  35 0006 00       		.byte	0
  36 0007 00       		.byte	0
  37 0008 1E00     		.short	30
  38 000a 01       		.byte	1
  39 000b 00       		.space	1
  40              		.comm	cyBle_pendingFlashWrite,1,1
  41              		.comm	CyBle_ApplCallback,4,4
  42              		.global	cyBle_deviceAddress
  43              		.align	2
  44              		.type	cyBle_deviceAddress, %object
  45              		.size	cyBle_deviceAddress, 7
  46              	cyBle_deviceAddress:
  47 000c 00       		.byte	0
  48 000d 00       		.byte	0
  49 000e 00       		.byte	0
  50 000f 50       		.byte	80
  51 0010 A0       		.byte	-96
  52 0011 00       		.byte	0
  53 0012 00       		.byte	0
  54              		.global	cyBle_sflashDeviceAddress
  55 0013 00       		.align	2
  56              		.type	cyBle_sflashDeviceAddress, %object
  57              		.size	cyBle_sflashDeviceAddress, 4
ARM GAS  C:\Users\msuro\AppData\Local\Temp\ccOjNMmK.s 			page 2


  58              	cyBle_sflashDeviceAddress:
  59 0014 00F2FF0F 		.word	268431872
  60              		.section	.text.CyBle_Init,"ax",%progbits
  61              		.align	2
  62              		.global	CyBle_Init
  63              		.code	16
  64              		.thumb_func
  65              		.type	CyBle_Init, %function
  66              	CyBle_Init:
  67              	.LFB2:
  68              		.file 1 ".\\Generated_Source\\PSoC4\\BLE.c"
   1:.\Generated_Source\PSoC4/BLE.c **** /*******************************************************************************
   2:.\Generated_Source\PSoC4/BLE.c **** File Name: CYBLE.c
   3:.\Generated_Source\PSoC4/BLE.c **** Version 1.20
   4:.\Generated_Source\PSoC4/BLE.c **** 
   5:.\Generated_Source\PSoC4/BLE.c **** Description:
   6:.\Generated_Source\PSoC4/BLE.c ****  This file contains the source code for the Common APIs of the BLE Component.
   7:.\Generated_Source\PSoC4/BLE.c **** 
   8:.\Generated_Source\PSoC4/BLE.c **** ********************************************************************************
   9:.\Generated_Source\PSoC4/BLE.c **** Copyright 2014-2015, Cypress Semiconductor Corporation.  All rights reserved.
  10:.\Generated_Source\PSoC4/BLE.c **** You may use this file only in accordance with the license, terms, conditions,
  11:.\Generated_Source\PSoC4/BLE.c **** disclaimers, and limitations in the end user license agreement accompanying
  12:.\Generated_Source\PSoC4/BLE.c **** the software package with which this file was provided.
  13:.\Generated_Source\PSoC4/BLE.c **** *******************************************************************************/
  14:.\Generated_Source\PSoC4/BLE.c **** 
  15:.\Generated_Source\PSoC4/BLE.c **** #include "BLE_eventHandler.h"
  16:.\Generated_Source\PSoC4/BLE.c **** #include "BLE_HAL_PVT.h"
  17:.\Generated_Source\PSoC4/BLE.c **** 
  18:.\Generated_Source\PSoC4/BLE.c **** 
  19:.\Generated_Source\PSoC4/BLE.c **** /***************************************
  20:.\Generated_Source\PSoC4/BLE.c **** ##Function Prototypes
  21:.\Generated_Source\PSoC4/BLE.c **** ***************************************/
  22:.\Generated_Source\PSoC4/BLE.c **** 
  23:.\Generated_Source\PSoC4/BLE.c **** #if(CYBLE_GATT_ROLE_SERVER)
  24:.\Generated_Source\PSoC4/BLE.c ****     #if(CYBLE_GAP_ROLE_PERIPHERAL)
  25:.\Generated_Source\PSoC4/BLE.c ****         static void CyBle_ChangeAdLocalName(const char8 name[], uint8 dest);
  26:.\Generated_Source\PSoC4/BLE.c ****     #endif /* (CYBLE_GAP_ROLE_PERIPHERAL) */
  27:.\Generated_Source\PSoC4/BLE.c **** #endif /* (CYBLE_GATT_ROLE_SERVER) */
  28:.\Generated_Source\PSoC4/BLE.c ****     
  29:.\Generated_Source\PSoC4/BLE.c **** 
  30:.\Generated_Source\PSoC4/BLE.c **** /***************************************
  31:.\Generated_Source\PSoC4/BLE.c **** ##Global Variables
  32:.\Generated_Source\PSoC4/BLE.c **** ***************************************/
  33:.\Generated_Source\PSoC4/BLE.c **** 
  34:.\Generated_Source\PSoC4/BLE.c **** /* Indicates whether the BLE has been initialized. The variable is initialized to
  35:.\Generated_Source\PSoC4/BLE.c ****    0 and set to 1 the first time CyBle_Start() is called. This allows the component
  36:.\Generated_Source\PSoC4/BLE.c ****    to restart without reinitialization after the first call to the CyBle_Start() 
  37:.\Generated_Source\PSoC4/BLE.c ****    routine. If reinitialization of the component is required, the variable should 
  38:.\Generated_Source\PSoC4/BLE.c ****    be set to 0 before the CyBle_Start() routine is called. Alternatively, the BLE
  39:.\Generated_Source\PSoC4/BLE.c ****    can be reinitialized by calling the CyBle_Init() function.
  40:.\Generated_Source\PSoC4/BLE.c **** */
  41:.\Generated_Source\PSoC4/BLE.c **** uint8  cyBle_initVar = 0u;
  42:.\Generated_Source\PSoC4/BLE.c **** 
  43:.\Generated_Source\PSoC4/BLE.c **** #if(CYBLE_GAP_ROLE_PERIPHERAL || CYBLE_GAP_ROLE_BROADCASTER)
  44:.\Generated_Source\PSoC4/BLE.c **** 
  45:.\Generated_Source\PSoC4/BLE.c **** 
  46:.\Generated_Source\PSoC4/BLE.c **** 
ARM GAS  C:\Users\msuro\AppData\Local\Temp\ccOjNMmK.s 			page 3


  47:.\Generated_Source\PSoC4/BLE.c **** #endif /* CYBLE_GAP_ROLE_PERIPHERAL || CYBLE_GAP_ROLE_BROADCASTER */
  48:.\Generated_Source\PSoC4/BLE.c **** 
  49:.\Generated_Source\PSoC4/BLE.c **** #if(CYBLE_GAP_ROLE_CENTRAL)
  50:.\Generated_Source\PSoC4/BLE.c ****     
  51:.\Generated_Source\PSoC4/BLE.c **** CYBLE_GAPC_CONN_PARAM_T cyBle_connectionParameters;
  52:.\Generated_Source\PSoC4/BLE.c **** 
  53:.\Generated_Source\PSoC4/BLE.c **** /* Connecting timeout is set to 30 seconds in CyBle_Init function. 
  54:.\Generated_Source\PSoC4/BLE.c ****    Not zero value starts timer in CyBle_GapcConnectDevice API.
  55:.\Generated_Source\PSoC4/BLE.c **** */
  56:.\Generated_Source\PSoC4/BLE.c **** uint16 cyBle_connectingTimeout;
  57:.\Generated_Source\PSoC4/BLE.c ****     
  58:.\Generated_Source\PSoC4/BLE.c **** #endif /* CYBLE_GAP_ROLE_CENTRAL */
  59:.\Generated_Source\PSoC4/BLE.c **** 
  60:.\Generated_Source\PSoC4/BLE.c **** #if(CYBLE_GAP_ROLE_CENTRAL || CYBLE_GAP_ROLE_OBSERVER)
  61:.\Generated_Source\PSoC4/BLE.c ****     
  62:.\Generated_Source\PSoC4/BLE.c **** /* This variable of type CYBLE_GAPC_DISC_INFO_T is present only when  
  63:.\Generated_Source\PSoC4/BLE.c ****    the BLE component is configured for Central GAP role or Central and  
  64:.\Generated_Source\PSoC4/BLE.c ****    Peripheral GAP role. It contains the Scan settings entered in the  
  65:.\Generated_Source\PSoC4/BLE.c ****    customizer. This variable can be used by advanced users to change Scan  
  66:.\Generated_Source\PSoC4/BLE.c ****    settings in runtime.
  67:.\Generated_Source\PSoC4/BLE.c **** */
  68:.\Generated_Source\PSoC4/BLE.c **** CYBLE_GAPC_DISC_INFO_T cyBle_discoveryInfo =
  69:.\Generated_Source\PSoC4/BLE.c **** {
  70:.\Generated_Source\PSoC4/BLE.c ****     0x02u,      /* discProcedure */
  71:.\Generated_Source\PSoC4/BLE.c ****     0x01u,      /* scanType */
  72:.\Generated_Source\PSoC4/BLE.c ****     0x0030u,    /* scanInterval */
  73:.\Generated_Source\PSoC4/BLE.c ****     0x0030u,    /* scanWindow */
  74:.\Generated_Source\PSoC4/BLE.c ****     0x00u,      /* ownAddrType */
  75:.\Generated_Source\PSoC4/BLE.c ****     0x00u,      /* scanFilterPolicy */
  76:.\Generated_Source\PSoC4/BLE.c ****     0x001Eu,    /* scanTO */
  77:.\Generated_Source\PSoC4/BLE.c ****     0x01u,      /* filterDuplicates */
  78:.\Generated_Source\PSoC4/BLE.c **** };
  79:.\Generated_Source\PSoC4/BLE.c ****     
  80:.\Generated_Source\PSoC4/BLE.c **** #endif /* CYBLE_GAP_ROLE_CENTRAL || CYBLE_GAP_ROLE_OBSERVER */
  81:.\Generated_Source\PSoC4/BLE.c **** 
  82:.\Generated_Source\PSoC4/BLE.c **** #if((CYBLE_GAP_ROLE_PERIPHERAL || CYBLE_GAP_ROLE_CENTRAL) && (CYBLE_BONDING_REQUIREMENT == CYBLE_BO
  83:.\Generated_Source\PSoC4/BLE.c **** 
  84:.\Generated_Source\PSoC4/BLE.c **** uint8 cyBle_pendingFlashWrite;
  85:.\Generated_Source\PSoC4/BLE.c ****     
  86:.\Generated_Source\PSoC4/BLE.c **** #endif  /* (CYBLE_BONDING_REQUIREMENT == CYBLE_BONDING_YES) */
  87:.\Generated_Source\PSoC4/BLE.c **** 
  88:.\Generated_Source\PSoC4/BLE.c **** CYBLE_CALLBACK_T CyBle_ApplCallback;
  89:.\Generated_Source\PSoC4/BLE.c **** CYBLE_GAP_BD_ADDR_T cyBle_deviceAddress = {{0x00u, 0x00u, 0x00u, 0x50u, 0xA0u, 0x00u}, 0x00u };
  90:.\Generated_Source\PSoC4/BLE.c **** CYBLE_GAP_BD_ADDR_T * cyBle_sflashDeviceAddress = CYBLE_SFLASH_DEVICE_ADDRESS_PTR;
  91:.\Generated_Source\PSoC4/BLE.c **** 
  92:.\Generated_Source\PSoC4/BLE.c **** 
  93:.\Generated_Source\PSoC4/BLE.c **** /******************************************************************************
  94:.\Generated_Source\PSoC4/BLE.c **** ##Function Name: CyBle_Init
  95:.\Generated_Source\PSoC4/BLE.c **** *******************************************************************************
  96:.\Generated_Source\PSoC4/BLE.c ****  Summary:
  97:.\Generated_Source\PSoC4/BLE.c ****   Initializes the component with the parameters set in the customizer.
  98:.\Generated_Source\PSoC4/BLE.c **** 
  99:.\Generated_Source\PSoC4/BLE.c ****  Parameters:
 100:.\Generated_Source\PSoC4/BLE.c ****   None
 101:.\Generated_Source\PSoC4/BLE.c **** 
 102:.\Generated_Source\PSoC4/BLE.c ****  Return:
 103:.\Generated_Source\PSoC4/BLE.c ****   None
ARM GAS  C:\Users\msuro\AppData\Local\Temp\ccOjNMmK.s 			page 4


 104:.\Generated_Source\PSoC4/BLE.c **** 
 105:.\Generated_Source\PSoC4/BLE.c **** ******************************************************************************/
 106:.\Generated_Source\PSoC4/BLE.c **** void CyBle_Init(void)
 107:.\Generated_Source\PSoC4/BLE.c **** {
  69              		.loc 1 107 0
  70              		.cfi_startproc
  71 0000 80B5     		push	{r7, lr}
  72              		.cfi_def_cfa_offset 8
  73              		.cfi_offset 7, -8
  74              		.cfi_offset 14, -4
  75 0002 00AF     		add	r7, sp, #0
  76              		.cfi_def_cfa_register 7
 108:.\Generated_Source\PSoC4/BLE.c ****     cyBle_eventHandlerFlag = 0u;
  77              		.loc 1 108 0
  78 0004 1A4B     		ldr	r3, .L2
  79 0006 0022     		mov	r2, #0
  80 0008 1A70     		strb	r2, [r3]
 109:.\Generated_Source\PSoC4/BLE.c ****     cyBle_busyStatus = CYBLE_STACK_STATE_FREE;
  81              		.loc 1 109 0
  82 000a 1A4B     		ldr	r3, .L2+4
  83 000c 0022     		mov	r2, #0
  84 000e 1A70     		strb	r2, [r3]
 110:.\Generated_Source\PSoC4/BLE.c ****     
 111:.\Generated_Source\PSoC4/BLE.c ****     #if(CYBLE_GAP_ROLE_PERIPHERAL || CYBLE_GAP_ROLE_BROADCASTER) 
 112:.\Generated_Source\PSoC4/BLE.c ****         cyBle_advertisingIntervalType = CYBLE_ADVERTISING_FAST; 
 113:.\Generated_Source\PSoC4/BLE.c ****     #endif /* (CYBLE_GAP_ROLE_PERIPHERAL || CYBLE_GAP_ROLE_BROADCASTER)  */
 114:.\Generated_Source\PSoC4/BLE.c ****     #if(CYBLE_GAP_ROLE_CENTRAL || CYBLE_GAP_ROLE_OBSERVER)
 115:.\Generated_Source\PSoC4/BLE.c ****         cyBle_scanningIntervalType = CYBLE_SCANNING_FAST; 
  85              		.loc 1 115 0
  86 0010 194B     		ldr	r3, .L2+8
  87 0012 0022     		mov	r2, #0
  88 0014 1A70     		strb	r2, [r3]
 116:.\Generated_Source\PSoC4/BLE.c ****     #endif /* (CYBLE_GAP_ROLE_CENTRAL || CYBLE_GAP_ROLE_OBSERVER) */
 117:.\Generated_Source\PSoC4/BLE.c ****         
 118:.\Generated_Source\PSoC4/BLE.c ****     /* Init default connection parameters. 
 119:.\Generated_Source\PSoC4/BLE.c ****        Application may change it before initiating a connection */
 120:.\Generated_Source\PSoC4/BLE.c ****     #if(CYBLE_GAP_ROLE_CENTRAL)
 121:.\Generated_Source\PSoC4/BLE.c ****         cyBle_connectionParameters.scanIntv = cyBle_discoveryInfo.scanIntv;
  89              		.loc 1 121 0
  90 0016 194B     		ldr	r3, .L2+12
  91 0018 5A88     		ldrh	r2, [r3, #2]
  92 001a 194B     		ldr	r3, .L2+16
  93 001c 1A80     		strh	r2, [r3]
 122:.\Generated_Source\PSoC4/BLE.c ****         cyBle_connectionParameters.scanWindow = cyBle_discoveryInfo.scanWindow;
  94              		.loc 1 122 0
  95 001e 174B     		ldr	r3, .L2+12
  96 0020 9A88     		ldrh	r2, [r3, #4]
  97 0022 174B     		ldr	r3, .L2+16
  98 0024 5A80     		strh	r2, [r3, #2]
 123:.\Generated_Source\PSoC4/BLE.c ****         cyBle_connectionParameters.ownAddrType = cyBle_discoveryInfo.ownAddrType;
  99              		.loc 1 123 0
 100 0026 154B     		ldr	r3, .L2+12
 101 0028 9A79     		ldrb	r2, [r3, #6]
 102 002a 154B     		ldr	r3, .L2+16
 103 002c 1A73     		strb	r2, [r3, #12]
 124:.\Generated_Source\PSoC4/BLE.c ****         cyBle_connectionParameters.initiatorFilterPolicy = cyBle_discoveryInfo.scanFilterPolicy;
 104              		.loc 1 124 0
ARM GAS  C:\Users\msuro\AppData\Local\Temp\ccOjNMmK.s 			page 5


 105 002e 134B     		ldr	r3, .L2+12
 106 0030 DA79     		ldrb	r2, [r3, #7]
 107 0032 134B     		ldr	r3, .L2+16
 108 0034 1A71     		strb	r2, [r3, #4]
 125:.\Generated_Source\PSoC4/BLE.c ****         cyBle_connectionParameters.connIntvMin = CYBLE_GAPC_CONNECTION_INTERVAL_MIN;
 109              		.loc 1 125 0
 110 0036 124B     		ldr	r3, .L2+16
 111 0038 0622     		mov	r2, #6
 112 003a DA81     		strh	r2, [r3, #14]
 126:.\Generated_Source\PSoC4/BLE.c ****         cyBle_connectionParameters.connIntvMax = CYBLE_GAPC_CONNECTION_INTERVAL_MAX;
 113              		.loc 1 126 0
 114 003c 104B     		ldr	r3, .L2+16
 115 003e 2822     		mov	r2, #40
 116 0040 1A82     		strh	r2, [r3, #16]
 127:.\Generated_Source\PSoC4/BLE.c ****         cyBle_connectionParameters.connLatency = CYBLE_GAPC_CONNECTION_SLAVE_LATENCY;
 117              		.loc 1 127 0
 118 0042 0F4B     		ldr	r3, .L2+16
 119 0044 0022     		mov	r2, #0
 120 0046 5A82     		strh	r2, [r3, #18]
 128:.\Generated_Source\PSoC4/BLE.c ****         cyBle_connectionParameters.supervisionTO = CYBLE_GAPC_CONNECTION_TIME_OUT;
 121              		.loc 1 128 0
 122 0048 0D4B     		ldr	r3, .L2+16
 123 004a 6422     		mov	r2, #100
 124 004c 9A82     		strh	r2, [r3, #20]
 129:.\Generated_Source\PSoC4/BLE.c ****         cyBle_connectionParameters.minCeLength = 0x0000u;
 125              		.loc 1 129 0
 126 004e 0C4B     		ldr	r3, .L2+16
 127 0050 0022     		mov	r2, #0
 128 0052 DA82     		strh	r2, [r3, #22]
 130:.\Generated_Source\PSoC4/BLE.c ****         cyBle_connectionParameters.maxCeLength = 0xFFFFu;
 129              		.loc 1 130 0
 130 0054 0A4B     		ldr	r3, .L2+16
 131 0056 0122     		mov	r2, #1
 132 0058 5242     		neg	r2, r2
 133 005a 1A83     		strh	r2, [r3, #24]
 131:.\Generated_Source\PSoC4/BLE.c ****         
 132:.\Generated_Source\PSoC4/BLE.c ****         cyBle_connectingTimeout = CYBLE_GAPC_CONNECTING_TIMEOUT;
 134              		.loc 1 132 0
 135 005c 094B     		ldr	r3, .L2+20
 136 005e 1E22     		mov	r2, #30
 137 0060 1A80     		strh	r2, [r3]
 133:.\Generated_Source\PSoC4/BLE.c ****     #endif /* CYBLE_GAP_ROLE_CENTRAL */
 134:.\Generated_Source\PSoC4/BLE.c **** 
 135:.\Generated_Source\PSoC4/BLE.c ****     CyBle_ServiceInit();
 138              		.loc 1 135 0
 139 0062 FFF7FEFF 		bl	CyBle_ServiceInit
 136:.\Generated_Source\PSoC4/BLE.c **** 
 137:.\Generated_Source\PSoC4/BLE.c **** #if((CYBLE_GAP_ROLE_PERIPHERAL || CYBLE_GAP_ROLE_CENTRAL) && (CYBLE_BONDING_REQUIREMENT == CYBLE_BO
 138:.\Generated_Source\PSoC4/BLE.c ****     cyBle_pendingFlashWrite = 0u;
 140              		.loc 1 138 0
 141 0066 084B     		ldr	r3, .L2+24
 142 0068 0022     		mov	r2, #0
 143 006a 1A70     		strb	r2, [r3]
 139:.\Generated_Source\PSoC4/BLE.c **** #endif  /* (CYBLE_BONDING_REQUIREMENT == CYBLE_BONDING_YES) */
 140:.\Generated_Source\PSoC4/BLE.c **** 
 141:.\Generated_Source\PSoC4/BLE.c **** }
 144              		.loc 1 141 0
ARM GAS  C:\Users\msuro\AppData\Local\Temp\ccOjNMmK.s 			page 6


 145 006c BD46     		mov	sp, r7
 146              		@ sp needed
 147 006e 80BD     		pop	{r7, pc}
 148              	.L3:
 149              		.align	2
 150              	.L2:
 151 0070 00000000 		.word	cyBle_eventHandlerFlag
 152 0074 00000000 		.word	cyBle_busyStatus
 153 0078 00000000 		.word	cyBle_scanningIntervalType
 154 007c 00000000 		.word	cyBle_discoveryInfo
 155 0080 00000000 		.word	cyBle_connectionParameters
 156 0084 00000000 		.word	cyBle_connectingTimeout
 157 0088 00000000 		.word	cyBle_pendingFlashWrite
 158              		.cfi_endproc
 159              	.LFE2:
 160              		.size	CyBle_Init, .-CyBle_Init
 161              		.section	.text.CyBle_ServiceInit,"ax",%progbits
 162              		.align	2
 163              		.global	CyBle_ServiceInit
 164              		.code	16
 165              		.thumb_func
 166              		.type	CyBle_ServiceInit, %function
 167              	CyBle_ServiceInit:
 168              	.LFB3:
 142:.\Generated_Source\PSoC4/BLE.c **** 
 143:.\Generated_Source\PSoC4/BLE.c **** 
 144:.\Generated_Source\PSoC4/BLE.c **** /******************************************************************************
 145:.\Generated_Source\PSoC4/BLE.c **** ##Function Name: CyBle_ServiceInit
 146:.\Generated_Source\PSoC4/BLE.c **** *******************************************************************************
 147:.\Generated_Source\PSoC4/BLE.c **** 
 148:.\Generated_Source\PSoC4/BLE.c **** Summary:
 149:.\Generated_Source\PSoC4/BLE.c ****  Initializes all included services.
 150:.\Generated_Source\PSoC4/BLE.c **** 
 151:.\Generated_Source\PSoC4/BLE.c **** Parameters:
 152:.\Generated_Source\PSoC4/BLE.c ****  None
 153:.\Generated_Source\PSoC4/BLE.c **** 
 154:.\Generated_Source\PSoC4/BLE.c **** Return:
 155:.\Generated_Source\PSoC4/BLE.c ****  None
 156:.\Generated_Source\PSoC4/BLE.c **** 
 157:.\Generated_Source\PSoC4/BLE.c **** ******************************************************************************/
 158:.\Generated_Source\PSoC4/BLE.c **** void CyBle_ServiceInit(void)
 159:.\Generated_Source\PSoC4/BLE.c **** {
 169              		.loc 1 159 0
 170              		.cfi_startproc
 171 0000 80B5     		push	{r7, lr}
 172              		.cfi_def_cfa_offset 8
 173              		.cfi_offset 7, -8
 174              		.cfi_offset 14, -4
 175 0002 00AF     		add	r7, sp, #0
 176              		.cfi_def_cfa_register 7
 160:.\Generated_Source\PSoC4/BLE.c ****     #if(CYBLE_GATT_ROLE_CLIENT)
 161:.\Generated_Source\PSoC4/BLE.c ****         (void)memset(&cyBle_gapc, 0, sizeof(cyBle_gapc));
 177              		.loc 1 161 0
 178 0004 084B     		ldr	r3, .L5
 179 0006 181C     		mov	r0, r3
 180 0008 0021     		mov	r1, #0
 181 000a 0A22     		mov	r2, #10
ARM GAS  C:\Users\msuro\AppData\Local\Temp\ccOjNMmK.s 			page 7


 182 000c FFF7FEFF 		bl	memset
 162:.\Generated_Source\PSoC4/BLE.c ****         (void)memset(&cyBle_gattc, 0, sizeof(cyBle_gattc));
 183              		.loc 1 162 0
 184 0010 064B     		ldr	r3, .L5+4
 185 0012 181C     		mov	r0, r3
 186 0014 0021     		mov	r1, #0
 187 0016 0622     		mov	r2, #6
 188 0018 FFF7FEFF 		bl	memset
 163:.\Generated_Source\PSoC4/BLE.c ****     #endif /* CYBLE_GATT_ROLE_CLIENT */
 164:.\Generated_Source\PSoC4/BLE.c ****     
 165:.\Generated_Source\PSoC4/BLE.c ****     #ifdef CYBLE_ANS
 166:.\Generated_Source\PSoC4/BLE.c ****         CyBle_AnsInit();
 167:.\Generated_Source\PSoC4/BLE.c ****     #endif /* CYBLE_ANS */
 168:.\Generated_Source\PSoC4/BLE.c ****     
 169:.\Generated_Source\PSoC4/BLE.c ****     #ifdef CYBLE_BAS
 170:.\Generated_Source\PSoC4/BLE.c ****         CyBle_BasInit();
 171:.\Generated_Source\PSoC4/BLE.c ****     #endif /* CYBLE_BAS */
 172:.\Generated_Source\PSoC4/BLE.c ****     
 173:.\Generated_Source\PSoC4/BLE.c ****     #ifdef CYBLE_BLS
 174:.\Generated_Source\PSoC4/BLE.c ****         CyBle_BlsInit();
 175:.\Generated_Source\PSoC4/BLE.c ****     #endif /* CYBLE_BLS */
 176:.\Generated_Source\PSoC4/BLE.c ****     
 177:.\Generated_Source\PSoC4/BLE.c ****     #ifdef CYBLE_CGMS
 178:.\Generated_Source\PSoC4/BLE.c ****         CyBle_CgmsInit();
 179:.\Generated_Source\PSoC4/BLE.c ****     #endif /* CYBLE_CGMS */
 180:.\Generated_Source\PSoC4/BLE.c **** 
 181:.\Generated_Source\PSoC4/BLE.c ****     #ifdef CYBLE_CPS
 182:.\Generated_Source\PSoC4/BLE.c ****         CyBle_CpsInit();
 183:.\Generated_Source\PSoC4/BLE.c ****     #endif /* CYBLE_CPS */
 184:.\Generated_Source\PSoC4/BLE.c **** 
 185:.\Generated_Source\PSoC4/BLE.c ****     #ifdef CYBLE_CSCS
 186:.\Generated_Source\PSoC4/BLE.c ****         CyBle_CscsInit();
 187:.\Generated_Source\PSoC4/BLE.c ****     #endif /* CYBLE_CSCS */
 188:.\Generated_Source\PSoC4/BLE.c ****     
 189:.\Generated_Source\PSoC4/BLE.c ****     #ifdef CYBLE_CTS
 190:.\Generated_Source\PSoC4/BLE.c ****         CyBle_CtsInit();
 191:.\Generated_Source\PSoC4/BLE.c ****     #endif /* CYBLE_CTS */
 192:.\Generated_Source\PSoC4/BLE.c **** 
 193:.\Generated_Source\PSoC4/BLE.c ****     #ifdef CYBLE_DIS
 194:.\Generated_Source\PSoC4/BLE.c ****         CyBle_DisInit();
 189              		.loc 1 194 0
 190 001c FFF7FEFF 		bl	CyBle_DisInit
 195:.\Generated_Source\PSoC4/BLE.c ****     #endif /* CYBLE_DIS */
 196:.\Generated_Source\PSoC4/BLE.c **** 
 197:.\Generated_Source\PSoC4/BLE.c ****     #ifdef CYBLE_GLS
 198:.\Generated_Source\PSoC4/BLE.c ****         CyBle_GlsInit();
 199:.\Generated_Source\PSoC4/BLE.c ****     #endif /* CYBLE_GLS */
 200:.\Generated_Source\PSoC4/BLE.c ****     
 201:.\Generated_Source\PSoC4/BLE.c ****     #ifdef CYBLE_HIDS
 202:.\Generated_Source\PSoC4/BLE.c ****         CyBle_HidsInit();
 203:.\Generated_Source\PSoC4/BLE.c ****     #endif /* CYBLE_HIDS */
 204:.\Generated_Source\PSoC4/BLE.c **** 
 205:.\Generated_Source\PSoC4/BLE.c ****     #ifdef CYBLE_HRS
 206:.\Generated_Source\PSoC4/BLE.c ****         CyBle_HrsInit();
 207:.\Generated_Source\PSoC4/BLE.c ****     #endif /* CYBLE_HRS */
 208:.\Generated_Source\PSoC4/BLE.c ****     
 209:.\Generated_Source\PSoC4/BLE.c ****     #ifdef CYBLE_HTS
ARM GAS  C:\Users\msuro\AppData\Local\Temp\ccOjNMmK.s 			page 8


 210:.\Generated_Source\PSoC4/BLE.c ****         CyBle_HtsInit();
 211:.\Generated_Source\PSoC4/BLE.c ****     #endif /* CYBLE_RSCS */
 212:.\Generated_Source\PSoC4/BLE.c **** 
 213:.\Generated_Source\PSoC4/BLE.c ****     #ifdef CYBLE_IAS
 214:.\Generated_Source\PSoC4/BLE.c ****         CyBle_IasInit();
 215:.\Generated_Source\PSoC4/BLE.c ****     #endif /* CYBLE_IAS */
 216:.\Generated_Source\PSoC4/BLE.c **** 
 217:.\Generated_Source\PSoC4/BLE.c ****     #ifdef CYBLE_LLS
 218:.\Generated_Source\PSoC4/BLE.c ****         CyBle_LlsInit();
 219:.\Generated_Source\PSoC4/BLE.c ****     #endif /* CYBLE_LLS */
 220:.\Generated_Source\PSoC4/BLE.c **** 
 221:.\Generated_Source\PSoC4/BLE.c ****     #ifdef CYBLE_RTUS
 222:.\Generated_Source\PSoC4/BLE.c ****         CyBle_RtusInit();
 223:.\Generated_Source\PSoC4/BLE.c ****     #endif /* CYBLE_RTUS */
 224:.\Generated_Source\PSoC4/BLE.c **** 
 225:.\Generated_Source\PSoC4/BLE.c ****     #ifdef CYBLE_LNS
 226:.\Generated_Source\PSoC4/BLE.c ****         CyBle_LnsInit();
 227:.\Generated_Source\PSoC4/BLE.c ****     #endif /* CYBLE_LNS */
 228:.\Generated_Source\PSoC4/BLE.c ****     
 229:.\Generated_Source\PSoC4/BLE.c ****     #ifdef CYBLE_PASS
 230:.\Generated_Source\PSoC4/BLE.c ****         CyBle_PassInit();
 231:.\Generated_Source\PSoC4/BLE.c ****     #endif /* CYBLE_PASS */
 232:.\Generated_Source\PSoC4/BLE.c ****     
 233:.\Generated_Source\PSoC4/BLE.c ****     #ifdef CYBLE_RSCS
 234:.\Generated_Source\PSoC4/BLE.c ****         CyBle_RscsInit();
 235:.\Generated_Source\PSoC4/BLE.c ****     #endif /* CYBLE_RSCS */
 236:.\Generated_Source\PSoC4/BLE.c **** 
 237:.\Generated_Source\PSoC4/BLE.c ****     #ifdef CYBLE_SCPS
 238:.\Generated_Source\PSoC4/BLE.c ****         CyBle_ScpsInit();
 239:.\Generated_Source\PSoC4/BLE.c ****     #endif /* CYBLE_SCPS */
 240:.\Generated_Source\PSoC4/BLE.c ****     
 241:.\Generated_Source\PSoC4/BLE.c ****     #ifdef CYBLE_TPS
 242:.\Generated_Source\PSoC4/BLE.c ****         CyBle_TpsInit();
 191              		.loc 1 242 0
 192 0020 FFF7FEFF 		bl	CyBle_TpsInit
 243:.\Generated_Source\PSoC4/BLE.c ****     #endif /* CYBLE_TPS */
 244:.\Generated_Source\PSoC4/BLE.c ****     
 245:.\Generated_Source\PSoC4/BLE.c ****     #ifdef CYBLE_UDS
 246:.\Generated_Source\PSoC4/BLE.c ****         CyBle_UdsInit();
 247:.\Generated_Source\PSoC4/BLE.c ****     #endif /* CYBLE_UDS */
 248:.\Generated_Source\PSoC4/BLE.c **** }
 193              		.loc 1 248 0
 194 0024 BD46     		mov	sp, r7
 195              		@ sp needed
 196 0026 80BD     		pop	{r7, pc}
 197              	.L6:
 198              		.align	2
 199              	.L5:
 200 0028 00000000 		.word	cyBle_gapc
 201 002c 00000000 		.word	cyBle_gattc
 202              		.cfi_endproc
 203              	.LFE3:
 204              		.size	CyBle_ServiceInit, .-CyBle_ServiceInit
 205              		.section	.text.CyBle_Start,"ax",%progbits
 206              		.align	2
 207              		.global	CyBle_Start
 208              		.code	16
ARM GAS  C:\Users\msuro\AppData\Local\Temp\ccOjNMmK.s 			page 9


 209              		.thumb_func
 210              		.type	CyBle_Start, %function
 211              	CyBle_Start:
 212              	.LFB4:
 249:.\Generated_Source\PSoC4/BLE.c **** 
 250:.\Generated_Source\PSoC4/BLE.c **** 
 251:.\Generated_Source\PSoC4/BLE.c **** /******************************************************************************
 252:.\Generated_Source\PSoC4/BLE.c **** ##Function Name: CyBle_Start
 253:.\Generated_Source\PSoC4/BLE.c **** *******************************************************************************
 254:.\Generated_Source\PSoC4/BLE.c **** 
 255:.\Generated_Source\PSoC4/BLE.c **** Summary:
 256:.\Generated_Source\PSoC4/BLE.c ****  This function initializes the BLE Stack, which consists of the BLE Stack 
 257:.\Generated_Source\PSoC4/BLE.c ****  Manager, BLE Controller, and BLE Host modules. It takes care of initializing
 258:.\Generated_Source\PSoC4/BLE.c ****  the Profile layer, schedulers, Timer and other platform related
 259:.\Generated_Source\PSoC4/BLE.c ****  resources required for the BLE component. It also registers the callback 
 260:.\Generated_Source\PSoC4/BLE.c ****  function for BLE events that will be registered in the BLE stack.
 261:.\Generated_Source\PSoC4/BLE.c **** 
 262:.\Generated_Source\PSoC4/BLE.c ****  Note that this function does not reset the BLE Stack.
 263:.\Generated_Source\PSoC4/BLE.c **** 
 264:.\Generated_Source\PSoC4/BLE.c ****  For HCI-Mode of operation, this function will not initialize the BLE Host 
 265:.\Generated_Source\PSoC4/BLE.c ****  module.
 266:.\Generated_Source\PSoC4/BLE.c **** 
 267:.\Generated_Source\PSoC4/BLE.c ****  Calling this function results in the generation of CYBLE_EVT_STACK_ON event
 268:.\Generated_Source\PSoC4/BLE.c ****  on successful initialization of the BLE Stack.
 269:.\Generated_Source\PSoC4/BLE.c **** 
 270:.\Generated_Source\PSoC4/BLE.c **** Parameters:
 271:.\Generated_Source\PSoC4/BLE.c ****  callbackFunc: Event callback function to receive events from BLE stack.
 272:.\Generated_Source\PSoC4/BLE.c ****   CYBLE_CALLBACK_T is a function pointer type.
 273:.\Generated_Source\PSoC4/BLE.c **** 
 274:.\Generated_Source\PSoC4/BLE.c **** Return:
 275:.\Generated_Source\PSoC4/BLE.c ****  CYBLE_API_RESULT_T : Return value indicates if the function succeeded or 
 276:.\Generated_Source\PSoC4/BLE.c ****  failed. Following are the possible error codes.
 277:.\Generated_Source\PSoC4/BLE.c ****  <table>
 278:.\Generated_Source\PSoC4/BLE.c ****   Errors codes                        Description
 279:.\Generated_Source\PSoC4/BLE.c ****   ------------                        -----------------
 280:.\Generated_Source\PSoC4/BLE.c ****   CYBLE_ERROR_OK                      On successful operation.
 281:.\Generated_Source\PSoC4/BLE.c ****   CYBLE_ERROR_INVALID_PARAMETER       On passing a NULL pointer to the 
 282:.\Generated_Source\PSoC4/BLE.c ****                                        function when the BLE stack is not 
 283:.\Generated_Source\PSoC4/BLE.c ****                                        built in HCI mode.
 284:.\Generated_Source\PSoC4/BLE.c ****                                        CYBLE_ERROR_INVALID_PARAMETER
 285:.\Generated_Source\PSoC4/BLE.c ****                                        is never returned in HCI mode.
 286:.\Generated_Source\PSoC4/BLE.c ****   CYBLE_ERROR_REPEATED_ATTEMPTS       On invoking this function more
 287:.\Generated_Source\PSoC4/BLE.c ****                                        than once without calling
 288:.\Generated_Source\PSoC4/BLE.c ****                                        CyBle_Shutdown() function 
 289:.\Generated_Source\PSoC4/BLE.c ****                                        between calls to this function.
 290:.\Generated_Source\PSoC4/BLE.c ****  </table>
 291:.\Generated_Source\PSoC4/BLE.c **** 
 292:.\Generated_Source\PSoC4/BLE.c **** ******************************************************************************/
 293:.\Generated_Source\PSoC4/BLE.c **** CYBLE_API_RESULT_T CyBle_Start(CYBLE_CALLBACK_T callbackFunc)
 294:.\Generated_Source\PSoC4/BLE.c **** {
 213              		.loc 1 294 0
 214              		.cfi_startproc
 215 0000 90B5     		push	{r4, r7, lr}
 216              		.cfi_def_cfa_offset 12
 217              		.cfi_offset 4, -12
 218              		.cfi_offset 7, -8
 219              		.cfi_offset 14, -4
ARM GAS  C:\Users\msuro\AppData\Local\Temp\ccOjNMmK.s 			page 10


 220 0002 85B0     		sub	sp, sp, #20
 221              		.cfi_def_cfa_offset 32
 222 0004 00AF     		add	r7, sp, #0
 223              		.cfi_def_cfa_register 7
 224 0006 7860     		str	r0, [r7, #4]
 295:.\Generated_Source\PSoC4/BLE.c ****     CYBLE_API_RESULT_T apiResult = CYBLE_ERROR_INVALID_PARAMETER;
 225              		.loc 1 295 0
 226 0008 3B1C     		mov	r3, r7
 227 000a 0E33     		add	r3, r3, #14
 228 000c 0122     		mov	r2, #1
 229 000e 1A80     		strh	r2, [r3]
 296:.\Generated_Source\PSoC4/BLE.c ****     
 297:.\Generated_Source\PSoC4/BLE.c ****     /* Allocate RAM memory for stack */
 298:.\Generated_Source\PSoC4/BLE.c ****     CYBLE_CYALIGNED static uint8 cyBle_stackMemoryRam[CYBLE_STACK_RAM_SIZE];
 299:.\Generated_Source\PSoC4/BLE.c ****     
 300:.\Generated_Source\PSoC4/BLE.c ****     /* If not initialized then initialize all the required hardware and software */
 301:.\Generated_Source\PSoC4/BLE.c ****     if(cyBle_initVar == 0u)
 230              		.loc 1 301 0
 231 0010 1B4B     		ldr	r3, .L11
 232 0012 1B78     		ldrb	r3, [r3]
 233 0014 002B     		cmp	r3, #0
 234 0016 04D1     		bne	.L8
 302:.\Generated_Source\PSoC4/BLE.c ****     {
 303:.\Generated_Source\PSoC4/BLE.c ****         CyBle_Init();
 235              		.loc 1 303 0
 236 0018 FFF7FEFF 		bl	CyBle_Init
 304:.\Generated_Source\PSoC4/BLE.c ****         cyBle_initVar = 1u;
 237              		.loc 1 304 0
 238 001c 184B     		ldr	r3, .L11
 239 001e 0122     		mov	r2, #1
 240 0020 1A70     		strb	r2, [r3]
 241              	.L8:
 305:.\Generated_Source\PSoC4/BLE.c ****     }
 306:.\Generated_Source\PSoC4/BLE.c ****     
 307:.\Generated_Source\PSoC4/BLE.c ****     if(NULL != callbackFunc)
 242              		.loc 1 307 0
 243 0022 7B68     		ldr	r3, [r7, #4]
 244 0024 002B     		cmp	r3, #0
 245 0026 24D0     		beq	.L9
 308:.\Generated_Source\PSoC4/BLE.c ****     {
 309:.\Generated_Source\PSoC4/BLE.c ****         CyBle_ApplCallback = callbackFunc;
 246              		.loc 1 309 0
 247 0028 164B     		ldr	r3, .L11+4
 248 002a 7A68     		ldr	r2, [r7, #4]
 249 002c 1A60     		str	r2, [r3]
 310:.\Generated_Source\PSoC4/BLE.c **** 
 311:.\Generated_Source\PSoC4/BLE.c ****         apiResult = CyBle_StackInit(&CyBle_EventHandler, cyBle_stackMemoryRam, CYBLE_GATT_MTU);
 250              		.loc 1 311 0
 251 002e 3C1C     		mov	r4, r7
 252 0030 0E34     		add	r4, r4, #14
 253 0032 1549     		ldr	r1, .L11+8
 254 0034 154A     		ldr	r2, .L11+12
 255 0036 8023     		mov	r3, #128
 256 0038 9B00     		lsl	r3, r3, #2
 257 003a 081C     		mov	r0, r1
 258 003c 111C     		mov	r1, r2
 259 003e 1A1C     		mov	r2, r3
ARM GAS  C:\Users\msuro\AppData\Local\Temp\ccOjNMmK.s 			page 11


 260 0040 FFF7FEFF 		bl	CyBle_StackInit
 261 0044 031C     		mov	r3, r0
 262 0046 2380     		strh	r3, [r4]
 312:.\Generated_Source\PSoC4/BLE.c **** 
 313:.\Generated_Source\PSoC4/BLE.c ****         if(apiResult == CYBLE_ERROR_OK)
 263              		.loc 1 313 0
 264 0048 3B1C     		mov	r3, r7
 265 004a 0E33     		add	r3, r3, #14
 266 004c 1B88     		ldrh	r3, [r3]
 267 004e 002B     		cmp	r3, #0
 268 0050 0FD1     		bne	.L9
 314:.\Generated_Source\PSoC4/BLE.c ****         {
 315:.\Generated_Source\PSoC4/BLE.c ****             CyBle_SetState(CYBLE_STATE_INITIALIZING);
 269              		.loc 1 315 0
 270 0052 0F4B     		ldr	r3, .L11+16
 271 0054 0122     		mov	r2, #1
 272 0056 1A70     		strb	r2, [r3]
 316:.\Generated_Source\PSoC4/BLE.c ****             
 317:.\Generated_Source\PSoC4/BLE.c ****         #if (CYBLE_GATT_ROLE_CLIENT)
 318:.\Generated_Source\PSoC4/BLE.c ****             CyBle_SetClientState(CYBLE_CLIENT_STATE_DISCONNECTED);
 273              		.loc 1 318 0
 274 0058 0E4B     		ldr	r3, .L11+20
 275 005a 0822     		mov	r2, #8
 276 005c 1A70     		strb	r2, [r3]
 319:.\Generated_Source\PSoC4/BLE.c ****         #endif /* CYBLE_GATT_ROLE_CLIENT */
 320:.\Generated_Source\PSoC4/BLE.c ****             
 321:.\Generated_Source\PSoC4/BLE.c ****         #if(CYBLE_GATT_ROLE_SERVER)
 322:.\Generated_Source\PSoC4/BLE.c ****             apiResult = CyBle_GattsDbRegister(cyBle_gattDB, CYBLE_GATT_DB_INDEX_COUNT, CYBLE_GATT_D
 277              		.loc 1 322 0
 278 005e 3C1C     		mov	r4, r7
 279 0060 0E34     		add	r4, r4, #14
 280 0062 0D4B     		ldr	r3, .L11+24
 281 0064 181C     		mov	r0, r3
 282 0066 1C21     		mov	r1, #28
 283 0068 1622     		mov	r2, #22
 284 006a FFF7FEFF 		bl	CyBle_GattsDbRegister
 285 006e 031C     		mov	r3, r0
 286 0070 2380     		strh	r3, [r4]
 287              	.L9:
 323:.\Generated_Source\PSoC4/BLE.c ****         #endif /* CYBLE_GATT_ROLE_SERVER */
 324:.\Generated_Source\PSoC4/BLE.c ****         }
 325:.\Generated_Source\PSoC4/BLE.c ****     }
 326:.\Generated_Source\PSoC4/BLE.c **** 
 327:.\Generated_Source\PSoC4/BLE.c ****     return (apiResult);
 288              		.loc 1 327 0
 289 0072 3B1C     		mov	r3, r7
 290 0074 0E33     		add	r3, r3, #14
 291 0076 1B88     		ldrh	r3, [r3]
 328:.\Generated_Source\PSoC4/BLE.c **** }
 292              		.loc 1 328 0
 293 0078 181C     		mov	r0, r3
 294 007a BD46     		mov	sp, r7
 295 007c 05B0     		add	sp, sp, #20
 296              		@ sp needed
 297 007e 90BD     		pop	{r4, r7, pc}
 298              	.L12:
 299              		.align	2
ARM GAS  C:\Users\msuro\AppData\Local\Temp\ccOjNMmK.s 			page 12


 300              	.L11:
 301 0080 00000000 		.word	cyBle_initVar
 302 0084 00000000 		.word	CyBle_ApplCallback
 303 0088 00000000 		.word	CyBle_EventHandler
 304 008c 08000000 		.word	cyBle_stackMemoryRam.6119
 305 0090 00000000 		.word	cyBle_state
 306 0094 00000000 		.word	cyBle_clientState
 307 0098 00000000 		.word	cyBle_gattDB
 308              		.cfi_endproc
 309              	.LFE4:
 310              		.size	CyBle_Start, .-CyBle_Start
 311              		.section	.text.CyBle_Stop,"ax",%progbits
 312              		.align	2
 313              		.global	CyBle_Stop
 314              		.code	16
 315              		.thumb_func
 316              		.type	CyBle_Stop, %function
 317              	CyBle_Stop:
 318              	.LFB5:
 329:.\Generated_Source\PSoC4/BLE.c **** 
 330:.\Generated_Source\PSoC4/BLE.c **** 
 331:.\Generated_Source\PSoC4/BLE.c **** /******************************************************************************
 332:.\Generated_Source\PSoC4/BLE.c **** ##Function Name: CyBle_Stop
 333:.\Generated_Source\PSoC4/BLE.c **** *******************************************************************************
 334:.\Generated_Source\PSoC4/BLE.c **** 
 335:.\Generated_Source\PSoC4/BLE.c **** Summary:
 336:.\Generated_Source\PSoC4/BLE.c ****  This function stops any ongoing operation in the BLE Stack and forces the 
 337:.\Generated_Source\PSoC4/BLE.c ****  BLE Stack to shut down. The only function that can be called after calling
 338:.\Generated_Source\PSoC4/BLE.c ****  this function is CyBle_Start(). 
 339:.\Generated_Source\PSoC4/BLE.c **** 
 340:.\Generated_Source\PSoC4/BLE.c **** Parameters:
 341:.\Generated_Source\PSoC4/BLE.c ****  None
 342:.\Generated_Source\PSoC4/BLE.c **** 
 343:.\Generated_Source\PSoC4/BLE.c **** Return:
 344:.\Generated_Source\PSoC4/BLE.c ****  None
 345:.\Generated_Source\PSoC4/BLE.c **** 
 346:.\Generated_Source\PSoC4/BLE.c **** ******************************************************************************/
 347:.\Generated_Source\PSoC4/BLE.c **** void CyBle_Stop(void)
 348:.\Generated_Source\PSoC4/BLE.c **** {
 319              		.loc 1 348 0
 320              		.cfi_startproc
 321 0000 80B5     		push	{r7, lr}
 322              		.cfi_def_cfa_offset 8
 323              		.cfi_offset 7, -8
 324              		.cfi_offset 14, -4
 325 0002 00AF     		add	r7, sp, #0
 326              		.cfi_def_cfa_register 7
 349:.\Generated_Source\PSoC4/BLE.c ****     CyBle_Shutdown(); /* stop all ongoing activities */
 327              		.loc 1 349 0
 328 0004 FFF7FEFF 		bl	CyBle_Shutdown
 350:.\Generated_Source\PSoC4/BLE.c ****     CyBle_ProcessEvents(); /* process all pending events */
 329              		.loc 1 350 0
 330 0008 FFF7FEFF 		bl	CyBle_ProcessEvents
 351:.\Generated_Source\PSoC4/BLE.c ****     CyBle_SetState(CYBLE_STATE_STOPPED);
 331              		.loc 1 351 0
 332 000c 024B     		ldr	r3, .L14
 333 000e 0022     		mov	r2, #0
ARM GAS  C:\Users\msuro\AppData\Local\Temp\ccOjNMmK.s 			page 13


 334 0010 1A70     		strb	r2, [r3]
 352:.\Generated_Source\PSoC4/BLE.c **** }
 335              		.loc 1 352 0
 336 0012 BD46     		mov	sp, r7
 337              		@ sp needed
 338 0014 80BD     		pop	{r7, pc}
 339              	.L15:
 340 0016 C046     		.align	2
 341              	.L14:
 342 0018 00000000 		.word	cyBle_state
 343              		.cfi_endproc
 344              	.LFE5:
 345              		.size	CyBle_Stop, .-CyBle_Stop
 346              		.section	.text.CyBle_StoreBondingData,"ax",%progbits
 347              		.align	2
 348              		.global	CyBle_StoreBondingData
 349              		.code	16
 350              		.thumb_func
 351              		.type	CyBle_StoreBondingData, %function
 352              	CyBle_StoreBondingData:
 353              	.LFB6:
 353:.\Generated_Source\PSoC4/BLE.c **** 
 354:.\Generated_Source\PSoC4/BLE.c **** 
 355:.\Generated_Source\PSoC4/BLE.c **** #if((CYBLE_GAP_ROLE_PERIPHERAL || CYBLE_GAP_ROLE_CENTRAL) && (CYBLE_BONDING_REQUIREMENT == CYBLE_BO
 356:.\Generated_Source\PSoC4/BLE.c **** 
 357:.\Generated_Source\PSoC4/BLE.c ****     
 358:.\Generated_Source\PSoC4/BLE.c **** /******************************************************************************
 359:.\Generated_Source\PSoC4/BLE.c **** ##Function Name: CyBle_StoreBondingData
 360:.\Generated_Source\PSoC4/BLE.c **** *******************************************************************************
 361:.\Generated_Source\PSoC4/BLE.c **** 
 362:.\Generated_Source\PSoC4/BLE.c **** Summary:
 363:.\Generated_Source\PSoC4/BLE.c ****  This function writes the new bonding data from RAM to the dedicated Flash 
 364:.\Generated_Source\PSoC4/BLE.c ****  location as defined by the component. It performs data comparing between RAM
 365:.\Generated_Source\PSoC4/BLE.c ****  and Flash before writing to Flash. If there is no change between RAM and Flash
 366:.\Generated_Source\PSoC4/BLE.c ****  data, then no write is performed. It writes only one flash row in one call.
 367:.\Generated_Source\PSoC4/BLE.c ****  Application should keep calling this function till API return CYBLE_ERROR_OK. 
 368:.\Generated_Source\PSoC4/BLE.c ****  This function is available only when Bonding requirement is selected in
 369:.\Generated_Source\PSoC4/BLE.c ****  Security settings.    
 370:.\Generated_Source\PSoC4/BLE.c ****     
 371:.\Generated_Source\PSoC4/BLE.c **** Parameters:
 372:.\Generated_Source\PSoC4/BLE.c ****  isForceWrite:  If value is set to 0, then stack will check if flash write 
 373:.\Generated_Source\PSoC4/BLE.c ****                 is permissible. 
 374:.\Generated_Source\PSoC4/BLE.c ****  
 375:.\Generated_Source\PSoC4/BLE.c **** Return:
 376:.\Generated_Source\PSoC4/BLE.c ****  Return value is of type CYBLE_API_RESULT_T.
 377:.\Generated_Source\PSoC4/BLE.c ****  * CYBLE_ERROR_OK - On successful operation
 378:.\Generated_Source\PSoC4/BLE.c ****  * CYBLE_ERROR_FLASH_WRITE_NOT_PERMITED - Flash Write is not complete
 379:.\Generated_Source\PSoC4/BLE.c ****    
 380:.\Generated_Source\PSoC4/BLE.c ****  Side Effects:
 381:.\Generated_Source\PSoC4/BLE.c ****   This API will automatically modify the clock settings for the device.
 382:.\Generated_Source\PSoC4/BLE.c ****   Writing to flash requires changes to be done to the IMO (set to 48 MHz)
 383:.\Generated_Source\PSoC4/BLE.c ****   and HFCLK (source set to IMO) settings. The configuration is restored before
 384:.\Generated_Source\PSoC4/BLE.c ****   returning. This will impact the operation of most of the hardware in the
 385:.\Generated_Source\PSoC4/BLE.c ****   device.
 386:.\Generated_Source\PSoC4/BLE.c **** 
 387:.\Generated_Source\PSoC4/BLE.c **** ******************************************************************************/
 388:.\Generated_Source\PSoC4/BLE.c **** CYBLE_API_RESULT_T CyBle_StoreBondingData(uint8 isForceWrite)
ARM GAS  C:\Users\msuro\AppData\Local\Temp\ccOjNMmK.s 			page 14


 389:.\Generated_Source\PSoC4/BLE.c **** {
 354              		.loc 1 389 0
 355              		.cfi_startproc
 356 0000 90B5     		push	{r4, r7, lr}
 357              		.cfi_def_cfa_offset 12
 358              		.cfi_offset 4, -12
 359              		.cfi_offset 7, -8
 360              		.cfi_offset 14, -4
 361 0002 85B0     		sub	sp, sp, #20
 362              		.cfi_def_cfa_offset 32
 363 0004 00AF     		add	r7, sp, #0
 364              		.cfi_def_cfa_register 7
 365 0006 021C     		mov	r2, r0
 366 0008 FB1D     		add	r3, r7, #7
 367 000a 1A70     		strb	r2, [r3]
 390:.\Generated_Source\PSoC4/BLE.c ****     CYBLE_API_RESULT_T apiResult = CYBLE_ERROR_OK;
 368              		.loc 1 390 0
 369 000c 3B1C     		mov	r3, r7
 370 000e 0E33     		add	r3, r3, #14
 371 0010 0022     		mov	r2, #0
 372 0012 1A80     		strh	r2, [r3]
 391:.\Generated_Source\PSoC4/BLE.c ****     
 392:.\Generated_Source\PSoC4/BLE.c ****     /* Store Stack data */
 393:.\Generated_Source\PSoC4/BLE.c ****     if((cyBle_pendingFlashWrite & CYBLE_PENDING_STACK_FLASH_WRITE_BIT) != 0u)
 373              		.loc 1 393 0
 374 0014 2D4B     		ldr	r3, .L21
 375 0016 1B78     		ldrb	r3, [r3]
 376 0018 1A1C     		mov	r2, r3
 377 001a 0123     		mov	r3, #1
 378 001c 1340     		and	r3, r2
 379 001e 1ED0     		beq	.L17
 394:.\Generated_Source\PSoC4/BLE.c ****     {
 395:.\Generated_Source\PSoC4/BLE.c ****         apiResult = CyBle_StoreStackData(isForceWrite);
 380              		.loc 1 395 0
 381 0020 3C1C     		mov	r4, r7
 382 0022 0E34     		add	r4, r4, #14
 383 0024 FB1D     		add	r3, r7, #7
 384 0026 1B78     		ldrb	r3, [r3]
 385 0028 181C     		mov	r0, r3
 386 002a FFF7FEFF 		bl	CyBle_StoreStackData
 387 002e 031C     		mov	r3, r0
 388 0030 2380     		strh	r3, [r4]
 396:.\Generated_Source\PSoC4/BLE.c ****         if(apiResult == CYBLE_ERROR_OK)
 389              		.loc 1 396 0
 390 0032 3B1C     		mov	r3, r7
 391 0034 0E33     		add	r3, r3, #14
 392 0036 1B88     		ldrh	r3, [r3]
 393 0038 002B     		cmp	r3, #0
 394 003a 10D1     		bne	.L17
 397:.\Generated_Source\PSoC4/BLE.c ****         {
 398:.\Generated_Source\PSoC4/BLE.c ****             cyBle_pendingFlashWrite &= (uint8)~CYBLE_PENDING_STACK_FLASH_WRITE_BIT;
 395              		.loc 1 398 0
 396 003c 234B     		ldr	r3, .L21
 397 003e 1B78     		ldrb	r3, [r3]
 398 0040 0122     		mov	r2, #1
 399 0042 9343     		bic	r3, r2
 400 0044 DAB2     		uxtb	r2, r3
ARM GAS  C:\Users\msuro\AppData\Local\Temp\ccOjNMmK.s 			page 15


 401 0046 214B     		ldr	r3, .L21
 402 0048 1A70     		strb	r2, [r3]
 399:.\Generated_Source\PSoC4/BLE.c ****             /* Change apiResult if there are more pending data to store */
 400:.\Generated_Source\PSoC4/BLE.c ****             if((cyBle_pendingFlashWrite & CYBLE_PENDING_CCCD_FLASH_WRITE_BIT) != 0u)
 403              		.loc 1 400 0
 404 004a 204B     		ldr	r3, .L21
 405 004c 1B78     		ldrb	r3, [r3]
 406 004e 1A1C     		mov	r2, r3
 407 0050 0223     		mov	r3, #2
 408 0052 1340     		and	r3, r2
 409 0054 03D0     		beq	.L17
 401:.\Generated_Source\PSoC4/BLE.c ****             {
 402:.\Generated_Source\PSoC4/BLE.c ****                 apiResult = CYBLE_ERROR_FLASH_WRITE_NOT_PERMITED;
 410              		.loc 1 402 0
 411 0056 3B1C     		mov	r3, r7
 412 0058 0E33     		add	r3, r3, #14
 413 005a 2822     		mov	r2, #40
 414 005c 1A80     		strh	r2, [r3]
 415              	.L17:
 403:.\Generated_Source\PSoC4/BLE.c ****             }
 404:.\Generated_Source\PSoC4/BLE.c ****         }
 405:.\Generated_Source\PSoC4/BLE.c ****     }
 406:.\Generated_Source\PSoC4/BLE.c **** #if(CYBLE_GATT_DB_CCCD_COUNT != 0u)
 407:.\Generated_Source\PSoC4/BLE.c ****     /* Store CCCD values */
 408:.\Generated_Source\PSoC4/BLE.c ****     if( ((apiResult == CYBLE_ERROR_OK) || (isForceWrite != 0u)) && 
 416              		.loc 1 408 0
 417 005e 3B1C     		mov	r3, r7
 418 0060 0E33     		add	r3, r3, #14
 419 0062 1B88     		ldrh	r3, [r3]
 420 0064 002B     		cmp	r3, #0
 421 0066 03D0     		beq	.L18
 422              		.loc 1 408 0 is_stmt 0 discriminator 2
 423 0068 FB1D     		add	r3, r7, #7
 424 006a 1B78     		ldrb	r3, [r3]
 425 006c 002B     		cmp	r3, #0
 426 006e 26D0     		beq	.L19
 427              	.L18:
 409:.\Generated_Source\PSoC4/BLE.c ****         ((cyBle_pendingFlashWrite & CYBLE_PENDING_CCCD_FLASH_WRITE_BIT) != 0u) &&
 428              		.loc 1 409 0 is_stmt 1 discriminator 1
 429 0070 164B     		ldr	r3, .L21
 430 0072 1B78     		ldrb	r3, [r3]
 431 0074 1A1C     		mov	r2, r3
 432 0076 0223     		mov	r3, #2
 433 0078 1340     		and	r3, r2
 408:.\Generated_Source\PSoC4/BLE.c ****     if( ((apiResult == CYBLE_ERROR_OK) || (isForceWrite != 0u)) && 
 434              		.loc 1 408 0 discriminator 1
 435 007a 20D0     		beq	.L19
 410:.\Generated_Source\PSoC4/BLE.c ****         (cyBle_connHandle.bdHandle <= CYBLE_GAP_MAX_BONDED_DEVICE))
 436              		.loc 1 410 0
 437 007c 144B     		ldr	r3, .L21+4
 438 007e 1B78     		ldrb	r3, [r3]
 409:.\Generated_Source\PSoC4/BLE.c ****         ((cyBle_pendingFlashWrite & CYBLE_PENDING_CCCD_FLASH_WRITE_BIT) != 0u) &&
 439              		.loc 1 409 0
 440 0080 042B     		cmp	r3, #4
 441 0082 1CD8     		bhi	.L19
 411:.\Generated_Source\PSoC4/BLE.c ****     {
 412:.\Generated_Source\PSoC4/BLE.c ****         apiResult = CyBle_StoreAppData(cyBle_attValuesCCCD, cyBle_attValuesCCCDFlashMemory[cyBle_co
ARM GAS  C:\Users\msuro\AppData\Local\Temp\ccOjNMmK.s 			page 16


 442              		.loc 1 412 0
 443 0084 124B     		ldr	r3, .L21+4
 444 0086 1B78     		ldrb	r3, [r3]
 445 0088 5A00     		lsl	r2, r3, #1
 446 008a 124B     		ldr	r3, .L21+8
 447 008c D218     		add	r2, r2, r3
 448 008e 3C1C     		mov	r4, r7
 449 0090 0E34     		add	r4, r4, #14
 450 0092 1149     		ldr	r1, .L21+12
 451 0094 FB1D     		add	r3, r7, #7
 452 0096 1B78     		ldrb	r3, [r3]
 453 0098 081C     		mov	r0, r1
 454 009a 111C     		mov	r1, r2
 455 009c 0222     		mov	r2, #2
 456 009e FFF7FEFF 		bl	CyBle_StoreAppData
 457 00a2 031C     		mov	r3, r0
 458 00a4 2380     		strh	r3, [r4]
 413:.\Generated_Source\PSoC4/BLE.c ****                                        CYBLE_GATT_DB_CCCD_COUNT, isForceWrite);
 414:.\Generated_Source\PSoC4/BLE.c ****         if(apiResult == CYBLE_ERROR_OK)
 459              		.loc 1 414 0
 460 00a6 3B1C     		mov	r3, r7
 461 00a8 0E33     		add	r3, r3, #14
 462 00aa 1B88     		ldrh	r3, [r3]
 463 00ac 002B     		cmp	r3, #0
 464 00ae 06D1     		bne	.L19
 415:.\Generated_Source\PSoC4/BLE.c ****         {
 416:.\Generated_Source\PSoC4/BLE.c ****             cyBle_pendingFlashWrite &= (uint8)~CYBLE_PENDING_CCCD_FLASH_WRITE_BIT;
 465              		.loc 1 416 0
 466 00b0 064B     		ldr	r3, .L21
 467 00b2 1B78     		ldrb	r3, [r3]
 468 00b4 0222     		mov	r2, #2
 469 00b6 9343     		bic	r3, r2
 470 00b8 DAB2     		uxtb	r2, r3
 471 00ba 044B     		ldr	r3, .L21
 472 00bc 1A70     		strb	r2, [r3]
 473              	.L19:
 417:.\Generated_Source\PSoC4/BLE.c ****         }
 418:.\Generated_Source\PSoC4/BLE.c ****     }
 419:.\Generated_Source\PSoC4/BLE.c **** #endif /* CYBLE_GATT_DB_CCCD_COUNT != 0u */
 420:.\Generated_Source\PSoC4/BLE.c ****     return(apiResult);
 474              		.loc 1 420 0
 475 00be 3B1C     		mov	r3, r7
 476 00c0 0E33     		add	r3, r3, #14
 477 00c2 1B88     		ldrh	r3, [r3]
 421:.\Generated_Source\PSoC4/BLE.c **** }
 478              		.loc 1 421 0
 479 00c4 181C     		mov	r0, r3
 480 00c6 BD46     		mov	sp, r7
 481 00c8 05B0     		add	sp, sp, #20
 482              		@ sp needed
 483 00ca 90BD     		pop	{r4, r7, pc}
 484              	.L22:
 485              		.align	2
 486              	.L21:
 487 00cc 00000000 		.word	cyBle_pendingFlashWrite
 488 00d0 00000000 		.word	cyBle_connHandle
 489 00d4 00000000 		.word	cyBle_attValuesCCCDFlashMemory
ARM GAS  C:\Users\msuro\AppData\Local\Temp\ccOjNMmK.s 			page 17


 490 00d8 00000000 		.word	cyBle_attValuesCCCD
 491              		.cfi_endproc
 492              	.LFE6:
 493              		.size	CyBle_StoreBondingData, .-CyBle_StoreBondingData
 494              		.section	.text.CyBle_GapcStartScan,"ax",%progbits
 495              		.align	2
 496              		.global	CyBle_GapcStartScan
 497              		.code	16
 498              		.thumb_func
 499              		.type	CyBle_GapcStartScan, %function
 500              	CyBle_GapcStartScan:
 501              	.LFB7:
 422:.\Generated_Source\PSoC4/BLE.c **** 
 423:.\Generated_Source\PSoC4/BLE.c **** 
 424:.\Generated_Source\PSoC4/BLE.c **** #endif /* (CYBLE_GAP_ROLE_PERIPHERAL || CYBLE_GAP_ROLE_CENTRAL) && (CYBLE_BONDING_REQUIREMENT == CY
 425:.\Generated_Source\PSoC4/BLE.c **** 
 426:.\Generated_Source\PSoC4/BLE.c **** 
 427:.\Generated_Source\PSoC4/BLE.c **** #if(CYBLE_GAP_ROLE_PERIPHERAL || CYBLE_GAP_ROLE_BROADCASTER)
 428:.\Generated_Source\PSoC4/BLE.c **** 
 429:.\Generated_Source\PSoC4/BLE.c ****     /******************************************************************************
 430:.\Generated_Source\PSoC4/BLE.c ****     ##Function Name: CyBle_GappStartAdvertisement
 431:.\Generated_Source\PSoC4/BLE.c ****     *******************************************************************************
 432:.\Generated_Source\PSoC4/BLE.c ****     
 433:.\Generated_Source\PSoC4/BLE.c ****     Summary:
 434:.\Generated_Source\PSoC4/BLE.c ****      This function is used to start the advertisement using the advertisement data 
 435:.\Generated_Source\PSoC4/BLE.c ****      set in the component customizer's GUI. After invoking this API, the device 
 436:.\Generated_Source\PSoC4/BLE.c ****      will be available for connection by the devices configured for GAP central 
 437:.\Generated_Source\PSoC4/BLE.c ****      role. It is only included if the device is configured for GAP Peripheral or 
 438:.\Generated_Source\PSoC4/BLE.c ****      GAP Peripheral + Central role.
 439:.\Generated_Source\PSoC4/BLE.c ****      
 440:.\Generated_Source\PSoC4/BLE.c ****      On start of advertisement, GAP Peripheral receives the
 441:.\Generated_Source\PSoC4/BLE.c ****      CYBLE_EVT_GAPP_ADVERTISEMENT_START_STOP event. The following events are 
 442:.\Generated_Source\PSoC4/BLE.c ****      possible on invoking this function:
 443:.\Generated_Source\PSoC4/BLE.c ****      
 444:.\Generated_Source\PSoC4/BLE.c ****      * CYBLE_EVT_GAP_DEVICE_CONNECTED: If the device connects to remote GAP 
 445:.\Generated_Source\PSoC4/BLE.c ****                                          Central device
 446:.\Generated_Source\PSoC4/BLE.c ****      * CYBLE_EVT_TIMEOUT: If no device in GAP Central mode connects to this 
 447:.\Generated_Source\PSoC4/BLE.c ****                           device within the specified timeout limit. Stack 
 448:.\Generated_Source\PSoC4/BLE.c ****                           automatically initiate stop advertising when Slow 
 449:.\Generated_Source\PSoC4/BLE.c ****                           advertising was initiated, or starts Slow advertising
 450:.\Generated_Source\PSoC4/BLE.c ****                           after Fast advertising timeout occur.
 451:.\Generated_Source\PSoC4/BLE.c ****      * CYBLE_EVT_GAPP_ADVERTISEMENT_START_STOP: If device started or stopped
 452:.\Generated_Source\PSoC4/BLE.c ****                                                   advertising. Use CyBle_GetState()
 453:.\Generated_Source\PSoC4/BLE.c ****                                                   to determine the state. Sequential 
 454:.\Generated_Source\PSoC4/BLE.c ****                                                   advertising could be started when
 455:.\Generated_Source\PSoC4/BLE.c ****                                                   CYBLE_STATE_DISCONNECTED state is
 456:.\Generated_Source\PSoC4/BLE.c ****                                                   returned.
 457:.\Generated_Source\PSoC4/BLE.c **** 
 458:.\Generated_Source\PSoC4/BLE.c ****     Parameters:
 459:.\Generated_Source\PSoC4/BLE.c ****      uint8 advertisingIntervalType: Fast or slow advertising interval with timings
 460:.\Generated_Source\PSoC4/BLE.c ****                                     entered in Advertising settings section of the
 461:.\Generated_Source\PSoC4/BLE.c ****                                     customizer.
 462:.\Generated_Source\PSoC4/BLE.c ****      * CYBLE_ADVERTISING_FAST   0x00u
 463:.\Generated_Source\PSoC4/BLE.c ****      * CYBLE_ADVERTISING_SLOW   0x01u
 464:.\Generated_Source\PSoC4/BLE.c ****      * CYBLE_ADVERTISING_CUSTOM 0x02u
 465:.\Generated_Source\PSoC4/BLE.c ****     
 466:.\Generated_Source\PSoC4/BLE.c ****     Return:
ARM GAS  C:\Users\msuro\AppData\Local\Temp\ccOjNMmK.s 			page 18


 467:.\Generated_Source\PSoC4/BLE.c ****      CYBLE_API_RESULT_T : Return value indicates if the function succeeded or
 468:.\Generated_Source\PSoC4/BLE.c ****      failed. Following are the possible error codes.
 469:.\Generated_Source\PSoC4/BLE.c ****      <table>
 470:.\Generated_Source\PSoC4/BLE.c ****       Errors codes                        Description
 471:.\Generated_Source\PSoC4/BLE.c ****       ------------                        -----------
 472:.\Generated_Source\PSoC4/BLE.c ****       CYBLE_ERROR_OK                      On successful operation.
 473:.\Generated_Source\PSoC4/BLE.c ****       CYBLE_ERROR_INVALID_PARAMETER       On passing an invalid parameter.
 474:.\Generated_Source\PSoC4/BLE.c ****      </table>
 475:.\Generated_Source\PSoC4/BLE.c ****     
 476:.\Generated_Source\PSoC4/BLE.c ****     ******************************************************************************/
 477:.\Generated_Source\PSoC4/BLE.c ****     CYBLE_API_RESULT_T CyBle_GappStartAdvertisement(uint8 advertisingIntervalType)
 478:.\Generated_Source\PSoC4/BLE.c ****     {
 479:.\Generated_Source\PSoC4/BLE.c ****         CYBLE_API_RESULT_T apiResult;
 480:.\Generated_Source\PSoC4/BLE.c ****         
 481:.\Generated_Source\PSoC4/BLE.c ****         if((CYBLE_STATE_DISCONNECTED == CyBle_GetState()) && ((cyBle_eventHandlerFlag & CYBLE_START
 482:.\Generated_Source\PSoC4/BLE.c ****         {   
 483:.\Generated_Source\PSoC4/BLE.c ****             if(advertisingIntervalType == CYBLE_ADVERTISING_FAST)
 484:.\Generated_Source\PSoC4/BLE.c ****             {
 485:.\Generated_Source\PSoC4/BLE.c ****                 cyBle_discoveryModeInfo.advTo = CYBLE_FAST_ADV_TIMEOUT;
 486:.\Generated_Source\PSoC4/BLE.c ****                 cyBle_discoveryModeInfo.advParam->advIntvMin = CYBLE_FAST_ADV_INT_MIN;
 487:.\Generated_Source\PSoC4/BLE.c ****                 cyBle_discoveryModeInfo.advParam->advIntvMax = CYBLE_FAST_ADV_INT_MAX;
 488:.\Generated_Source\PSoC4/BLE.c ****             }
 489:.\Generated_Source\PSoC4/BLE.c ****             else if(advertisingIntervalType == CYBLE_ADVERTISING_SLOW)
 490:.\Generated_Source\PSoC4/BLE.c ****             {
 491:.\Generated_Source\PSoC4/BLE.c ****                 cyBle_discoveryModeInfo.advTo = CYBLE_SLOW_ADV_TIMEOUT;
 492:.\Generated_Source\PSoC4/BLE.c ****                 cyBle_discoveryModeInfo.advParam->advIntvMin = CYBLE_SLOW_ADV_INT_MIN;
 493:.\Generated_Source\PSoC4/BLE.c ****                 cyBle_discoveryModeInfo.advParam->advIntvMax = CYBLE_SLOW_ADV_INT_MAX;
 494:.\Generated_Source\PSoC4/BLE.c ****             }       
 495:.\Generated_Source\PSoC4/BLE.c ****             else /* Do not update advertising intervals */
 496:.\Generated_Source\PSoC4/BLE.c ****             {
 497:.\Generated_Source\PSoC4/BLE.c ****             }
 498:.\Generated_Source\PSoC4/BLE.c ****             cyBle_advertisingIntervalType = advertisingIntervalType;
 499:.\Generated_Source\PSoC4/BLE.c ****             apiResult = CyBle_GappEnterDiscoveryMode(&cyBle_discoveryModeInfo);
 500:.\Generated_Source\PSoC4/BLE.c ****         
 501:.\Generated_Source\PSoC4/BLE.c ****             if(CYBLE_ERROR_OK == apiResult)
 502:.\Generated_Source\PSoC4/BLE.c ****             {
 503:.\Generated_Source\PSoC4/BLE.c ****                 cyBle_eventHandlerFlag |= CYBLE_START_FLAG;
 504:.\Generated_Source\PSoC4/BLE.c ****             }
 505:.\Generated_Source\PSoC4/BLE.c ****         }
 506:.\Generated_Source\PSoC4/BLE.c ****         else
 507:.\Generated_Source\PSoC4/BLE.c ****         {
 508:.\Generated_Source\PSoC4/BLE.c ****             apiResult = CYBLE_ERROR_INVALID_STATE;
 509:.\Generated_Source\PSoC4/BLE.c ****         }
 510:.\Generated_Source\PSoC4/BLE.c **** 
 511:.\Generated_Source\PSoC4/BLE.c ****         return (apiResult);
 512:.\Generated_Source\PSoC4/BLE.c ****     }
 513:.\Generated_Source\PSoC4/BLE.c **** 
 514:.\Generated_Source\PSoC4/BLE.c ****     
 515:.\Generated_Source\PSoC4/BLE.c ****     /******************************************************************************
 516:.\Generated_Source\PSoC4/BLE.c ****     ##Function Name: CyBle_GappStopAdvertisement
 517:.\Generated_Source\PSoC4/BLE.c ****     *******************************************************************************
 518:.\Generated_Source\PSoC4/BLE.c ****     
 519:.\Generated_Source\PSoC4/BLE.c ****      Summary:
 520:.\Generated_Source\PSoC4/BLE.c ****       This function can be used to exit from discovery mode. After the execution 
 521:.\Generated_Source\PSoC4/BLE.c ****       of this function, there will no longer be any advertisements. On stopping 
 522:.\Generated_Source\PSoC4/BLE.c ****       advertising, GAP Peripheral receives CYBLE_EVT_GAPP_ADVERTISEMENT_START_STOP
 523:.\Generated_Source\PSoC4/BLE.c ****       event. It is expected that the application layer tracks the function call 
ARM GAS  C:\Users\msuro\AppData\Local\Temp\ccOjNMmK.s 			page 19


 524:.\Generated_Source\PSoC4/BLE.c ****       performed before occurrence of this event as this event can occur on making 
 525:.\Generated_Source\PSoC4/BLE.c ****       a call to Cy_BleGappStartAdvertisement(), CyBle_GappEnterDiscoveryMode(), 
 526:.\Generated_Source\PSoC4/BLE.c ****       or CyBle_GappStartAdvertisement() functions as well.
 527:.\Generated_Source\PSoC4/BLE.c ****       
 528:.\Generated_Source\PSoC4/BLE.c ****       The following event occurs on invoking this function:
 529:.\Generated_Source\PSoC4/BLE.c ****       * CYBLE_EVT_GAPP_ADVERTISEMENT_START_STOP
 530:.\Generated_Source\PSoC4/BLE.c ****     
 531:.\Generated_Source\PSoC4/BLE.c ****      Parameters:
 532:.\Generated_Source\PSoC4/BLE.c ****       None
 533:.\Generated_Source\PSoC4/BLE.c ****     
 534:.\Generated_Source\PSoC4/BLE.c ****      Return:
 535:.\Generated_Source\PSoC4/BLE.c ****       None
 536:.\Generated_Source\PSoC4/BLE.c ****     
 537:.\Generated_Source\PSoC4/BLE.c ****     ******************************************************************************/
 538:.\Generated_Source\PSoC4/BLE.c ****     void CyBle_GappStopAdvertisement(void)
 539:.\Generated_Source\PSoC4/BLE.c ****     {
 540:.\Generated_Source\PSoC4/BLE.c ****         CyBle_GappExitDiscoveryMode();
 541:.\Generated_Source\PSoC4/BLE.c ****         cyBle_eventHandlerFlag |= CYBLE_STOP_FLAG;
 542:.\Generated_Source\PSoC4/BLE.c ****     }
 543:.\Generated_Source\PSoC4/BLE.c ****     
 544:.\Generated_Source\PSoC4/BLE.c ****     
 545:.\Generated_Source\PSoC4/BLE.c ****     /******************************************************************************
 546:.\Generated_Source\PSoC4/BLE.c ****     ##Function Name: CyBle_ChangeAdDeviceAddress
 547:.\Generated_Source\PSoC4/BLE.c ****     *******************************************************************************
 548:.\Generated_Source\PSoC4/BLE.c **** 
 549:.\Generated_Source\PSoC4/BLE.c ****     Summary:
 550:.\Generated_Source\PSoC4/BLE.c ****      This API is used to set the Bluetooth device address into the advertisement 
 551:.\Generated_Source\PSoC4/BLE.c ****      or scan response data structure.
 552:.\Generated_Source\PSoC4/BLE.c **** 
 553:.\Generated_Source\PSoC4/BLE.c ****     Parameters:
 554:.\Generated_Source\PSoC4/BLE.c ****      bdAddr: Bluetooth Device address. The variable is of type CYBLE_GAP_BD_ADDR_T
 555:.\Generated_Source\PSoC4/BLE.c ****      uint8 dest: 0 - avrevtisement structure, not zero value selects scan response
 556:.\Generated_Source\PSoC4/BLE.c ****                  structure.
 557:.\Generated_Source\PSoC4/BLE.c **** 
 558:.\Generated_Source\PSoC4/BLE.c ****     Return:
 559:.\Generated_Source\PSoC4/BLE.c ****      None
 560:.\Generated_Source\PSoC4/BLE.c ****  
 561:.\Generated_Source\PSoC4/BLE.c ****     ******************************************************************************/
 562:.\Generated_Source\PSoC4/BLE.c ****     void CyBle_ChangeAdDeviceAddress(const CYBLE_GAP_BD_ADDR_T* bdAddr, uint8 dest)
 563:.\Generated_Source\PSoC4/BLE.c ****     {
 564:.\Generated_Source\PSoC4/BLE.c ****         uint8 i;
 565:.\Generated_Source\PSoC4/BLE.c ****         uint8 *destBuffer = NULL;
 566:.\Generated_Source\PSoC4/BLE.c ****         
 567:.\Generated_Source\PSoC4/BLE.c ****         if(dest == 0u)      /* Destination - advertising structure */
 568:.\Generated_Source\PSoC4/BLE.c ****         {
 569:.\Generated_Source\PSoC4/BLE.c ****             #ifdef CYBLE_ADV_PKT_INDEX_BLUETOOTH_DEVICE_ADDRESS
 570:.\Generated_Source\PSoC4/BLE.c ****                 destBuffer = &cyBle_discoveryData.advData[CYBLE_ADV_PKT_INDEX_BLUETOOTH_DEVICE_ADDR
 571:.\Generated_Source\PSoC4/BLE.c ****             #endif /* CYBLE_ADV_PKT_INDEX_BLUETOOTH_DEVICE_ADDRESS */
 572:.\Generated_Source\PSoC4/BLE.c ****         }
 573:.\Generated_Source\PSoC4/BLE.c ****         else                /* Destination - scan response structure */
 574:.\Generated_Source\PSoC4/BLE.c ****         {
 575:.\Generated_Source\PSoC4/BLE.c ****             #ifdef CYBLE_SCN_PKT_INDEX_BLUETOOTH_DEVICE_ADDRESS
 576:.\Generated_Source\PSoC4/BLE.c ****                 destBuffer = &cyBle_scanRspData.scanRspData[CYBLE_SCN_PKT_INDEX_BLUETOOTH_DEVICE_AD
 577:.\Generated_Source\PSoC4/BLE.c ****             #endif /* CYBLE_SCN_PKT_INDEX_BLUETOOTH_DEVICE_ADDRESS */    
 578:.\Generated_Source\PSoC4/BLE.c ****         }
 579:.\Generated_Source\PSoC4/BLE.c ****         
 580:.\Generated_Source\PSoC4/BLE.c ****         if(destBuffer != NULL)
ARM GAS  C:\Users\msuro\AppData\Local\Temp\ccOjNMmK.s 			page 20


 581:.\Generated_Source\PSoC4/BLE.c ****         {
 582:.\Generated_Source\PSoC4/BLE.c ****             /* Update Device Address type */
 583:.\Generated_Source\PSoC4/BLE.c ****             destBuffer[0u] = bdAddr->type;
 584:.\Generated_Source\PSoC4/BLE.c ****             
 585:.\Generated_Source\PSoC4/BLE.c ****             for(i = 0; i < CYBLE_GAP_BD_ADDR_SIZE; i++)
 586:.\Generated_Source\PSoC4/BLE.c ****             {
 587:.\Generated_Source\PSoC4/BLE.c ****                 destBuffer[i + 1u] = bdAddr->bdAddr[i];
 588:.\Generated_Source\PSoC4/BLE.c ****             }
 589:.\Generated_Source\PSoC4/BLE.c ****         }
 590:.\Generated_Source\PSoC4/BLE.c ****     }
 591:.\Generated_Source\PSoC4/BLE.c ****   
 592:.\Generated_Source\PSoC4/BLE.c **** #endif /* CYBLE_GAP_ROLE_PERIPHERAL || CYBLE_GAP_ROLE_BROADCASTER */
 593:.\Generated_Source\PSoC4/BLE.c **** 
 594:.\Generated_Source\PSoC4/BLE.c **** 
 595:.\Generated_Source\PSoC4/BLE.c **** #if(CYBLE_GAP_ROLE_CENTRAL || CYBLE_GAP_ROLE_OBSERVER)
 596:.\Generated_Source\PSoC4/BLE.c **** 
 597:.\Generated_Source\PSoC4/BLE.c ****     /******************************************************************************
 598:.\Generated_Source\PSoC4/BLE.c ****     ##Function Name: CyBle_GapcStartScan
 599:.\Generated_Source\PSoC4/BLE.c ****     *******************************************************************************
 600:.\Generated_Source\PSoC4/BLE.c ****     
 601:.\Generated_Source\PSoC4/BLE.c ****      Summary:
 602:.\Generated_Source\PSoC4/BLE.c ****       This function is used for discovering GAP peripheral devices that are 
 603:.\Generated_Source\PSoC4/BLE.c ****       available for connection. It performs the scanning routine using the 
 604:.\Generated_Source\PSoC4/BLE.c ****       parameters entered in the component's customizer.
 605:.\Generated_Source\PSoC4/BLE.c ****       
 606:.\Generated_Source\PSoC4/BLE.c ****       As soon as the discovery operation starts, CYBLE_EVT_GAPC_SCAN_START_STOP 
 607:.\Generated_Source\PSoC4/BLE.c ****       event is generated. The CYBLE_EVT_GAPC_SCAN_PROGRESS_RESULT event is 
 608:.\Generated_Source\PSoC4/BLE.c ****       generated when a GAP peripheral device is located. There are three discovery
 609:.\Generated_Source\PSoC4/BLE.c ****       procedures can be selected in the customizer's GUI:
 610:.\Generated_Source\PSoC4/BLE.c ****       
 611:.\Generated_Source\PSoC4/BLE.c ****       * Observation procedure: A device performing the observer role receives only
 612:.\Generated_Source\PSoC4/BLE.c ****                                advertisement data from devices irrespective of 
 613:.\Generated_Source\PSoC4/BLE.c ****                                their discoverable mode settings. Advertisement 
 614:.\Generated_Source\PSoC4/BLE.c ****                                data received is provided by the event,      
 615:.\Generated_Source\PSoC4/BLE.c ****                                CYBLE_EVT_GAPC_SCAN_PROGRESS_RESULT. This procedure
 616:.\Generated_Source\PSoC4/BLE.c ****                                requires the scanType sub parameter to be passive
 617:.\Generated_Source\PSoC4/BLE.c ****                                scanning. 
 618:.\Generated_Source\PSoC4/BLE.c ****       
 619:.\Generated_Source\PSoC4/BLE.c ****       * Limited Discovery procedure: A device performing the limited discovery
 620:.\Generated_Source\PSoC4/BLE.c ****                                      procedure receives advertisement data and 
 621:.\Generated_Source\PSoC4/BLE.c ****                                      scan# response data from devices in the 
 622:.\Generated_Source\PSoC4/BLE.c ****                                      limited discoverable mode only. Received data
 623:.\Generated_Source\PSoC4/BLE.c ****                                      is provided by the event, 
 624:.\Generated_Source\PSoC4/BLE.c ****                                      CYBLE_EVT_GAPC_SCAN_PROGRESS_RESULT. This 
 625:.\Generated_Source\PSoC4/BLE.c ****                                      procedure requires the scanType sub-parameter 
 626:.\Generated_Source\PSoC4/BLE.c ****                                      to be active scanning.
 627:.\Generated_Source\PSoC4/BLE.c ****       
 628:.\Generated_Source\PSoC4/BLE.c ****       * General Discovery procedure: A device performing the general discovery 
 629:.\Generated_Source\PSoC4/BLE.c ****                                      procedure receives the advertisement data and
 630:.\Generated_Source\PSoC4/BLE.c ****                                      scan response data from devices in both 
 631:.\Generated_Source\PSoC4/BLE.c ****                                      limited discoverable mode and the general 
 632:.\Generated_Source\PSoC4/BLE.c ****                                      discoverable mode. Received data is provided
 633:.\Generated_Source\PSoC4/BLE.c ****                                      by the event,
 634:.\Generated_Source\PSoC4/BLE.c ****                                      CYBLE_EVT_GAPC_SCAN_PROGRESS_RESULT. This 
 635:.\Generated_Source\PSoC4/BLE.c ****                                      procedure requires the scanType sub-parameter
 636:.\Generated_Source\PSoC4/BLE.c ****                                      to be active scanning.
 637:.\Generated_Source\PSoC4/BLE.c ****       
ARM GAS  C:\Users\msuro\AppData\Local\Temp\ccOjNMmK.s 			page 21


 638:.\Generated_Source\PSoC4/BLE.c ****       Every Advertisement / Scan response packet received results in a new event, 
 639:.\Generated_Source\PSoC4/BLE.c ****       CYBLE_EVT_GAPC_SCAN_PROGRESS_RESULT.
 640:.\Generated_Source\PSoC4/BLE.c ****       If 'scanTo' sub-parameter is a non-zero value, then upon commencement of 
 641:.\Generated_Source\PSoC4/BLE.c ****       discovery procedure and elapsed time = 'scanTo', CYBLE_EVT_TIMEOUT event
 642:.\Generated_Source\PSoC4/BLE.c ****       is generated with the event parameter indicating CYBLE_GAP_SCAN_TO.
 643:.\Generated_Source\PSoC4/BLE.c ****       Possible generated events are:
 644:.\Generated_Source\PSoC4/BLE.c ****       * CYBLE_EVT_GAPC_SCAN_START_STOP: If a device started or stopped scanning. 
 645:.\Generated_Source\PSoC4/BLE.c ****                                         Use CyBle_GetState() to determine the 
 646:.\Generated_Source\PSoC4/BLE.c ****                                         state. Sequential scanning could be 
 647:.\Generated_Source\PSoC4/BLE.c ****                                         started when CYBLE_STATE_DISCONNECTED 
 648:.\Generated_Source\PSoC4/BLE.c ****                                         state is returned. 
 649:.\Generated_Source\PSoC4/BLE.c ****       * CYBLE_EVT_GAPC_SCAN_PROGRESS_RESULT 
 650:.\Generated_Source\PSoC4/BLE.c ****       * CYBLE_EVT_TIMEOUT (CYBLE_GAP_SCAN_TO)
 651:.\Generated_Source\PSoC4/BLE.c ****     
 652:.\Generated_Source\PSoC4/BLE.c ****      Parameters:
 653:.\Generated_Source\PSoC4/BLE.c ****       uint8 scanningIntervalType:  Fast or slow scanning interval with
 654:.\Generated_Source\PSoC4/BLE.c ****           timings entered in Scan settings section of the customiser.
 655:.\Generated_Source\PSoC4/BLE.c ****     	  * CYBLE_SCANNING_FAST   0x00u
 656:.\Generated_Source\PSoC4/BLE.c ****     	  * CYBLE_SCANNING_SLOW   0x01u
 657:.\Generated_Source\PSoC4/BLE.c ****     	  * CYBLE_SCANNING_CUSTOM 0x02u
 658:.\Generated_Source\PSoC4/BLE.c ****     
 659:.\Generated_Source\PSoC4/BLE.c ****     Return:
 660:.\Generated_Source\PSoC4/BLE.c ****      CYBLE_API_RESULT_T : Return value indicates if the function succeeded or
 661:.\Generated_Source\PSoC4/BLE.c ****      failed. Following are the possible error codes.
 662:.\Generated_Source\PSoC4/BLE.c ****      <table>
 663:.\Generated_Source\PSoC4/BLE.c ****       Errors codes                        Values  Description
 664:.\Generated_Source\PSoC4/BLE.c ****       ------------                        ------  -----------
 665:.\Generated_Source\PSoC4/BLE.c ****       CYBLE_ERROR_OK                      0x0000  On successful operation.
 666:.\Generated_Source\PSoC4/BLE.c ****       CYBLE_ERROR_STACK_INTERNAL          0x0003  An error occurred in the 
 667:.\Generated_Source\PSoC4/BLE.c ****                                                    BLE stack.
 668:.\Generated_Source\PSoC4/BLE.c ****      </table>
 669:.\Generated_Source\PSoC4/BLE.c ****      
 670:.\Generated_Source\PSoC4/BLE.c ****     ******************************************************************************/
 671:.\Generated_Source\PSoC4/BLE.c ****     CYBLE_API_RESULT_T CyBle_GapcStartScan(uint8 scanningIntervalType)
 672:.\Generated_Source\PSoC4/BLE.c ****     {
 502              		.loc 1 672 0
 503              		.cfi_startproc
 504 0000 90B5     		push	{r4, r7, lr}
 505              		.cfi_def_cfa_offset 12
 506              		.cfi_offset 4, -12
 507              		.cfi_offset 7, -8
 508              		.cfi_offset 14, -4
 509 0002 85B0     		sub	sp, sp, #20
 510              		.cfi_def_cfa_offset 32
 511 0004 00AF     		add	r7, sp, #0
 512              		.cfi_def_cfa_register 7
 513 0006 021C     		mov	r2, r0
 514 0008 FB1D     		add	r3, r7, #7
 515 000a 1A70     		strb	r2, [r3]
 673:.\Generated_Source\PSoC4/BLE.c ****         CYBLE_API_RESULT_T apiResult;
 674:.\Generated_Source\PSoC4/BLE.c **** 
 675:.\Generated_Source\PSoC4/BLE.c ****         if(scanningIntervalType == CYBLE_SCANNING_FAST)
 516              		.loc 1 675 0
 517 000c FB1D     		add	r3, r7, #7
 518 000e 1B78     		ldrb	r3, [r3]
 519 0010 002B     		cmp	r3, #0
 520 0012 09D1     		bne	.L24
ARM GAS  C:\Users\msuro\AppData\Local\Temp\ccOjNMmK.s 			page 22


 676:.\Generated_Source\PSoC4/BLE.c ****         {
 677:.\Generated_Source\PSoC4/BLE.c ****             cyBle_discoveryInfo.scanTo = CYBLE_FAST_SCAN_TIMEOUT;
 521              		.loc 1 677 0
 522 0014 1C4B     		ldr	r3, .L28
 523 0016 1E22     		mov	r2, #30
 524 0018 1A81     		strh	r2, [r3, #8]
 678:.\Generated_Source\PSoC4/BLE.c ****             cyBle_discoveryInfo.scanIntv = CYBLE_FAST_SCAN_INTERVAL;
 525              		.loc 1 678 0
 526 001a 1B4B     		ldr	r3, .L28
 527 001c 3022     		mov	r2, #48
 528 001e 5A80     		strh	r2, [r3, #2]
 679:.\Generated_Source\PSoC4/BLE.c ****             cyBle_discoveryInfo.scanWindow = CYBLE_FAST_SCAN_WINDOW;
 529              		.loc 1 679 0
 530 0020 194B     		ldr	r3, .L28
 531 0022 3022     		mov	r2, #48
 532 0024 9A80     		strh	r2, [r3, #4]
 533 0026 0EE0     		b	.L25
 534              	.L24:
 680:.\Generated_Source\PSoC4/BLE.c ****         }
 681:.\Generated_Source\PSoC4/BLE.c ****         else if(scanningIntervalType == CYBLE_SCANNING_SLOW)
 535              		.loc 1 681 0
 536 0028 FB1D     		add	r3, r7, #7
 537 002a 1B78     		ldrb	r3, [r3]
 538 002c 012B     		cmp	r3, #1
 539 002e 0AD1     		bne	.L25
 682:.\Generated_Source\PSoC4/BLE.c ****         {
 683:.\Generated_Source\PSoC4/BLE.c ****             cyBle_discoveryInfo.scanTo = CYBLE_SLOW_SCAN_TIMEOUT;
 540              		.loc 1 683 0
 541 0030 154B     		ldr	r3, .L28
 542 0032 9622     		mov	r2, #150
 543 0034 1A81     		strh	r2, [r3, #8]
 684:.\Generated_Source\PSoC4/BLE.c ****             cyBle_discoveryInfo.scanIntv = CYBLE_SLOW_SCAN_INTERVAL;
 544              		.loc 1 684 0
 545 0036 144B     		ldr	r3, .L28
 546 0038 8022     		mov	r2, #128
 547 003a 1201     		lsl	r2, r2, #4
 548 003c 5A80     		strh	r2, [r3, #2]
 685:.\Generated_Source\PSoC4/BLE.c ****             cyBle_discoveryInfo.scanWindow = CYBLE_SLOW_SCAN_WINDOW;
 549              		.loc 1 685 0
 550 003e 124B     		ldr	r3, .L28
 551 0040 E122     		mov	r2, #225
 552 0042 D200     		lsl	r2, r2, #3
 553 0044 9A80     		strh	r2, [r3, #4]
 554              	.L25:
 686:.\Generated_Source\PSoC4/BLE.c ****         }       
 687:.\Generated_Source\PSoC4/BLE.c ****         else /* Do not update scanning intervals */
 688:.\Generated_Source\PSoC4/BLE.c ****         {
 689:.\Generated_Source\PSoC4/BLE.c ****         }
 690:.\Generated_Source\PSoC4/BLE.c ****         
 691:.\Generated_Source\PSoC4/BLE.c ****         cyBle_scanningIntervalType = scanningIntervalType;
 555              		.loc 1 691 0
 556 0046 114B     		ldr	r3, .L28+4
 557 0048 FA1D     		add	r2, r7, #7
 558 004a 1278     		ldrb	r2, [r2]
 559 004c 1A70     		strb	r2, [r3]
 692:.\Generated_Source\PSoC4/BLE.c ****         apiResult = CyBle_GapcStartDiscovery(&cyBle_discoveryInfo);
 560              		.loc 1 692 0
ARM GAS  C:\Users\msuro\AppData\Local\Temp\ccOjNMmK.s 			page 23


 561 004e 3C1C     		mov	r4, r7
 562 0050 0E34     		add	r4, r4, #14
 563 0052 0D4B     		ldr	r3, .L28
 564 0054 181C     		mov	r0, r3
 565 0056 FFF7FEFF 		bl	CyBle_GapcStartDiscovery
 566 005a 031C     		mov	r3, r0
 567 005c 2380     		strh	r3, [r4]
 693:.\Generated_Source\PSoC4/BLE.c ****     
 694:.\Generated_Source\PSoC4/BLE.c ****         if(CYBLE_ERROR_OK == apiResult)
 568              		.loc 1 694 0
 569 005e 3B1C     		mov	r3, r7
 570 0060 0E33     		add	r3, r3, #14
 571 0062 1B88     		ldrh	r3, [r3]
 572 0064 002B     		cmp	r3, #0
 573 0066 07D1     		bne	.L26
 695:.\Generated_Source\PSoC4/BLE.c ****         {
 696:.\Generated_Source\PSoC4/BLE.c ****             cyBle_eventHandlerFlag |= CYBLE_START_FLAG;
 574              		.loc 1 696 0
 575 0068 094B     		ldr	r3, .L28+8
 576 006a 1B78     		ldrb	r3, [r3]
 577 006c DBB2     		uxtb	r3, r3
 578 006e 0422     		mov	r2, #4
 579 0070 1343     		orr	r3, r2
 580 0072 DAB2     		uxtb	r2, r3
 581 0074 064B     		ldr	r3, .L28+8
 582 0076 1A70     		strb	r2, [r3]
 583              	.L26:
 697:.\Generated_Source\PSoC4/BLE.c ****         }
 698:.\Generated_Source\PSoC4/BLE.c ****        
 699:.\Generated_Source\PSoC4/BLE.c ****         return (apiResult);
 584              		.loc 1 699 0
 585 0078 3B1C     		mov	r3, r7
 586 007a 0E33     		add	r3, r3, #14
 587 007c 1B88     		ldrh	r3, [r3]
 700:.\Generated_Source\PSoC4/BLE.c ****     }
 588              		.loc 1 700 0
 589 007e 181C     		mov	r0, r3
 590 0080 BD46     		mov	sp, r7
 591 0082 05B0     		add	sp, sp, #20
 592              		@ sp needed
 593 0084 90BD     		pop	{r4, r7, pc}
 594              	.L29:
 595 0086 C046     		.align	2
 596              	.L28:
 597 0088 00000000 		.word	cyBle_discoveryInfo
 598 008c 00000000 		.word	cyBle_scanningIntervalType
 599 0090 00000000 		.word	cyBle_eventHandlerFlag
 600              		.cfi_endproc
 601              	.LFE7:
 602              		.size	CyBle_GapcStartScan, .-CyBle_GapcStartScan
 603              		.section	.text.CyBle_GapcStopScan,"ax",%progbits
 604              		.align	2
 605              		.global	CyBle_GapcStopScan
 606              		.code	16
 607              		.thumb_func
 608              		.type	CyBle_GapcStopScan, %function
 609              	CyBle_GapcStopScan:
ARM GAS  C:\Users\msuro\AppData\Local\Temp\ccOjNMmK.s 			page 24


 610              	.LFB8:
 701:.\Generated_Source\PSoC4/BLE.c ****     
 702:.\Generated_Source\PSoC4/BLE.c ****     
 703:.\Generated_Source\PSoC4/BLE.c ****     /******************************************************************************
 704:.\Generated_Source\PSoC4/BLE.c ****     ##Function Name: CyBle_GapcStopScan
 705:.\Generated_Source\PSoC4/BLE.c ****     *******************************************************************************
 706:.\Generated_Source\PSoC4/BLE.c ****     
 707:.\Generated_Source\PSoC4/BLE.c ****      Summary:
 708:.\Generated_Source\PSoC4/BLE.c ****       This function used to stop the discovery of devices. On stopping discovery
 709:.\Generated_Source\PSoC4/BLE.c ****       operation, CYBLE_EVT_GAPC_SCAN_START_STOP event is generated. Application
 710:.\Generated_Source\PSoC4/BLE.c ****       layer needs to keep track of the function call made before receiving this
 711:.\Generated_Source\PSoC4/BLE.c ****       event to associate this event with either the start or stop discovery
 712:.\Generated_Source\PSoC4/BLE.c ****       function.
 713:.\Generated_Source\PSoC4/BLE.c ****     
 714:.\Generated_Source\PSoC4/BLE.c ****       Possible events generated are:
 715:.\Generated_Source\PSoC4/BLE.c ****        * CYBLE_EVT_GAPC_SCAN_START_STOP
 716:.\Generated_Source\PSoC4/BLE.c ****     
 717:.\Generated_Source\PSoC4/BLE.c ****      Parameters:
 718:.\Generated_Source\PSoC4/BLE.c ****       None
 719:.\Generated_Source\PSoC4/BLE.c ****     
 720:.\Generated_Source\PSoC4/BLE.c ****      Return:
 721:.\Generated_Source\PSoC4/BLE.c ****       None
 722:.\Generated_Source\PSoC4/BLE.c ****     
 723:.\Generated_Source\PSoC4/BLE.c ****     ******************************************************************************/
 724:.\Generated_Source\PSoC4/BLE.c ****     void CyBle_GapcStopScan(void)
 725:.\Generated_Source\PSoC4/BLE.c ****     {
 611              		.loc 1 725 0
 612              		.cfi_startproc
 613 0000 80B5     		push	{r7, lr}
 614              		.cfi_def_cfa_offset 8
 615              		.cfi_offset 7, -8
 616              		.cfi_offset 14, -4
 617 0002 00AF     		add	r7, sp, #0
 618              		.cfi_def_cfa_register 7
 726:.\Generated_Source\PSoC4/BLE.c ****         CyBle_GapcStopDiscovery();
 619              		.loc 1 726 0
 620 0004 FFF7FEFF 		bl	CyBle_GapcStopDiscovery
 727:.\Generated_Source\PSoC4/BLE.c ****         
 728:.\Generated_Source\PSoC4/BLE.c ****         cyBle_eventHandlerFlag |= CYBLE_STOP_FLAG;
 621              		.loc 1 728 0
 622 0008 044B     		ldr	r3, .L31
 623 000a 1B78     		ldrb	r3, [r3]
 624 000c DBB2     		uxtb	r3, r3
 625 000e 0822     		mov	r2, #8
 626 0010 1343     		orr	r3, r2
 627 0012 DAB2     		uxtb	r2, r3
 628 0014 014B     		ldr	r3, .L31
 629 0016 1A70     		strb	r2, [r3]
 729:.\Generated_Source\PSoC4/BLE.c ****     }
 630              		.loc 1 729 0
 631 0018 BD46     		mov	sp, r7
 632              		@ sp needed
 633 001a 80BD     		pop	{r7, pc}
 634              	.L32:
 635              		.align	2
 636              	.L31:
 637 001c 00000000 		.word	cyBle_eventHandlerFlag
ARM GAS  C:\Users\msuro\AppData\Local\Temp\ccOjNMmK.s 			page 25


 638              		.cfi_endproc
 639              	.LFE8:
 640              		.size	CyBle_GapcStopScan, .-CyBle_GapcStopScan
 641              		.section	.text.CyBle_GapcConnectDevice,"ax",%progbits
 642              		.align	2
 643              		.global	CyBle_GapcConnectDevice
 644              		.code	16
 645              		.thumb_func
 646              		.type	CyBle_GapcConnectDevice, %function
 647              	CyBle_GapcConnectDevice:
 648              	.LFB9:
 730:.\Generated_Source\PSoC4/BLE.c **** 
 731:.\Generated_Source\PSoC4/BLE.c ****     
 732:.\Generated_Source\PSoC4/BLE.c **** #endif /* CYBLE_GAP_ROLE_CENTRAL || CYBLE_GAP_ROLE_OBSERVER */
 733:.\Generated_Source\PSoC4/BLE.c **** 
 734:.\Generated_Source\PSoC4/BLE.c **** 
 735:.\Generated_Source\PSoC4/BLE.c **** #if(CYBLE_GAP_ROLE_CENTRAL)
 736:.\Generated_Source\PSoC4/BLE.c **** 
 737:.\Generated_Source\PSoC4/BLE.c ****     /******************************************************************************
 738:.\Generated_Source\PSoC4/BLE.c ****     ##Function Name: CyBle_GapcConnectDevice
 739:.\Generated_Source\PSoC4/BLE.c ****     *******************************************************************************
 740:.\Generated_Source\PSoC4/BLE.c ****     
 741:.\Generated_Source\PSoC4/BLE.c ****     Summary:
 742:.\Generated_Source\PSoC4/BLE.c ****      This function is used to send a connection request to the remote device with
 743:.\Generated_Source\PSoC4/BLE.c ****      the connection parameters set in the component customizer. This function needs
 744:.\Generated_Source\PSoC4/BLE.c ****      to be called only once after the target device is discovered by 
 745:.\Generated_Source\PSoC4/BLE.c ****      CyBle_GapcStartScan() and further scanning has stopped. Scanning is 
 746:.\Generated_Source\PSoC4/BLE.c ****      successfully stopped on invoking CyBle_GapcStopScan() and then receiving the
 747:.\Generated_Source\PSoC4/BLE.c ****      event CYBLE_EVT_GAPC_SCAN_START_STOP with sub-parameter 'success' = 0x01u.
 748:.\Generated_Source\PSoC4/BLE.c ****      
 749:.\Generated_Source\PSoC4/BLE.c ****      On successful connection, the following events are generated at the GAP 
 750:.\Generated_Source\PSoC4/BLE.c ****      Central device (as well as the GAP Peripheral device), in the following order.
 751:.\Generated_Source\PSoC4/BLE.c ****      * CYBLE_EVT_GATT_CONNECT_IND
 752:.\Generated_Source\PSoC4/BLE.c ****      * CYBLE_EVT_GAP_DEVICE_CONNECTED
 753:.\Generated_Source\PSoC4/BLE.c ****  
 754:.\Generated_Source\PSoC4/BLE.c ****      A procedure is considered to have timed out if a connection response packet is 
 755:.\Generated_Source\PSoC4/BLE.c ****      not received within time set by cyBle_connectingTimeout global variable
 756:.\Generated_Source\PSoC4/BLE.c ****      (30 seconds by default). CYBLE_EVT_TIMEOUT event with CYBLE_GENERIC_TO parameter
 757:.\Generated_Source\PSoC4/BLE.c ****      will indicate about connection procedure timeout. Connection will automatically
 758:.\Generated_Source\PSoC4/BLE.c ****      be cancelled and state will be changed to CYBLE_STATE_DISCONNECTED.
 759:.\Generated_Source\PSoC4/BLE.c ****     
 760:.\Generated_Source\PSoC4/BLE.c ****     Parameters:
 761:.\Generated_Source\PSoC4/BLE.c ****      const CYBLE_GAP_BD_ADDR_T address: The device address of the remote device to 
 762:.\Generated_Source\PSoC4/BLE.c ****                                         connect to. 
 763:.\Generated_Source\PSoC4/BLE.c ****      timeout: Timeout for which timer to be started in seconds.
 764:.\Generated_Source\PSoC4/BLE.c ****  
 765:.\Generated_Source\PSoC4/BLE.c ****     Return:
 766:.\Generated_Source\PSoC4/BLE.c ****      CYBLE_API_RESULT_T : Return value indicates if the function succeeded or 
 767:.\Generated_Source\PSoC4/BLE.c ****      failed. Following are the possible error codes.
 768:.\Generated_Source\PSoC4/BLE.c ****      <table>
 769:.\Generated_Source\PSoC4/BLE.c ****       Errors codes                        Description
 770:.\Generated_Source\PSoC4/BLE.c ****       ------------                        -----------
 771:.\Generated_Source\PSoC4/BLE.c ****       CYBLE_ERROR_OK                      On successful operation.
 772:.\Generated_Source\PSoC4/BLE.c ****       CYBLE_ERROR_STACK_INTERNAL          On error occurred in the 
 773:.\Generated_Source\PSoC4/BLE.c ****                                            BLE stack.
 774:.\Generated_Source\PSoC4/BLE.c ****       CYBLE_ERROR_INVALID_PARAMETER       On specifying NULL as input
 775:.\Generated_Source\PSoC4/BLE.c ****                                            parameter for 'scanInfo' or if
ARM GAS  C:\Users\msuro\AppData\Local\Temp\ccOjNMmK.s 			page 26


 776:.\Generated_Source\PSoC4/BLE.c ****                                            any element with in 'scanInfo'
 777:.\Generated_Source\PSoC4/BLE.c ****                                            has an invalid value.
 778:.\Generated_Source\PSoC4/BLE.c ****      </table>
 779:.\Generated_Source\PSoC4/BLE.c ****  
 780:.\Generated_Source\PSoC4/BLE.c ****     ******************************************************************************/
 781:.\Generated_Source\PSoC4/BLE.c ****     CYBLE_API_RESULT_T CyBle_GapcConnectDevice(const CYBLE_GAP_BD_ADDR_T * address)
 782:.\Generated_Source\PSoC4/BLE.c ****     {
 649              		.loc 1 782 0
 650              		.cfi_startproc
 651 0000 90B5     		push	{r4, r7, lr}
 652              		.cfi_def_cfa_offset 12
 653              		.cfi_offset 4, -12
 654              		.cfi_offset 7, -8
 655              		.cfi_offset 14, -4
 656 0002 85B0     		sub	sp, sp, #20
 657              		.cfi_def_cfa_offset 32
 658 0004 00AF     		add	r7, sp, #0
 659              		.cfi_def_cfa_register 7
 660 0006 7860     		str	r0, [r7, #4]
 783:.\Generated_Source\PSoC4/BLE.c ****         CYBLE_API_RESULT_T apiResult;
 784:.\Generated_Source\PSoC4/BLE.c ****         uint8 i;
 785:.\Generated_Source\PSoC4/BLE.c **** 
 786:.\Generated_Source\PSoC4/BLE.c ****         if(CYBLE_STATE_DISCONNECTED != CyBle_GetState())
 661              		.loc 1 786 0
 662 0008 284B     		ldr	r3, .L40
 663 000a 1B78     		ldrb	r3, [r3]
 664 000c 052B     		cmp	r3, #5
 665 000e 05D0     		beq	.L34
 787:.\Generated_Source\PSoC4/BLE.c ****         {
 788:.\Generated_Source\PSoC4/BLE.c ****             apiResult = CYBLE_ERROR_INVALID_STATE;
 666              		.loc 1 788 0
 667 0010 3B1C     		mov	r3, r7
 668 0012 0E33     		add	r3, r3, #14
 669 0014 8322     		mov	r2, #131
 670 0016 5200     		lsl	r2, r2, #1
 671 0018 1A80     		strh	r2, [r3]
 672 001a 40E0     		b	.L35
 673              	.L34:
 789:.\Generated_Source\PSoC4/BLE.c ****         }
 790:.\Generated_Source\PSoC4/BLE.c ****         else if(address == NULL)
 674              		.loc 1 790 0
 675 001c 7B68     		ldr	r3, [r7, #4]
 676 001e 002B     		cmp	r3, #0
 677 0020 04D1     		bne	.L36
 791:.\Generated_Source\PSoC4/BLE.c ****         {
 792:.\Generated_Source\PSoC4/BLE.c ****             apiResult = CYBLE_ERROR_INVALID_PARAMETER;
 678              		.loc 1 792 0
 679 0022 3B1C     		mov	r3, r7
 680 0024 0E33     		add	r3, r3, #14
 681 0026 0122     		mov	r2, #1
 682 0028 1A80     		strh	r2, [r3]
 683 002a 38E0     		b	.L35
 684              	.L36:
 793:.\Generated_Source\PSoC4/BLE.c ****         }
 794:.\Generated_Source\PSoC4/BLE.c ****         else
 795:.\Generated_Source\PSoC4/BLE.c ****         {
 796:.\Generated_Source\PSoC4/BLE.c ****             for(i = 0u; i < CYBLE_GAP_BD_ADDR_SIZE; i++)
ARM GAS  C:\Users\msuro\AppData\Local\Temp\ccOjNMmK.s 			page 27


 685              		.loc 1 796 0
 686 002c 3B1C     		mov	r3, r7
 687 002e 0D33     		add	r3, r3, #13
 688 0030 0022     		mov	r2, #0
 689 0032 1A70     		strb	r2, [r3]
 690 0034 11E0     		b	.L37
 691              	.L38:
 797:.\Generated_Source\PSoC4/BLE.c ****             {
 798:.\Generated_Source\PSoC4/BLE.c ****                 cyBle_connectionParameters.peerBdAddr[i] = address->bdAddr[i];
 692              		.loc 1 798 0 discriminator 2
 693 0036 3B1C     		mov	r3, r7
 694 0038 0D33     		add	r3, r3, #13
 695 003a 1B78     		ldrb	r3, [r3]
 696 003c 3A1C     		mov	r2, r7
 697 003e 0D32     		add	r2, r2, #13
 698 0040 1278     		ldrb	r2, [r2]
 699 0042 7968     		ldr	r1, [r7, #4]
 700 0044 8A5C     		ldrb	r2, [r1, r2]
 701 0046 1A49     		ldr	r1, .L40+4
 702 0048 CB18     		add	r3, r1, r3
 703 004a 5A71     		strb	r2, [r3, #5]
 796:.\Generated_Source\PSoC4/BLE.c ****             for(i = 0u; i < CYBLE_GAP_BD_ADDR_SIZE; i++)
 704              		.loc 1 796 0 discriminator 2
 705 004c 3B1C     		mov	r3, r7
 706 004e 0D33     		add	r3, r3, #13
 707 0050 1A78     		ldrb	r2, [r3]
 708 0052 3B1C     		mov	r3, r7
 709 0054 0D33     		add	r3, r3, #13
 710 0056 0132     		add	r2, r2, #1
 711 0058 1A70     		strb	r2, [r3]
 712              	.L37:
 796:.\Generated_Source\PSoC4/BLE.c ****             for(i = 0u; i < CYBLE_GAP_BD_ADDR_SIZE; i++)
 713              		.loc 1 796 0 is_stmt 0 discriminator 1
 714 005a 3B1C     		mov	r3, r7
 715 005c 0D33     		add	r3, r3, #13
 716 005e 1B78     		ldrb	r3, [r3]
 717 0060 052B     		cmp	r3, #5
 718 0062 E8D9     		bls	.L38
 799:.\Generated_Source\PSoC4/BLE.c ****             }
 800:.\Generated_Source\PSoC4/BLE.c ****             cyBle_connectionParameters.peerAddrType = address -> type;
 719              		.loc 1 800 0 is_stmt 1
 720 0064 7B68     		ldr	r3, [r7, #4]
 721 0066 9A79     		ldrb	r2, [r3, #6]
 722 0068 114B     		ldr	r3, .L40+4
 723 006a DA72     		strb	r2, [r3, #11]
 801:.\Generated_Source\PSoC4/BLE.c ****             apiResult = CyBle_GapcInitConnection(&cyBle_connectionParameters);
 724              		.loc 1 801 0
 725 006c 3C1C     		mov	r4, r7
 726 006e 0E34     		add	r4, r4, #14
 727 0070 0F4B     		ldr	r3, .L40+4
 728 0072 181C     		mov	r0, r3
 729 0074 FFF7FEFF 		bl	CyBle_GapcInitConnection
 730 0078 031C     		mov	r3, r0
 731 007a 2380     		strh	r3, [r4]
 802:.\Generated_Source\PSoC4/BLE.c ****             
 803:.\Generated_Source\PSoC4/BLE.c ****             if(CYBLE_ERROR_OK == apiResult)
 732              		.loc 1 803 0
ARM GAS  C:\Users\msuro\AppData\Local\Temp\ccOjNMmK.s 			page 28


 733 007c 3B1C     		mov	r3, r7
 734 007e 0E33     		add	r3, r3, #14
 735 0080 1B88     		ldrh	r3, [r3]
 736 0082 002B     		cmp	r3, #0
 737 0084 0BD1     		bne	.L35
 804:.\Generated_Source\PSoC4/BLE.c ****             {
 805:.\Generated_Source\PSoC4/BLE.c ****                 CyBle_SetState(CYBLE_STATE_CONNECTING);
 738              		.loc 1 805 0
 739 0086 094B     		ldr	r3, .L40
 740 0088 0422     		mov	r2, #4
 741 008a 1A70     		strb	r2, [r3]
 806:.\Generated_Source\PSoC4/BLE.c ****                 if(cyBle_connectingTimeout != 0u)
 742              		.loc 1 806 0
 743 008c 094B     		ldr	r3, .L40+8
 744 008e 1B88     		ldrh	r3, [r3]
 745 0090 002B     		cmp	r3, #0
 746 0092 04D0     		beq	.L35
 807:.\Generated_Source\PSoC4/BLE.c ****                 {
 808:.\Generated_Source\PSoC4/BLE.c ****                     (void)CyBle_StartTimer(cyBle_connectingTimeout);
 747              		.loc 1 808 0
 748 0094 074B     		ldr	r3, .L40+8
 749 0096 1B88     		ldrh	r3, [r3]
 750 0098 181C     		mov	r0, r3
 751 009a FFF7FEFF 		bl	CyBle_StartTimer
 752              	.L35:
 809:.\Generated_Source\PSoC4/BLE.c ****                 }
 810:.\Generated_Source\PSoC4/BLE.c ****             }
 811:.\Generated_Source\PSoC4/BLE.c ****         }
 812:.\Generated_Source\PSoC4/BLE.c ****         return (apiResult);
 753              		.loc 1 812 0
 754 009e 3B1C     		mov	r3, r7
 755 00a0 0E33     		add	r3, r3, #14
 756 00a2 1B88     		ldrh	r3, [r3]
 813:.\Generated_Source\PSoC4/BLE.c ****     }
 757              		.loc 1 813 0
 758 00a4 181C     		mov	r0, r3
 759 00a6 BD46     		mov	sp, r7
 760 00a8 05B0     		add	sp, sp, #20
 761              		@ sp needed
 762 00aa 90BD     		pop	{r4, r7, pc}
 763              	.L41:
 764              		.align	2
 765              	.L40:
 766 00ac 00000000 		.word	cyBle_state
 767 00b0 00000000 		.word	cyBle_connectionParameters
 768 00b4 00000000 		.word	cyBle_connectingTimeout
 769              		.cfi_endproc
 770              	.LFE9:
 771              		.size	CyBle_GapcConnectDevice, .-CyBle_GapcConnectDevice
 772              		.section	.text.CyBle_GapcCancelDeviceConnection,"ax",%progbits
 773              		.align	2
 774              		.global	CyBle_GapcCancelDeviceConnection
 775              		.code	16
 776              		.thumb_func
 777              		.type	CyBle_GapcCancelDeviceConnection, %function
 778              	CyBle_GapcCancelDeviceConnection:
 779              	.LFB10:
ARM GAS  C:\Users\msuro\AppData\Local\Temp\ccOjNMmK.s 			page 29


 814:.\Generated_Source\PSoC4/BLE.c ****     
 815:.\Generated_Source\PSoC4/BLE.c **** 
 816:.\Generated_Source\PSoC4/BLE.c ****     /******************************************************************************
 817:.\Generated_Source\PSoC4/BLE.c ****     ##Function Name: CyBle_GapcCancelDeviceConnection
 818:.\Generated_Source\PSoC4/BLE.c ****     *******************************************************************************
 819:.\Generated_Source\PSoC4/BLE.c ****     
 820:.\Generated_Source\PSoC4/BLE.c ****     Summary:
 821:.\Generated_Source\PSoC4/BLE.c ****      This function cancels a previously initiated connection with the remote 
 822:.\Generated_Source\PSoC4/BLE.c ****      device. It is a blocking function. No event is generated on calling this 
 823:.\Generated_Source\PSoC4/BLE.c ****      function. If the devices are already connected then this function should not
 824:.\Generated_Source\PSoC4/BLE.c ****      be used. If you intend to disconnect from an existing connection, the function
 825:.\Generated_Source\PSoC4/BLE.c ****      CyBle_GapDisconnect() should be used.
 826:.\Generated_Source\PSoC4/BLE.c **** 
 827:.\Generated_Source\PSoC4/BLE.c ****     Parameters:
 828:.\Generated_Source\PSoC4/BLE.c ****      None
 829:.\Generated_Source\PSoC4/BLE.c **** 
 830:.\Generated_Source\PSoC4/BLE.c ****     Return:
 831:.\Generated_Source\PSoC4/BLE.c ****      CYBLE_API_RESULT_T : Return value indicates if the function succeeded or 
 832:.\Generated_Source\PSoC4/BLE.c ****      failed. Following are the possible error codes.
 833:.\Generated_Source\PSoC4/BLE.c ****      <table>
 834:.\Generated_Source\PSoC4/BLE.c ****       Errors codes                        Description
 835:.\Generated_Source\PSoC4/BLE.c ****       ------------                        -----------
 836:.\Generated_Source\PSoC4/BLE.c ****       CYBLE_ERROR_OK                      On successful operation.
 837:.\Generated_Source\PSoC4/BLE.c ****       CYBLE_ERROR_STACK_INTERNAL          An error occurred in the 
 838:.\Generated_Source\PSoC4/BLE.c ****                                            BLE stack.
 839:.\Generated_Source\PSoC4/BLE.c ****       CYBLE_ERROR_INVALID_OPERATION       Device is already connected.
 840:.\Generated_Source\PSoC4/BLE.c ****      </table>
 841:.\Generated_Source\PSoC4/BLE.c ****  
 842:.\Generated_Source\PSoC4/BLE.c ****     ******************************************************************************/
 843:.\Generated_Source\PSoC4/BLE.c ****     CYBLE_API_RESULT_T CyBle_GapcCancelDeviceConnection(void)
 844:.\Generated_Source\PSoC4/BLE.c ****     {
 780              		.loc 1 844 0
 781              		.cfi_startproc
 782 0000 90B5     		push	{r4, r7, lr}
 783              		.cfi_def_cfa_offset 12
 784              		.cfi_offset 4, -12
 785              		.cfi_offset 7, -8
 786              		.cfi_offset 14, -4
 787 0002 83B0     		sub	sp, sp, #12
 788              		.cfi_def_cfa_offset 24
 789 0004 00AF     		add	r7, sp, #0
 790              		.cfi_def_cfa_register 7
 845:.\Generated_Source\PSoC4/BLE.c ****         CYBLE_API_RESULT_T apiResult;
 846:.\Generated_Source\PSoC4/BLE.c ****         
 847:.\Generated_Source\PSoC4/BLE.c ****         apiResult = CyBle_GapcCancelConnection();
 791              		.loc 1 847 0
 792 0006 BC1D     		add	r4, r7, #6
 793 0008 FFF7FEFF 		bl	CyBle_GapcCancelConnection
 794 000c 031C     		mov	r3, r0
 795 000e 2380     		strh	r3, [r4]
 848:.\Generated_Source\PSoC4/BLE.c ****             
 849:.\Generated_Source\PSoC4/BLE.c ****         if(cyBle_connectingTimeout != 0u)
 796              		.loc 1 849 0
 797 0010 094B     		ldr	r3, .L46
 798 0012 1B88     		ldrh	r3, [r3]
 799 0014 002B     		cmp	r3, #0
 800 0016 01D0     		beq	.L43
ARM GAS  C:\Users\msuro\AppData\Local\Temp\ccOjNMmK.s 			page 30


 850:.\Generated_Source\PSoC4/BLE.c ****         {
 851:.\Generated_Source\PSoC4/BLE.c ****             (void)CyBle_StopTimer();
 801              		.loc 1 851 0
 802 0018 FFF7FEFF 		bl	CyBle_StopTimer
 803              	.L43:
 852:.\Generated_Source\PSoC4/BLE.c ****         }
 853:.\Generated_Source\PSoC4/BLE.c **** 
 854:.\Generated_Source\PSoC4/BLE.c ****         if(CYBLE_ERROR_OK == apiResult)
 804              		.loc 1 854 0
 805 001c BB1D     		add	r3, r7, #6
 806 001e 1B88     		ldrh	r3, [r3]
 807 0020 002B     		cmp	r3, #0
 808 0022 02D1     		bne	.L44
 855:.\Generated_Source\PSoC4/BLE.c ****         {
 856:.\Generated_Source\PSoC4/BLE.c ****             CyBle_SetState(CYBLE_STATE_DISCONNECTED);
 809              		.loc 1 856 0
 810 0024 054B     		ldr	r3, .L46+4
 811 0026 0522     		mov	r2, #5
 812 0028 1A70     		strb	r2, [r3]
 813              	.L44:
 857:.\Generated_Source\PSoC4/BLE.c ****         }
 858:.\Generated_Source\PSoC4/BLE.c ****         return (apiResult);
 814              		.loc 1 858 0
 815 002a BB1D     		add	r3, r7, #6
 816 002c 1B88     		ldrh	r3, [r3]
 859:.\Generated_Source\PSoC4/BLE.c ****     }    
 817              		.loc 1 859 0
 818 002e 181C     		mov	r0, r3
 819 0030 BD46     		mov	sp, r7
 820 0032 03B0     		add	sp, sp, #12
 821              		@ sp needed
 822 0034 90BD     		pop	{r4, r7, pc}
 823              	.L47:
 824 0036 C046     		.align	2
 825              	.L46:
 826 0038 00000000 		.word	cyBle_connectingTimeout
 827 003c 00000000 		.word	cyBle_state
 828              		.cfi_endproc
 829              	.LFE10:
 830              		.size	CyBle_GapcCancelDeviceConnection, .-CyBle_GapcCancelDeviceConnection
 831              		.section	.text.CyBle_GapSetLocalName,"ax",%progbits
 832              		.align	2
 833              		.global	CyBle_GapSetLocalName
 834              		.code	16
 835              		.thumb_func
 836              		.type	CyBle_GapSetLocalName, %function
 837              	CyBle_GapSetLocalName:
 838              	.LFB11:
 860:.\Generated_Source\PSoC4/BLE.c **** 
 861:.\Generated_Source\PSoC4/BLE.c ****     
 862:.\Generated_Source\PSoC4/BLE.c **** #endif /* CYBLE_GAP_ROLE_CENTRAL */
 863:.\Generated_Source\PSoC4/BLE.c **** 
 864:.\Generated_Source\PSoC4/BLE.c **** 
 865:.\Generated_Source\PSoC4/BLE.c **** #if(CYBLE_GATT_ROLE_SERVER)
 866:.\Generated_Source\PSoC4/BLE.c **** 
 867:.\Generated_Source\PSoC4/BLE.c **** #if(CYBLE_GAP_ROLE_PERIPHERAL)
 868:.\Generated_Source\PSoC4/BLE.c **** 
ARM GAS  C:\Users\msuro\AppData\Local\Temp\ccOjNMmK.s 			page 31


 869:.\Generated_Source\PSoC4/BLE.c ****         /******************************************************************************
 870:.\Generated_Source\PSoC4/BLE.c ****         ##Function Name: CyBle_ChangeAdLocalName
 871:.\Generated_Source\PSoC4/BLE.c ****         *******************************************************************************
 872:.\Generated_Source\PSoC4/BLE.c ****         Summary:
 873:.\Generated_Source\PSoC4/BLE.c ****          This API is used to set the local device name in the advertisement or scan 
 874:.\Generated_Source\PSoC4/BLE.c ****          response data structure.
 875:.\Generated_Source\PSoC4/BLE.c **** 
 876:.\Generated_Source\PSoC4/BLE.c ****         Parameters:
 877:.\Generated_Source\PSoC4/BLE.c ****          char8 name: The local device name string to be set in advertisement data 
 878:.\Generated_Source\PSoC4/BLE.c ****                    structure.
 879:.\Generated_Source\PSoC4/BLE.c ****          uint8 dest: 0 - avrevtisement structure, not zero value selects scan response
 880:.\Generated_Source\PSoC4/BLE.c ****                      structure.
 881:.\Generated_Source\PSoC4/BLE.c **** 
 882:.\Generated_Source\PSoC4/BLE.c ****         Return:
 883:.\Generated_Source\PSoC4/BLE.c ****          None
 884:.\Generated_Source\PSoC4/BLE.c ****      
 885:.\Generated_Source\PSoC4/BLE.c ****         ******************************************************************************/
 886:.\Generated_Source\PSoC4/BLE.c ****         static void CyBle_ChangeAdLocalName(const char8 name[], uint8 dest)
 887:.\Generated_Source\PSoC4/BLE.c ****         {
 888:.\Generated_Source\PSoC4/BLE.c ****             uint8 i;
 889:.\Generated_Source\PSoC4/BLE.c ****             uint8 flag = 0u;
 890:.\Generated_Source\PSoC4/BLE.c ****             uint8 adLength = 0u;
 891:.\Generated_Source\PSoC4/BLE.c ****             uint8 byteCounter = 0u;
 892:.\Generated_Source\PSoC4/BLE.c ****             uint8 *destBuffer;
 893:.\Generated_Source\PSoC4/BLE.c ****             uint8 maxLength;
 894:.\Generated_Source\PSoC4/BLE.c ****             
 895:.\Generated_Source\PSoC4/BLE.c ****             if(dest == 0u)      /* Destination - advertising structure */
 896:.\Generated_Source\PSoC4/BLE.c ****             {
 897:.\Generated_Source\PSoC4/BLE.c ****                 destBuffer = cyBle_discoveryData.advData;
 898:.\Generated_Source\PSoC4/BLE.c ****                 maxLength = cyBle_discoveryData.advDataLen;
 899:.\Generated_Source\PSoC4/BLE.c ****             }
 900:.\Generated_Source\PSoC4/BLE.c ****             else                /* Destination - scan response structure */
 901:.\Generated_Source\PSoC4/BLE.c ****             {
 902:.\Generated_Source\PSoC4/BLE.c ****                 destBuffer = cyBle_scanRspData.scanRspData;
 903:.\Generated_Source\PSoC4/BLE.c ****                 maxLength = cyBle_scanRspData.scanRspDataLen;
 904:.\Generated_Source\PSoC4/BLE.c ****             }
 905:.\Generated_Source\PSoC4/BLE.c ****             
 906:.\Generated_Source\PSoC4/BLE.c ****             while((byteCounter < maxLength) && (0u == flag))
 907:.\Generated_Source\PSoC4/BLE.c ****             {
 908:.\Generated_Source\PSoC4/BLE.c ****                 adLength = destBuffer[byteCounter];
 909:.\Generated_Source\PSoC4/BLE.c ****                 
 910:.\Generated_Source\PSoC4/BLE.c ****                 if(0u != adLength)
 911:.\Generated_Source\PSoC4/BLE.c ****                 {
 912:.\Generated_Source\PSoC4/BLE.c ****                     /* Increment byte counter so it can point to AD type */
 913:.\Generated_Source\PSoC4/BLE.c ****                     byteCounter++;
 914:.\Generated_Source\PSoC4/BLE.c ****                     
 915:.\Generated_Source\PSoC4/BLE.c ****                     if((CYBLE_SHORT_LOCAL_NAME == destBuffer[byteCounter]) || 
 916:.\Generated_Source\PSoC4/BLE.c ****                         (CYBLE_COMPLETE_LOCAL_NAME == destBuffer[byteCounter]))
 917:.\Generated_Source\PSoC4/BLE.c ****                     {
 918:.\Generated_Source\PSoC4/BLE.c ****                         /* Start of the Local Name AD type was fount. Set flag and exit the loop. *
 919:.\Generated_Source\PSoC4/BLE.c ****                         flag = 1u;
 920:.\Generated_Source\PSoC4/BLE.c ****                     }
 921:.\Generated_Source\PSoC4/BLE.c ****                     else
 922:.\Generated_Source\PSoC4/BLE.c ****                     {
 923:.\Generated_Source\PSoC4/BLE.c ****                         byteCounter += adLength;
 924:.\Generated_Source\PSoC4/BLE.c ****                     }
 925:.\Generated_Source\PSoC4/BLE.c ****                 }
ARM GAS  C:\Users\msuro\AppData\Local\Temp\ccOjNMmK.s 			page 32


 926:.\Generated_Source\PSoC4/BLE.c ****                 else
 927:.\Generated_Source\PSoC4/BLE.c ****                 {
 928:.\Generated_Source\PSoC4/BLE.c ****                     /* The end of advertisement data structure was encountered though exit the 
 929:.\Generated_Source\PSoC4/BLE.c ****                       loop. */
 930:.\Generated_Source\PSoC4/BLE.c ****                     break;
 931:.\Generated_Source\PSoC4/BLE.c ****                 }
 932:.\Generated_Source\PSoC4/BLE.c ****             }
 933:.\Generated_Source\PSoC4/BLE.c ****             
 934:.\Generated_Source\PSoC4/BLE.c ****             if(0u != flag)
 935:.\Generated_Source\PSoC4/BLE.c ****             {
 936:.\Generated_Source\PSoC4/BLE.c ****                 /* Reuse "adLength" to hold location of the last character of local name in 
 937:.\Generated_Source\PSoC4/BLE.c ****                    AD structure. */
 938:.\Generated_Source\PSoC4/BLE.c ****                 adLength += byteCounter;
 939:.\Generated_Source\PSoC4/BLE.c ****                 
 940:.\Generated_Source\PSoC4/BLE.c ****                 /* Increment byte counter to point to start of the local Name string */
 941:.\Generated_Source\PSoC4/BLE.c ****                 byteCounter++;
 942:.\Generated_Source\PSoC4/BLE.c ****                 
 943:.\Generated_Source\PSoC4/BLE.c ****                 for(i = byteCounter; ((i < (adLength)) && (CYBLE_NULL_CHARCTER != name[i - byteCoun
 944:.\Generated_Source\PSoC4/BLE.c ****                 {
 945:.\Generated_Source\PSoC4/BLE.c ****                     destBuffer[i] = (uint8)name[i - byteCounter];
 946:.\Generated_Source\PSoC4/BLE.c ****                 }
 947:.\Generated_Source\PSoC4/BLE.c ****                 
 948:.\Generated_Source\PSoC4/BLE.c ****                 /* This loop handles the case when new local name is shorted than old one.
 949:.\Generated_Source\PSoC4/BLE.c ****                    In this case all remaining characters should be null characters. */
 950:.\Generated_Source\PSoC4/BLE.c ****                 while(adLength > i)
 951:.\Generated_Source\PSoC4/BLE.c ****                 {
 952:.\Generated_Source\PSoC4/BLE.c ****                     /* Terminate string */
 953:.\Generated_Source\PSoC4/BLE.c ****                     destBuffer[i] = (uint8)CYBLE_NULL_CHARCTER;
 954:.\Generated_Source\PSoC4/BLE.c ****                     i++;
 955:.\Generated_Source\PSoC4/BLE.c ****                 }
 956:.\Generated_Source\PSoC4/BLE.c ****             }
 957:.\Generated_Source\PSoC4/BLE.c ****         }
 958:.\Generated_Source\PSoC4/BLE.c ****         
 959:.\Generated_Source\PSoC4/BLE.c **** #endif /* (CYBLE_GAP_ROLE_PERIPHERAL) */  
 960:.\Generated_Source\PSoC4/BLE.c ****     
 961:.\Generated_Source\PSoC4/BLE.c ****     
 962:.\Generated_Source\PSoC4/BLE.c ****     /******************************************************************************
 963:.\Generated_Source\PSoC4/BLE.c ****     ##Function Name: CyBle_GapSetLocalName
 964:.\Generated_Source\PSoC4/BLE.c ****     *******************************************************************************
 965:.\Generated_Source\PSoC4/BLE.c ****     Summary:
 966:.\Generated_Source\PSoC4/BLE.c ****      This API is used to set the local device name - a Characteristic of the 
 967:.\Generated_Source\PSoC4/BLE.c ****      GAP Service. If the characteristic length entered in the component customizer
 968:.\Generated_Source\PSoC4/BLE.c ****      is shorter than the string specified by the "name" parameter, the local device
 969:.\Generated_Source\PSoC4/BLE.c ****      name will be cut to the length specified in the customizer.
 970:.\Generated_Source\PSoC4/BLE.c **** 
 971:.\Generated_Source\PSoC4/BLE.c ****     Parameters:
 972:.\Generated_Source\PSoC4/BLE.c ****      char8 name: The local device name string. The name string to be written as
 973:.\Generated_Source\PSoC4/BLE.c ****                  the local device name. It represents a UTF-8 encoded User
 974:.\Generated_Source\PSoC4/BLE.c ****                  Friendly Descriptive Name for the device. The length of the local
 975:.\Generated_Source\PSoC4/BLE.c ****                  device string is entered into the component customizer and it can
 976:.\Generated_Source\PSoC4/BLE.c ****                  be set to a value from 0 to 248 bytes. If the name contained in
 977:.\Generated_Source\PSoC4/BLE.c ****                  the parameter is shorter than the length from the customizer, the
 978:.\Generated_Source\PSoC4/BLE.c ****                  end of the name is indicated by a NULL octet (0x00).
 979:.\Generated_Source\PSoC4/BLE.c **** 
 980:.\Generated_Source\PSoC4/BLE.c ****     Return:
 981:.\Generated_Source\PSoC4/BLE.c ****      CYBLE_API_RESULT_T : Return value indicates if the function succeeded or 
 982:.\Generated_Source\PSoC4/BLE.c ****      failed. Following are the possible error codes.
ARM GAS  C:\Users\msuro\AppData\Local\Temp\ccOjNMmK.s 			page 33


 983:.\Generated_Source\PSoC4/BLE.c ****      <table>
 984:.\Generated_Source\PSoC4/BLE.c ****       Errors codes                        Description
 985:.\Generated_Source\PSoC4/BLE.c ****       ------------                        -----------
 986:.\Generated_Source\PSoC4/BLE.c ****       CYBLE_ERROR_OK                      Function completed successfully.
 987:.\Generated_Source\PSoC4/BLE.c ****       CYBLE_ERROR_INVALID_PARAMETER       On specifying NULL as input parameter
 988:.\Generated_Source\PSoC4/BLE.c ****      </table>
 989:.\Generated_Source\PSoC4/BLE.c ****  
 990:.\Generated_Source\PSoC4/BLE.c ****     ******************************************************************************/
 991:.\Generated_Source\PSoC4/BLE.c ****     CYBLE_API_RESULT_T CyBle_GapSetLocalName(const char8 name[])
 992:.\Generated_Source\PSoC4/BLE.c ****     {
 839              		.loc 1 992 0
 840              		.cfi_startproc
 841 0000 80B5     		push	{r7, lr}
 842              		.cfi_def_cfa_offset 8
 843              		.cfi_offset 7, -8
 844              		.cfi_offset 14, -4
 845 0002 86B0     		sub	sp, sp, #24
 846              		.cfi_def_cfa_offset 32
 847 0004 00AF     		add	r7, sp, #0
 848              		.cfi_def_cfa_register 7
 849 0006 7860     		str	r0, [r7, #4]
 993:.\Generated_Source\PSoC4/BLE.c ****         CYBLE_API_RESULT_T apiResult = CYBLE_ERROR_OK;
 850              		.loc 1 993 0
 851 0008 3B1C     		mov	r3, r7
 852 000a 1633     		add	r3, r3, #22
 853 000c 0022     		mov	r2, #0
 854 000e 1A80     		strh	r2, [r3]
 994:.\Generated_Source\PSoC4/BLE.c ****         uint8 i;
 995:.\Generated_Source\PSoC4/BLE.c ****         char8 *ptr;
 996:.\Generated_Source\PSoC4/BLE.c ****         uint8 charLen;
 997:.\Generated_Source\PSoC4/BLE.c **** 
 998:.\Generated_Source\PSoC4/BLE.c ****         if(NULL != name)
 855              		.loc 1 998 0
 856 0010 7B68     		ldr	r3, [r7, #4]
 857 0012 002B     		cmp	r3, #0
 858 0014 38D0     		beq	.L49
 999:.\Generated_Source\PSoC4/BLE.c ****         {
1000:.\Generated_Source\PSoC4/BLE.c ****             /* Get the pointer to the Device Name characteristic  */
1001:.\Generated_Source\PSoC4/BLE.c ****             ptr = (char8 *)
 859              		.loc 1 1001 0
 860 0016 224B     		ldr	r3, .L55
 861 0018 9B6B     		ldr	r3, [r3, #56]
 862 001a 3B61     		str	r3, [r7, #16]
1002:.\Generated_Source\PSoC4/BLE.c ****                 cyBle_gattDB[CYBLE_GAP_DEVICE_NAME_INDEX].attValue.attFormatValue.attGenericVal;
1003:.\Generated_Source\PSoC4/BLE.c **** 
1004:.\Generated_Source\PSoC4/BLE.c ****             /* First need to get the length of the characteristic data in the GATT
1005:.\Generated_Source\PSoC4/BLE.c ****                 database to make sure there is enough place for the data. The length
1006:.\Generated_Source\PSoC4/BLE.c ****                 can't be longer than 248, so only the LSB of 16 bit of length is to
1007:.\Generated_Source\PSoC4/BLE.c ****                 be used. */
1008:.\Generated_Source\PSoC4/BLE.c ****             charLen = (uint8) cyBle_gattDB[CYBLE_GAP_DEVICE_NAME_INDEX].attValue.attFormatValue.len
 863              		.loc 1 1008 0
 864 001c 204B     		ldr	r3, .L55
 865 001e 9A8E     		ldrh	r2, [r3, #52]
 866 0020 3B1C     		mov	r3, r7
 867 0022 0F33     		add	r3, r3, #15
 868 0024 1A70     		strb	r2, [r3]
1009:.\Generated_Source\PSoC4/BLE.c **** 
ARM GAS  C:\Users\msuro\AppData\Local\Temp\ccOjNMmK.s 			page 34


1010:.\Generated_Source\PSoC4/BLE.c ****             /* Copy name into characteristic */
1011:.\Generated_Source\PSoC4/BLE.c ****             for(i = 0u; ((i < (charLen - 1u)) && (CYBLE_NULL_CHARCTER != name[i])); i++)
 869              		.loc 1 1011 0
 870 0026 3B1C     		mov	r3, r7
 871 0028 1533     		add	r3, r3, #21
 872 002a 0022     		mov	r2, #0
 873 002c 1A70     		strb	r2, [r3]
 874 002e 12E0     		b	.L50
 875              	.L52:
1012:.\Generated_Source\PSoC4/BLE.c ****             {
1013:.\Generated_Source\PSoC4/BLE.c ****                 ptr[i] = name[i];
 876              		.loc 1 1013 0 discriminator 1
 877 0030 3B1C     		mov	r3, r7
 878 0032 1533     		add	r3, r3, #21
 879 0034 1B78     		ldrb	r3, [r3]
 880 0036 3A69     		ldr	r2, [r7, #16]
 881 0038 D318     		add	r3, r2, r3
 882 003a 3A1C     		mov	r2, r7
 883 003c 1532     		add	r2, r2, #21
 884 003e 1278     		ldrb	r2, [r2]
 885 0040 7968     		ldr	r1, [r7, #4]
 886 0042 8A18     		add	r2, r1, r2
 887 0044 1278     		ldrb	r2, [r2]
 888 0046 1A70     		strb	r2, [r3]
1011:.\Generated_Source\PSoC4/BLE.c ****             for(i = 0u; ((i < (charLen - 1u)) && (CYBLE_NULL_CHARCTER != name[i])); i++)
 889              		.loc 1 1011 0 discriminator 1
 890 0048 3B1C     		mov	r3, r7
 891 004a 1533     		add	r3, r3, #21
 892 004c 1A78     		ldrb	r2, [r3]
 893 004e 3B1C     		mov	r3, r7
 894 0050 1533     		add	r3, r3, #21
 895 0052 0132     		add	r2, r2, #1
 896 0054 1A70     		strb	r2, [r3]
 897              	.L50:
 898 0056 3B1C     		mov	r3, r7
 899 0058 1533     		add	r3, r3, #21
 900 005a 1A78     		ldrb	r2, [r3]
 901 005c 3B1C     		mov	r3, r7
 902 005e 0F33     		add	r3, r3, #15
 903 0060 1B78     		ldrb	r3, [r3]
 904 0062 013B     		sub	r3, r3, #1
 905 0064 9A42     		cmp	r2, r3
 906 0066 07D2     		bcs	.L51
1011:.\Generated_Source\PSoC4/BLE.c ****             for(i = 0u; ((i < (charLen - 1u)) && (CYBLE_NULL_CHARCTER != name[i])); i++)
 907              		.loc 1 1011 0 is_stmt 0 discriminator 2
 908 0068 3B1C     		mov	r3, r7
 909 006a 1533     		add	r3, r3, #21
 910 006c 1B78     		ldrb	r3, [r3]
 911 006e 7A68     		ldr	r2, [r7, #4]
 912 0070 D318     		add	r3, r2, r3
 913 0072 1B78     		ldrb	r3, [r3]
 914 0074 002B     		cmp	r3, #0
 915 0076 DBD1     		bne	.L52
 916              	.L51:
1014:.\Generated_Source\PSoC4/BLE.c ****             }
1015:.\Generated_Source\PSoC4/BLE.c **** 
1016:.\Generated_Source\PSoC4/BLE.c ****             /* Terminate string */
ARM GAS  C:\Users\msuro\AppData\Local\Temp\ccOjNMmK.s 			page 35


1017:.\Generated_Source\PSoC4/BLE.c ****             ptr[i] = CYBLE_NULL_CHARCTER;
 917              		.loc 1 1017 0 is_stmt 1
 918 0078 3B1C     		mov	r3, r7
 919 007a 1533     		add	r3, r3, #21
 920 007c 1B78     		ldrb	r3, [r3]
 921 007e 3A69     		ldr	r2, [r7, #16]
 922 0080 D318     		add	r3, r2, r3
 923 0082 0022     		mov	r2, #0
 924 0084 1A70     		strb	r2, [r3]
 925 0086 03E0     		b	.L53
 926              	.L49:
1018:.\Generated_Source\PSoC4/BLE.c ****             
1019:.\Generated_Source\PSoC4/BLE.c ****             /* Update device name in advertising and scan response structure */
1020:.\Generated_Source\PSoC4/BLE.c ****             #if(CYBLE_GAP_ROLE_PERIPHERAL)
1021:.\Generated_Source\PSoC4/BLE.c ****                 CyBle_ChangeAdLocalName(name, 0u);
1022:.\Generated_Source\PSoC4/BLE.c ****                 CyBle_ChangeAdLocalName(name, 1u);
1023:.\Generated_Source\PSoC4/BLE.c ****             #endif /* (CYBLE_GAP_ROLE_PERIPHERAL) */
1024:.\Generated_Source\PSoC4/BLE.c ****         }
1025:.\Generated_Source\PSoC4/BLE.c ****         else
1026:.\Generated_Source\PSoC4/BLE.c ****         {
1027:.\Generated_Source\PSoC4/BLE.c ****             apiResult = CYBLE_ERROR_INVALID_PARAMETER;
 927              		.loc 1 1027 0
 928 0088 3B1C     		mov	r3, r7
 929 008a 1633     		add	r3, r3, #22
 930 008c 0122     		mov	r2, #1
 931 008e 1A80     		strh	r2, [r3]
 932              	.L53:
1028:.\Generated_Source\PSoC4/BLE.c ****         }
1029:.\Generated_Source\PSoC4/BLE.c ****         
1030:.\Generated_Source\PSoC4/BLE.c ****         return(apiResult);
 933              		.loc 1 1030 0
 934 0090 3B1C     		mov	r3, r7
 935 0092 1633     		add	r3, r3, #22
 936 0094 1B88     		ldrh	r3, [r3]
1031:.\Generated_Source\PSoC4/BLE.c ****     }
 937              		.loc 1 1031 0
 938 0096 181C     		mov	r0, r3
 939 0098 BD46     		mov	sp, r7
 940 009a 06B0     		add	sp, sp, #24
 941              		@ sp needed
 942 009c 80BD     		pop	{r7, pc}
 943              	.L56:
 944 009e C046     		.align	2
 945              	.L55:
 946 00a0 00000000 		.word	cyBle_gattDB
 947              		.cfi_endproc
 948              	.LFE11:
 949              		.size	CyBle_GapSetLocalName, .-CyBle_GapSetLocalName
 950              		.section	.text.CyBle_GapGetLocalName,"ax",%progbits
 951              		.align	2
 952              		.global	CyBle_GapGetLocalName
 953              		.code	16
 954              		.thumb_func
 955              		.type	CyBle_GapGetLocalName, %function
 956              	CyBle_GapGetLocalName:
 957              	.LFB12:
1032:.\Generated_Source\PSoC4/BLE.c **** 
ARM GAS  C:\Users\msuro\AppData\Local\Temp\ccOjNMmK.s 			page 36


1033:.\Generated_Source\PSoC4/BLE.c **** 
1034:.\Generated_Source\PSoC4/BLE.c ****     /******************************************************************************
1035:.\Generated_Source\PSoC4/BLE.c ****     ##Function Name: CyBle_GapGetLocalName
1036:.\Generated_Source\PSoC4/BLE.c ****     *******************************************************************************
1037:.\Generated_Source\PSoC4/BLE.c ****  
1038:.\Generated_Source\PSoC4/BLE.c ****     Summary:
1039:.\Generated_Source\PSoC4/BLE.c ****      This API is used to read the local device name - a Characteristic of the 
1040:.\Generated_Source\PSoC4/BLE.c ****      GAP Service.
1041:.\Generated_Source\PSoC4/BLE.c **** 
1042:.\Generated_Source\PSoC4/BLE.c ****     Parameters:
1043:.\Generated_Source\PSoC4/BLE.c ****     char8 name: The local device name string. Used to read the local name to the
1044:.\Generated_Source\PSoC4/BLE.c ****                 given string array. It represents a UTF-8 encoded User Friendly 
1045:.\Generated_Source\PSoC4/BLE.c ****                 Descriptive Name for the device. The length of the local device
1046:.\Generated_Source\PSoC4/BLE.c ****                 string is entered into the component customizer and it can be set
1047:.\Generated_Source\PSoC4/BLE.c ****                 to a value from 0 to 248 bytes. If the name contained in the
1048:.\Generated_Source\PSoC4/BLE.c ****                 parameter is shorter than the length from the customizer, the end
1049:.\Generated_Source\PSoC4/BLE.c ****                 of the name is indicated by a NULL octet (0x00).
1050:.\Generated_Source\PSoC4/BLE.c **** 
1051:.\Generated_Source\PSoC4/BLE.c ****     Return:
1052:.\Generated_Source\PSoC4/BLE.c ****      CYBLE_API_RESULT_T : Return value indicates if the function succeeded or 
1053:.\Generated_Source\PSoC4/BLE.c ****      failed. Following are the possible error codes.
1054:.\Generated_Source\PSoC4/BLE.c ****      <table>
1055:.\Generated_Source\PSoC4/BLE.c ****       Errors codes                        Description
1056:.\Generated_Source\PSoC4/BLE.c ****       ------------                        -----------
1057:.\Generated_Source\PSoC4/BLE.c ****       CYBLE_ERROR_OK                      Function completed successfully.
1058:.\Generated_Source\PSoC4/BLE.c ****       CYBLE_ERROR_INVALID_PARAMETER       On specifying NULL as input parameter
1059:.\Generated_Source\PSoC4/BLE.c ****      </table>
1060:.\Generated_Source\PSoC4/BLE.c **** 
1061:.\Generated_Source\PSoC4/BLE.c ****     ******************************************************************************/
1062:.\Generated_Source\PSoC4/BLE.c ****     CYBLE_API_RESULT_T CyBle_GapGetLocalName(char8 name[])
1063:.\Generated_Source\PSoC4/BLE.c ****     {
 958              		.loc 1 1063 0
 959              		.cfi_startproc
 960 0000 80B5     		push	{r7, lr}
 961              		.cfi_def_cfa_offset 8
 962              		.cfi_offset 7, -8
 963              		.cfi_offset 14, -4
 964 0002 86B0     		sub	sp, sp, #24
 965              		.cfi_def_cfa_offset 32
 966 0004 00AF     		add	r7, sp, #0
 967              		.cfi_def_cfa_register 7
 968 0006 7860     		str	r0, [r7, #4]
1064:.\Generated_Source\PSoC4/BLE.c ****         CYBLE_API_RESULT_T apiResult = CYBLE_ERROR_OK;
 969              		.loc 1 1064 0
 970 0008 3B1C     		mov	r3, r7
 971 000a 1633     		add	r3, r3, #22
 972 000c 0022     		mov	r2, #0
 973 000e 1A80     		strh	r2, [r3]
1065:.\Generated_Source\PSoC4/BLE.c ****         uint8 charLen;
1066:.\Generated_Source\PSoC4/BLE.c ****         uint8 i;
1067:.\Generated_Source\PSoC4/BLE.c ****         char8 *ptr;
1068:.\Generated_Source\PSoC4/BLE.c **** 
1069:.\Generated_Source\PSoC4/BLE.c ****         if(NULL != name)
 974              		.loc 1 1069 0
 975 0010 7B68     		ldr	r3, [r7, #4]
 976 0012 002B     		cmp	r3, #0
 977 0014 38D0     		beq	.L58
ARM GAS  C:\Users\msuro\AppData\Local\Temp\ccOjNMmK.s 			page 37


1070:.\Generated_Source\PSoC4/BLE.c ****         {
1071:.\Generated_Source\PSoC4/BLE.c ****             /* Get the pointer to the Device Name characteristic  */
1072:.\Generated_Source\PSoC4/BLE.c ****             ptr = (char8 *) cyBle_gattDB[CYBLE_GAP_DEVICE_NAME_INDEX].attValue.attFormatValue.attGe
 978              		.loc 1 1072 0
 979 0016 224B     		ldr	r3, .L64
 980 0018 9B6B     		ldr	r3, [r3, #56]
 981 001a 3B61     		str	r3, [r7, #16]
1073:.\Generated_Source\PSoC4/BLE.c **** 
1074:.\Generated_Source\PSoC4/BLE.c ****             /* First need to get the length of the characteristic data in the GATT
1075:.\Generated_Source\PSoC4/BLE.c ****                 database to make sure there is enough place for the data. The length
1076:.\Generated_Source\PSoC4/BLE.c ****                 can't be longer than 248, so only the LSB of 16 bit of length is to
1077:.\Generated_Source\PSoC4/BLE.c ****                 be used. */
1078:.\Generated_Source\PSoC4/BLE.c ****             charLen = (uint8)cyBle_gattDB[CYBLE_GAP_DEVICE_NAME_INDEX].attValue.attFormatValue.leng
 982              		.loc 1 1078 0
 983 001c 204B     		ldr	r3, .L64
 984 001e 9A8E     		ldrh	r2, [r3, #52]
 985 0020 3B1C     		mov	r3, r7
 986 0022 0F33     		add	r3, r3, #15
 987 0024 1A70     		strb	r2, [r3]
1079:.\Generated_Source\PSoC4/BLE.c **** 
1080:.\Generated_Source\PSoC4/BLE.c ****             /* Copy name from characteristic */
1081:.\Generated_Source\PSoC4/BLE.c ****             for(i = 0u; ((i < (charLen - 1u)) && (CYBLE_NULL_CHARCTER != ptr[i])); i++)
 988              		.loc 1 1081 0
 989 0026 3B1C     		mov	r3, r7
 990 0028 1533     		add	r3, r3, #21
 991 002a 0022     		mov	r2, #0
 992 002c 1A70     		strb	r2, [r3]
 993 002e 12E0     		b	.L59
 994              	.L61:
1082:.\Generated_Source\PSoC4/BLE.c ****             {
1083:.\Generated_Source\PSoC4/BLE.c ****                 name[i] = ptr[i];
 995              		.loc 1 1083 0 discriminator 1
 996 0030 3B1C     		mov	r3, r7
 997 0032 1533     		add	r3, r3, #21
 998 0034 1B78     		ldrb	r3, [r3]
 999 0036 7A68     		ldr	r2, [r7, #4]
 1000 0038 D318     		add	r3, r2, r3
 1001 003a 3A1C     		mov	r2, r7
 1002 003c 1532     		add	r2, r2, #21
 1003 003e 1278     		ldrb	r2, [r2]
 1004 0040 3969     		ldr	r1, [r7, #16]
 1005 0042 8A18     		add	r2, r1, r2
 1006 0044 1278     		ldrb	r2, [r2]
 1007 0046 1A70     		strb	r2, [r3]
1081:.\Generated_Source\PSoC4/BLE.c ****             for(i = 0u; ((i < (charLen - 1u)) && (CYBLE_NULL_CHARCTER != ptr[i])); i++)
 1008              		.loc 1 1081 0 discriminator 1
 1009 0048 3B1C     		mov	r3, r7
 1010 004a 1533     		add	r3, r3, #21
 1011 004c 1A78     		ldrb	r2, [r3]
 1012 004e 3B1C     		mov	r3, r7
 1013 0050 1533     		add	r3, r3, #21
 1014 0052 0132     		add	r2, r2, #1
 1015 0054 1A70     		strb	r2, [r3]
 1016              	.L59:
 1017 0056 3B1C     		mov	r3, r7
 1018 0058 1533     		add	r3, r3, #21
 1019 005a 1A78     		ldrb	r2, [r3]
ARM GAS  C:\Users\msuro\AppData\Local\Temp\ccOjNMmK.s 			page 38


 1020 005c 3B1C     		mov	r3, r7
 1021 005e 0F33     		add	r3, r3, #15
 1022 0060 1B78     		ldrb	r3, [r3]
 1023 0062 013B     		sub	r3, r3, #1
 1024 0064 9A42     		cmp	r2, r3
 1025 0066 07D2     		bcs	.L60
1081:.\Generated_Source\PSoC4/BLE.c ****             for(i = 0u; ((i < (charLen - 1u)) && (CYBLE_NULL_CHARCTER != ptr[i])); i++)
 1026              		.loc 1 1081 0 is_stmt 0 discriminator 2
 1027 0068 3B1C     		mov	r3, r7
 1028 006a 1533     		add	r3, r3, #21
 1029 006c 1B78     		ldrb	r3, [r3]
 1030 006e 3A69     		ldr	r2, [r7, #16]
 1031 0070 D318     		add	r3, r2, r3
 1032 0072 1B78     		ldrb	r3, [r3]
 1033 0074 002B     		cmp	r3, #0
 1034 0076 DBD1     		bne	.L61
 1035              	.L60:
1084:.\Generated_Source\PSoC4/BLE.c ****             }
1085:.\Generated_Source\PSoC4/BLE.c **** 
1086:.\Generated_Source\PSoC4/BLE.c ****             /* Terminate string */
1087:.\Generated_Source\PSoC4/BLE.c ****             name[i] = CYBLE_NULL_CHARCTER;
 1036              		.loc 1 1087 0 is_stmt 1
 1037 0078 3B1C     		mov	r3, r7
 1038 007a 1533     		add	r3, r3, #21
 1039 007c 1B78     		ldrb	r3, [r3]
 1040 007e 7A68     		ldr	r2, [r7, #4]
 1041 0080 D318     		add	r3, r2, r3
 1042 0082 0022     		mov	r2, #0
 1043 0084 1A70     		strb	r2, [r3]
 1044 0086 03E0     		b	.L62
 1045              	.L58:
1088:.\Generated_Source\PSoC4/BLE.c ****         }
1089:.\Generated_Source\PSoC4/BLE.c ****         else
1090:.\Generated_Source\PSoC4/BLE.c ****         {
1091:.\Generated_Source\PSoC4/BLE.c ****             apiResult = CYBLE_ERROR_INVALID_PARAMETER;
 1046              		.loc 1 1091 0
 1047 0088 3B1C     		mov	r3, r7
 1048 008a 1633     		add	r3, r3, #22
 1049 008c 0122     		mov	r2, #1
 1050 008e 1A80     		strh	r2, [r3]
 1051              	.L62:
1092:.\Generated_Source\PSoC4/BLE.c ****         }
1093:.\Generated_Source\PSoC4/BLE.c ****         
1094:.\Generated_Source\PSoC4/BLE.c ****         return(apiResult);
 1052              		.loc 1 1094 0
 1053 0090 3B1C     		mov	r3, r7
 1054 0092 1633     		add	r3, r3, #22
 1055 0094 1B88     		ldrh	r3, [r3]
1095:.\Generated_Source\PSoC4/BLE.c ****     }
 1056              		.loc 1 1095 0
 1057 0096 181C     		mov	r0, r3
 1058 0098 BD46     		mov	sp, r7
 1059 009a 06B0     		add	sp, sp, #24
 1060              		@ sp needed
 1061 009c 80BD     		pop	{r7, pc}
 1062              	.L65:
 1063 009e C046     		.align	2
ARM GAS  C:\Users\msuro\AppData\Local\Temp\ccOjNMmK.s 			page 39


 1064              	.L64:
 1065 00a0 00000000 		.word	cyBle_gattDB
 1066              		.cfi_endproc
 1067              	.LFE12:
 1068              		.size	CyBle_GapGetLocalName, .-CyBle_GapGetLocalName
 1069              		.section	.text.CyBle_Get16ByPtr,"ax",%progbits
 1070              		.align	2
 1071              		.global	CyBle_Get16ByPtr
 1072              		.code	16
 1073              		.thumb_func
 1074              		.type	CyBle_Get16ByPtr, %function
 1075              	CyBle_Get16ByPtr:
 1076              	.LFB13:
1096:.\Generated_Source\PSoC4/BLE.c **** 
1097:.\Generated_Source\PSoC4/BLE.c **** #endif /* (CYBLE_GATT_ROLE_SERVER) */
1098:.\Generated_Source\PSoC4/BLE.c **** 
1099:.\Generated_Source\PSoC4/BLE.c **** 
1100:.\Generated_Source\PSoC4/BLE.c **** /******************************************************************************
1101:.\Generated_Source\PSoC4/BLE.c **** ##Function Name: CyBle_Get16ByPtr
1102:.\Generated_Source\PSoC4/BLE.c **** *******************************************************************************
1103:.\Generated_Source\PSoC4/BLE.c **** 
1104:.\Generated_Source\PSoC4/BLE.c **** Summary:
1105:.\Generated_Source\PSoC4/BLE.c ****  Returns the two-bytes value by using a pointer to the LSB.
1106:.\Generated_Source\PSoC4/BLE.c **** 
1107:.\Generated_Source\PSoC4/BLE.c **** Parameters:
1108:.\Generated_Source\PSoC4/BLE.c ****  uint8 * ptr: Pointer to the LSB of two-bytes data (little endian).
1109:.\Generated_Source\PSoC4/BLE.c **** 
1110:.\Generated_Source\PSoC4/BLE.c **** Return:
1111:.\Generated_Source\PSoC4/BLE.c ****  uint16 value: Two-bytes data.
1112:.\Generated_Source\PSoC4/BLE.c **** 
1113:.\Generated_Source\PSoC4/BLE.c **** ******************************************************************************/
1114:.\Generated_Source\PSoC4/BLE.c **** uint16 CyBle_Get16ByPtr(const uint8 ptr[])
1115:.\Generated_Source\PSoC4/BLE.c **** {
 1077              		.loc 1 1115 0
 1078              		.cfi_startproc
 1079 0000 80B5     		push	{r7, lr}
 1080              		.cfi_def_cfa_offset 8
 1081              		.cfi_offset 7, -8
 1082              		.cfi_offset 14, -4
 1083 0002 82B0     		sub	sp, sp, #8
 1084              		.cfi_def_cfa_offset 16
 1085 0004 00AF     		add	r7, sp, #0
 1086              		.cfi_def_cfa_register 7
 1087 0006 7860     		str	r0, [r7, #4]
1116:.\Generated_Source\PSoC4/BLE.c ****     return ((uint16) ptr[0u] | ((uint16) (((uint16) ptr[1u]) << 8u)));
 1088              		.loc 1 1116 0
 1089 0008 7B68     		ldr	r3, [r7, #4]
 1090 000a 1B78     		ldrb	r3, [r3]
 1091 000c 1A1C     		mov	r2, r3
 1092 000e 7B68     		ldr	r3, [r7, #4]
 1093 0010 0133     		add	r3, r3, #1
 1094 0012 1B78     		ldrb	r3, [r3]
 1095 0014 1B02     		lsl	r3, r3, #8
 1096 0016 9BB2     		uxth	r3, r3
 1097 0018 1343     		orr	r3, r2
 1098 001a 9BB2     		uxth	r3, r3
1117:.\Generated_Source\PSoC4/BLE.c **** }
ARM GAS  C:\Users\msuro\AppData\Local\Temp\ccOjNMmK.s 			page 40


 1099              		.loc 1 1117 0
 1100 001c 181C     		mov	r0, r3
 1101 001e BD46     		mov	sp, r7
 1102 0020 02B0     		add	sp, sp, #8
 1103              		@ sp needed
 1104 0022 80BD     		pop	{r7, pc}
 1105              		.cfi_endproc
 1106              	.LFE13:
 1107              		.size	CyBle_Get16ByPtr, .-CyBle_Get16ByPtr
 1108              		.section	.text.CyBle_Set16ByPtr,"ax",%progbits
 1109              		.align	2
 1110              		.global	CyBle_Set16ByPtr
 1111              		.code	16
 1112              		.thumb_func
 1113              		.type	CyBle_Set16ByPtr, %function
 1114              	CyBle_Set16ByPtr:
 1115              	.LFB14:
1118:.\Generated_Source\PSoC4/BLE.c **** 
1119:.\Generated_Source\PSoC4/BLE.c **** 
1120:.\Generated_Source\PSoC4/BLE.c **** /******************************************************************************
1121:.\Generated_Source\PSoC4/BLE.c **** ##Function Name: CyBle_Set16ByPtr
1122:.\Generated_Source\PSoC4/BLE.c **** *******************************************************************************
1123:.\Generated_Source\PSoC4/BLE.c **** 
1124:.\Generated_Source\PSoC4/BLE.c **** Summary:
1125:.\Generated_Source\PSoC4/BLE.c ****  Sets the two-bytes value by using a pointer to the LSB.
1126:.\Generated_Source\PSoC4/BLE.c **** 
1127:.\Generated_Source\PSoC4/BLE.c **** Parameters:
1128:.\Generated_Source\PSoC4/BLE.c ****  uint8 * ptr:   Pointer to the LSB of two-bytes data (little endian).
1129:.\Generated_Source\PSoC4/BLE.c ****  uint16 value:  Two-bytes data to be written.
1130:.\Generated_Source\PSoC4/BLE.c **** 
1131:.\Generated_Source\PSoC4/BLE.c **** Return:
1132:.\Generated_Source\PSoC4/BLE.c ****  None
1133:.\Generated_Source\PSoC4/BLE.c **** 
1134:.\Generated_Source\PSoC4/BLE.c **** ******************************************************************************/
1135:.\Generated_Source\PSoC4/BLE.c **** void CyBle_Set16ByPtr(uint8 ptr[], uint16 value)
1136:.\Generated_Source\PSoC4/BLE.c **** {
 1116              		.loc 1 1136 0
 1117              		.cfi_startproc
 1118 0000 80B5     		push	{r7, lr}
 1119              		.cfi_def_cfa_offset 8
 1120              		.cfi_offset 7, -8
 1121              		.cfi_offset 14, -4
 1122 0002 82B0     		sub	sp, sp, #8
 1123              		.cfi_def_cfa_offset 16
 1124 0004 00AF     		add	r7, sp, #0
 1125              		.cfi_def_cfa_register 7
 1126 0006 7860     		str	r0, [r7, #4]
 1127 0008 0A1C     		mov	r2, r1
 1128 000a BB1C     		add	r3, r7, #2
 1129 000c 1A80     		strh	r2, [r3]
1137:.\Generated_Source\PSoC4/BLE.c ****     ptr[0u] = (uint8) value;
 1130              		.loc 1 1137 0
 1131 000e BB1C     		add	r3, r7, #2
 1132 0010 1B88     		ldrh	r3, [r3]
 1133 0012 DAB2     		uxtb	r2, r3
 1134 0014 7B68     		ldr	r3, [r7, #4]
 1135 0016 1A70     		strb	r2, [r3]
ARM GAS  C:\Users\msuro\AppData\Local\Temp\ccOjNMmK.s 			page 41


1138:.\Generated_Source\PSoC4/BLE.c ****     ptr[1u] = (uint8) (value >> 8u);
 1136              		.loc 1 1138 0
 1137 0018 7B68     		ldr	r3, [r7, #4]
 1138 001a 0133     		add	r3, r3, #1
 1139 001c BA1C     		add	r2, r7, #2
 1140 001e 1288     		ldrh	r2, [r2]
 1141 0020 120A     		lsr	r2, r2, #8
 1142 0022 92B2     		uxth	r2, r2
 1143 0024 D2B2     		uxtb	r2, r2
 1144 0026 1A70     		strb	r2, [r3]
1139:.\Generated_Source\PSoC4/BLE.c **** }
 1145              		.loc 1 1139 0
 1146 0028 BD46     		mov	sp, r7
 1147 002a 02B0     		add	sp, sp, #8
 1148              		@ sp needed
 1149 002c 80BD     		pop	{r7, pc}
 1150              		.cfi_endproc
 1151              	.LFE14:
 1152              		.size	CyBle_Set16ByPtr, .-CyBle_Set16ByPtr
 1153 002e C046     		.bss
 1154 0001 00000000 		.align	3
 1154      000000
 1155              	cyBle_stackMemoryRam.6119:
 1156 0008 00000000 		.space	4204
 1156      00000000 
 1156      00000000 
 1156      00000000 
 1156      00000000 
 1157 1074 00000000 		.text
 1158              	.Letext0:
 1159              		.file 2 ".\\Generated_Source\\PSoC4\\cytypes.h"
 1160              		.file 3 ".\\Generated_Source\\PSoC4\\BLE_Stack.h"
 1161              		.file 4 ".\\Generated_Source\\PSoC4\\BLE_StackGap.h"
 1162              		.file 5 ".\\Generated_Source\\PSoC4\\BLE_StackGatt.h"
 1163              		.file 6 ".\\Generated_Source\\PSoC4\\BLE_StackGattDb.h"
 1164              		.file 7 ".\\Generated_Source\\PSoC4\\BLE.h"
 1165              		.file 8 ".\\Generated_Source\\PSoC4\\BLE_gatt.h"
 1166              		.file 9 ".\\Generated_Source\\PSoC4\\BLE_dis.h"
 1167              		.file 10 ".\\Generated_Source\\PSoC4\\BLE_eventHandler.h"
 1168              		.section	.debug_info,"",%progbits
 1169              	.Ldebug_info0:
 1170 0000 340B0000 		.4byte	0xb34
 1171 0004 0400     		.2byte	0x4
 1172 0006 00000000 		.4byte	.Ldebug_abbrev0
 1173 000a 04       		.byte	0x4
 1174 000b 01       		.uleb128 0x1
 1175 000c 880C0000 		.4byte	.LASF225
 1176 0010 01       		.byte	0x1
 1177 0011 AB000000 		.4byte	.LASF226
 1178 0015 58110000 		.4byte	.LASF227
 1179 0019 00000000 		.4byte	.Ldebug_ranges0+0
 1180 001d 00000000 		.4byte	0
 1181 0021 00000000 		.4byte	.Ldebug_line0
 1182 0025 02       		.uleb128 0x2
 1183 0026 01       		.byte	0x1
 1184 0027 06       		.byte	0x6
 1185 0028 22030000 		.4byte	.LASF0
ARM GAS  C:\Users\msuro\AppData\Local\Temp\ccOjNMmK.s 			page 42


 1186 002c 02       		.uleb128 0x2
 1187 002d 01       		.byte	0x1
 1188 002e 08       		.byte	0x8
 1189 002f 660D0000 		.4byte	.LASF1
 1190 0033 02       		.uleb128 0x2
 1191 0034 02       		.byte	0x2
 1192 0035 05       		.byte	0x5
 1193 0036 EE0D0000 		.4byte	.LASF2
 1194 003a 02       		.uleb128 0x2
 1195 003b 02       		.byte	0x2
 1196 003c 07       		.byte	0x7
 1197 003d 99050000 		.4byte	.LASF3
 1198 0041 02       		.uleb128 0x2
 1199 0042 04       		.byte	0x4
 1200 0043 05       		.byte	0x5
 1201 0044 A5010000 		.4byte	.LASF4
 1202 0048 02       		.uleb128 0x2
 1203 0049 04       		.byte	0x4
 1204 004a 07       		.byte	0x7
 1205 004b 4C070000 		.4byte	.LASF5
 1206 004f 02       		.uleb128 0x2
 1207 0050 08       		.byte	0x8
 1208 0051 05       		.byte	0x5
 1209 0052 14030000 		.4byte	.LASF6
 1210 0056 02       		.uleb128 0x2
 1211 0057 08       		.byte	0x8
 1212 0058 07       		.byte	0x7
 1213 0059 6F060000 		.4byte	.LASF7
 1214 005d 03       		.uleb128 0x3
 1215 005e 04       		.byte	0x4
 1216 005f 05       		.byte	0x5
 1217 0060 696E7400 		.ascii	"int\000"
 1218 0064 02       		.uleb128 0x2
 1219 0065 04       		.byte	0x4
 1220 0066 07       		.byte	0x7
 1221 0067 EE0F0000 		.4byte	.LASF8
 1222 006b 04       		.uleb128 0x4
 1223 006c E1040000 		.4byte	.LASF9
 1224 0070 02       		.byte	0x2
 1225 0071 A1       		.byte	0xa1
 1226 0072 2C000000 		.4byte	0x2c
 1227 0076 04       		.uleb128 0x4
 1228 0077 740D0000 		.4byte	.LASF10
 1229 007b 02       		.byte	0x2
 1230 007c A2       		.byte	0xa2
 1231 007d 3A000000 		.4byte	0x3a
 1232 0081 04       		.uleb128 0x4
 1233 0082 AC050000 		.4byte	.LASF11
 1234 0086 02       		.byte	0x2
 1235 0087 A3       		.byte	0xa3
 1236 0088 48000000 		.4byte	0x48
 1237 008c 02       		.uleb128 0x2
 1238 008d 04       		.byte	0x4
 1239 008e 04       		.byte	0x4
 1240 008f 590C0000 		.4byte	.LASF12
 1241 0093 02       		.uleb128 0x2
 1242 0094 08       		.byte	0x8
ARM GAS  C:\Users\msuro\AppData\Local\Temp\ccOjNMmK.s 			page 43


 1243 0095 04       		.byte	0x4
 1244 0096 26050000 		.4byte	.LASF13
 1245 009a 04       		.uleb128 0x4
 1246 009b 57100000 		.4byte	.LASF14
 1247 009f 02       		.byte	0x2
 1248 00a0 B2       		.byte	0xb2
 1249 00a1 A5000000 		.4byte	0xa5
 1250 00a5 02       		.uleb128 0x2
 1251 00a6 01       		.byte	0x1
 1252 00a7 08       		.byte	0x8
 1253 00a8 8D0F0000 		.4byte	.LASF15
 1254 00ac 05       		.uleb128 0x5
 1255 00ad 6B000000 		.4byte	0x6b
 1256 00b1 02       		.uleb128 0x2
 1257 00b2 04       		.byte	0x4
 1258 00b3 07       		.byte	0x7
 1259 00b4 A40A0000 		.4byte	.LASF16
 1260 00b8 06       		.uleb128 0x6
 1261 00b9 04       		.byte	0x4
 1262 00ba 07       		.uleb128 0x7
 1263 00bb 01       		.byte	0x1
 1264 00bc 03       		.byte	0x3
 1265 00bd 58       		.byte	0x58
 1266 00be 2A020000 		.4byte	0x22a
 1267 00c2 08       		.uleb128 0x8
 1268 00c3 5C080000 		.4byte	.LASF17
 1269 00c7 00       		.sleb128 0
 1270 00c8 08       		.uleb128 0x8
 1271 00c9 2E030000 		.4byte	.LASF18
 1272 00cd 01       		.sleb128 1
 1273 00ce 08       		.uleb128 0x8
 1274 00cf 93010000 		.4byte	.LASF19
 1275 00d3 02       		.sleb128 2
 1276 00d4 08       		.uleb128 0x8
 1277 00d5 D0100000 		.4byte	.LASF20
 1278 00d9 03       		.sleb128 3
 1279 00da 08       		.uleb128 0x8
 1280 00db 12020000 		.4byte	.LASF21
 1281 00df 04       		.sleb128 4
 1282 00e0 08       		.uleb128 0x8
 1283 00e1 23000000 		.4byte	.LASF22
 1284 00e5 05       		.sleb128 5
 1285 00e6 08       		.uleb128 0x8
 1286 00e7 070A0000 		.4byte	.LASF23
 1287 00eb 20       		.sleb128 32
 1288 00ec 08       		.uleb128 0x8
 1289 00ed DF030000 		.4byte	.LASF24
 1290 00f1 21       		.sleb128 33
 1291 00f2 08       		.uleb128 0x8
 1292 00f3 B2080000 		.4byte	.LASF25
 1293 00f7 22       		.sleb128 34
 1294 00f8 08       		.uleb128 0x8
 1295 00f9 77090000 		.4byte	.LASF26
 1296 00fd 23       		.sleb128 35
 1297 00fe 08       		.uleb128 0x8
 1298 00ff 530B0000 		.4byte	.LASF27
 1299 0103 24       		.sleb128 36
ARM GAS  C:\Users\msuro\AppData\Local\Temp\ccOjNMmK.s 			page 44


 1300 0104 08       		.uleb128 0x8
 1301 0105 E10A0000 		.4byte	.LASF28
 1302 0109 25       		.sleb128 37
 1303 010a 08       		.uleb128 0x8
 1304 010b 80040000 		.4byte	.LASF29
 1305 010f 26       		.sleb128 38
 1306 0110 08       		.uleb128 0x8
 1307 0111 D6080000 		.4byte	.LASF30
 1308 0115 27       		.sleb128 39
 1309 0116 08       		.uleb128 0x8
 1310 0117 A1020000 		.4byte	.LASF31
 1311 011b 28       		.sleb128 40
 1312 011c 08       		.uleb128 0x8
 1313 011d A10E0000 		.4byte	.LASF32
 1314 0121 29       		.sleb128 41
 1315 0122 08       		.uleb128 0x8
 1316 0123 CA000000 		.4byte	.LASF33
 1317 0127 2A       		.sleb128 42
 1318 0128 08       		.uleb128 0x8
 1319 0129 3B020000 		.4byte	.LASF34
 1320 012d 2B       		.sleb128 43
 1321 012e 08       		.uleb128 0x8
 1322 012f 60130000 		.4byte	.LASF35
 1323 0133 2C       		.sleb128 44
 1324 0134 08       		.uleb128 0x8
 1325 0135 E7050000 		.4byte	.LASF36
 1326 0139 C000     		.sleb128 64
 1327 013b 08       		.uleb128 0x8
 1328 013c A3090000 		.4byte	.LASF37
 1329 0140 C100     		.sleb128 65
 1330 0142 08       		.uleb128 0x8
 1331 0143 AA060000 		.4byte	.LASF38
 1332 0147 C200     		.sleb128 66
 1333 0149 08       		.uleb128 0x8
 1334 014a 16120000 		.4byte	.LASF39
 1335 014e C300     		.sleb128 67
 1336 0150 08       		.uleb128 0x8
 1337 0151 75070000 		.4byte	.LASF40
 1338 0155 C400     		.sleb128 68
 1339 0157 08       		.uleb128 0x8
 1340 0158 67010000 		.4byte	.LASF41
 1341 015c C500     		.sleb128 69
 1342 015e 08       		.uleb128 0x8
 1343 015f 830A0000 		.4byte	.LASF42
 1344 0163 C600     		.sleb128 70
 1345 0165 08       		.uleb128 0x8
 1346 0166 73080000 		.4byte	.LASF43
 1347 016a C700     		.sleb128 71
 1348 016c 08       		.uleb128 0x8
 1349 016d 03130000 		.4byte	.LASF44
 1350 0171 C800     		.sleb128 72
 1351 0173 08       		.uleb128 0x8
 1352 0174 01040000 		.4byte	.LASF45
 1353 0178 C900     		.sleb128 73
 1354 017a 08       		.uleb128 0x8
 1355 017b 60120000 		.4byte	.LASF46
 1356 017f CA00     		.sleb128 74
ARM GAS  C:\Users\msuro\AppData\Local\Temp\ccOjNMmK.s 			page 45


 1357 0181 08       		.uleb128 0x8
 1358 0182 14010000 		.4byte	.LASF47
 1359 0186 CB00     		.sleb128 75
 1360 0188 08       		.uleb128 0x8
 1361 0189 06090000 		.4byte	.LASF48
 1362 018d CC00     		.sleb128 76
 1363 018f 08       		.uleb128 0x8
 1364 0190 030B0000 		.4byte	.LASF49
 1365 0194 CD00     		.sleb128 77
 1366 0196 08       		.uleb128 0x8
 1367 0197 34040000 		.4byte	.LASF50
 1368 019b CE00     		.sleb128 78
 1369 019d 08       		.uleb128 0x8
 1370 019e 820E0000 		.4byte	.LASF51
 1371 01a2 CF00     		.sleb128 79
 1372 01a4 08       		.uleb128 0x8
 1373 01a5 33010000 		.4byte	.LASF52
 1374 01a9 D000     		.sleb128 80
 1375 01ab 08       		.uleb128 0x8
 1376 01ac 07050000 		.4byte	.LASF53
 1377 01b0 D100     		.sleb128 81
 1378 01b2 08       		.uleb128 0x8
 1379 01b3 970B0000 		.4byte	.LASF54
 1380 01b7 D200     		.sleb128 82
 1381 01b9 08       		.uleb128 0x8
 1382 01ba F80D0000 		.4byte	.LASF55
 1383 01be D300     		.sleb128 83
 1384 01c0 08       		.uleb128 0x8
 1385 01c1 F50E0000 		.4byte	.LASF56
 1386 01c5 D400     		.sleb128 84
 1387 01c7 08       		.uleb128 0x8
 1388 01c8 93070000 		.4byte	.LASF57
 1389 01cc D500     		.sleb128 85
 1390 01ce 08       		.uleb128 0x8
 1391 01cf 01060000 		.4byte	.LASF58
 1392 01d3 F000     		.sleb128 112
 1393 01d5 08       		.uleb128 0x8
 1394 01d6 E8130000 		.4byte	.LASF59
 1395 01da F100     		.sleb128 113
 1396 01dc 08       		.uleb128 0x8
 1397 01dd EB090000 		.4byte	.LASF60
 1398 01e1 F200     		.sleb128 114
 1399 01e3 08       		.uleb128 0x8
 1400 01e4 650A0000 		.4byte	.LASF61
 1401 01e8 F300     		.sleb128 115
 1402 01ea 08       		.uleb128 0x8
 1403 01eb 040C0000 		.4byte	.LASF62
 1404 01ef F400     		.sleb128 116
 1405 01f1 08       		.uleb128 0x8
 1406 01f2 2D050000 		.4byte	.LASF63
 1407 01f6 F500     		.sleb128 117
 1408 01f8 08       		.uleb128 0x8
 1409 01f9 F3000000 		.4byte	.LASF64
 1410 01fd F600     		.sleb128 118
 1411 01ff 08       		.uleb128 0x8
 1412 0200 53000000 		.4byte	.LASF65
 1413 0204 F700     		.sleb128 119
ARM GAS  C:\Users\msuro\AppData\Local\Temp\ccOjNMmK.s 			page 46


 1414 0206 08       		.uleb128 0x8
 1415 0207 00000000 		.4byte	.LASF66
 1416 020b F800     		.sleb128 120
 1417 020d 08       		.uleb128 0x8
 1418 020e F1020000 		.4byte	.LASF67
 1419 0212 F900     		.sleb128 121
 1420 0214 08       		.uleb128 0x8
 1421 0215 27060000 		.4byte	.LASF68
 1422 0219 FA00     		.sleb128 122
 1423 021b 08       		.uleb128 0x8
 1424 021c BF130000 		.4byte	.LASF69
 1425 0220 FA01     		.sleb128 250
 1426 0222 08       		.uleb128 0x8
 1427 0223 CA050000 		.4byte	.LASF70
 1428 0227 FF01     		.sleb128 255
 1429 0229 00       		.byte	0
 1430 022a 09       		.uleb128 0x9
 1431 022b 02       		.byte	0x2
 1432 022c 03       		.byte	0x3
 1433 022d 9A01     		.2byte	0x19a
 1434 022f F6020000 		.4byte	0x2f6
 1435 0233 08       		.uleb128 0x8
 1436 0234 D8050000 		.4byte	.LASF71
 1437 0238 00       		.sleb128 0
 1438 0239 08       		.uleb128 0x8
 1439 023a 4E050000 		.4byte	.LASF72
 1440 023e 01       		.sleb128 1
 1441 023f 08       		.uleb128 0x8
 1442 0240 3A110000 		.4byte	.LASF73
 1443 0244 02       		.sleb128 2
 1444 0245 08       		.uleb128 0x8
 1445 0246 86000000 		.4byte	.LASF74
 1446 024a 03       		.sleb128 3
 1447 024b 08       		.uleb128 0x8
 1448 024c EF010000 		.4byte	.LASF75
 1449 0250 04       		.sleb128 4
 1450 0251 08       		.uleb128 0x8
 1451 0252 8C060000 		.4byte	.LASF76
 1452 0256 05       		.sleb128 5
 1453 0257 08       		.uleb128 0x8
 1454 0258 190E0000 		.4byte	.LASF77
 1455 025c 06       		.sleb128 6
 1456 025d 08       		.uleb128 0x8
 1457 025e C2030000 		.4byte	.LASF78
 1458 0262 07       		.sleb128 7
 1459 0263 08       		.uleb128 0x8
 1460 0264 160F0000 		.4byte	.LASF79
 1461 0268 08       		.sleb128 8
 1462 0269 08       		.uleb128 0x8
 1463 026a 2A130000 		.4byte	.LASF80
 1464 026e 09       		.sleb128 9
 1465 026f 08       		.uleb128 0x8
 1466 0270 360D0000 		.4byte	.LASF81
 1467 0274 0A       		.sleb128 10
 1468 0275 08       		.uleb128 0x8
 1469 0276 A90F0000 		.4byte	.LASF82
 1470 027a 0B       		.sleb128 11
ARM GAS  C:\Users\msuro\AppData\Local\Temp\ccOjNMmK.s 			page 47


 1471 027b 08       		.uleb128 0x8
 1472 027c 8A020000 		.4byte	.LASF83
 1473 0280 0C       		.sleb128 12
 1474 0281 08       		.uleb128 0x8
 1475 0282 CA010000 		.4byte	.LASF84
 1476 0286 0D       		.sleb128 13
 1477 0287 08       		.uleb128 0x8
 1478 0288 16070000 		.4byte	.LASF85
 1479 028c 0E       		.sleb128 14
 1480 028d 08       		.uleb128 0x8
 1481 028e AE120000 		.4byte	.LASF86
 1482 0292 0F       		.sleb128 15
 1483 0293 08       		.uleb128 0x8
 1484 0294 A2100000 		.4byte	.LASF87
 1485 0298 10       		.sleb128 16
 1486 0299 08       		.uleb128 0x8
 1487 029a 09080000 		.4byte	.LASF88
 1488 029e 11       		.sleb128 17
 1489 029f 08       		.uleb128 0x8
 1490 02a0 A8040000 		.4byte	.LASF89
 1491 02a4 12       		.sleb128 18
 1492 02a5 08       		.uleb128 0x8
 1493 02a6 5D140000 		.4byte	.LASF90
 1494 02aa 13       		.sleb128 19
 1495 02ab 08       		.uleb128 0x8
 1496 02ac A0030000 		.4byte	.LASF91
 1497 02b0 27       		.sleb128 39
 1498 02b1 08       		.uleb128 0x8
 1499 02b2 BE090000 		.4byte	.LASF92
 1500 02b6 28       		.sleb128 40
 1501 02b7 08       		.uleb128 0x8
 1502 02b8 92120000 		.4byte	.LASF93
 1503 02bc 29       		.sleb128 41
 1504 02bd 08       		.uleb128 0x8
 1505 02be 550A0000 		.4byte	.LASF94
 1506 02c2 FF01     		.sleb128 255
 1507 02c4 08       		.uleb128 0x8
 1508 02c5 52040000 		.4byte	.LASF95
 1509 02c9 8002     		.sleb128 256
 1510 02cb 08       		.uleb128 0x8
 1511 02cc AA130000 		.4byte	.LASF96
 1512 02d0 8102     		.sleb128 257
 1513 02d2 08       		.uleb128 0x8
 1514 02d3 3F0A0000 		.4byte	.LASF97
 1515 02d7 8202     		.sleb128 258
 1516 02d9 08       		.uleb128 0x8
 1517 02da 43080000 		.4byte	.LASF98
 1518 02de 8302     		.sleb128 259
 1519 02e0 08       		.uleb128 0x8
 1520 02e1 B80B0000 		.4byte	.LASF99
 1521 02e5 8402     		.sleb128 260
 1522 02e7 08       		.uleb128 0x8
 1523 02e8 CB0D0000 		.4byte	.LASF100
 1524 02ec 8502     		.sleb128 261
 1525 02ee 08       		.uleb128 0x8
 1526 02ef 1C0D0000 		.4byte	.LASF101
 1527 02f3 8602     		.sleb128 262
ARM GAS  C:\Users\msuro\AppData\Local\Temp\ccOjNMmK.s 			page 48


 1528 02f5 00       		.byte	0
 1529 02f6 0A       		.uleb128 0xa
 1530 02f7 790B0000 		.4byte	.LASF102
 1531 02fb 03       		.byte	0x3
 1532 02fc F401     		.2byte	0x1f4
 1533 02fe 2A020000 		.4byte	0x22a
 1534 0302 0B       		.uleb128 0xb
 1535 0303 07       		.byte	0x7
 1536 0304 03       		.byte	0x3
 1537 0305 7502     		.2byte	0x275
 1538 0307 26030000 		.4byte	0x326
 1539 030b 0C       		.uleb128 0xc
 1540 030c 34120000 		.4byte	.LASF103
 1541 0310 03       		.byte	0x3
 1542 0311 7702     		.2byte	0x277
 1543 0313 26030000 		.4byte	0x326
 1544 0317 00       		.byte	0
 1545 0318 0C       		.uleb128 0xc
 1546 0319 8E010000 		.4byte	.LASF104
 1547 031d 03       		.byte	0x3
 1548 031e 7802     		.2byte	0x278
 1549 0320 6B000000 		.4byte	0x6b
 1550 0324 06       		.byte	0x6
 1551 0325 00       		.byte	0
 1552 0326 0D       		.uleb128 0xd
 1553 0327 6B000000 		.4byte	0x6b
 1554 032b 36030000 		.4byte	0x336
 1555 032f 0E       		.uleb128 0xe
 1556 0330 B1000000 		.4byte	0xb1
 1557 0334 05       		.byte	0x5
 1558 0335 00       		.byte	0
 1559 0336 0A       		.uleb128 0xa
 1560 0337 76020000 		.4byte	.LASF105
 1561 033b 03       		.byte	0x3
 1562 033c 7902     		.2byte	0x279
 1563 033e 02030000 		.4byte	0x302
 1564 0342 0B       		.uleb128 0xb
 1565 0343 0C       		.byte	0xc
 1566 0344 04       		.byte	0x4
 1567 0345 DD01     		.2byte	0x1dd
 1568 0347 B4030000 		.4byte	0x3b4
 1569 034b 0C       		.uleb128 0xc
 1570 034c 26040000 		.4byte	.LASF106
 1571 0350 04       		.byte	0x4
 1572 0351 E401     		.2byte	0x1e4
 1573 0353 6B000000 		.4byte	0x6b
 1574 0357 00       		.byte	0
 1575 0358 0C       		.uleb128 0xc
 1576 0359 C3020000 		.4byte	.LASF107
 1577 035d 04       		.byte	0x4
 1578 035e EA01     		.2byte	0x1ea
 1579 0360 6B000000 		.4byte	0x6b
 1580 0364 01       		.byte	0x1
 1581 0365 0C       		.uleb128 0xc
 1582 0366 49120000 		.4byte	.LASF108
 1583 036a 04       		.byte	0x4
 1584 036b F001     		.2byte	0x1f0
ARM GAS  C:\Users\msuro\AppData\Local\Temp\ccOjNMmK.s 			page 49


 1585 036d 76000000 		.4byte	0x76
 1586 0371 02       		.byte	0x2
 1587 0372 0C       		.uleb128 0xc
 1588 0373 25140000 		.4byte	.LASF109
 1589 0377 04       		.byte	0x4
 1590 0378 F501     		.2byte	0x1f5
 1591 037a 76000000 		.4byte	0x76
 1592 037e 04       		.byte	0x4
 1593 037f 0C       		.uleb128 0xc
 1594 0380 D50A0000 		.4byte	.LASF110
 1595 0384 04       		.byte	0x4
 1596 0385 FB01     		.2byte	0x1fb
 1597 0387 6B000000 		.4byte	0x6b
 1598 038b 06       		.byte	0x6
 1599 038c 0C       		.uleb128 0xc
 1600 038d 5D030000 		.4byte	.LASF111
 1601 0391 04       		.byte	0x4
 1602 0392 0202     		.2byte	0x202
 1603 0394 6B000000 		.4byte	0x6b
 1604 0398 07       		.byte	0x7
 1605 0399 0C       		.uleb128 0xc
 1606 039a C3010000 		.4byte	.LASF112
 1607 039e 04       		.byte	0x4
 1608 039f 0802     		.2byte	0x208
 1609 03a1 76000000 		.4byte	0x76
 1610 03a5 08       		.byte	0x8
 1611 03a6 0C       		.uleb128 0xc
 1612 03a7 5F0C0000 		.4byte	.LASF113
 1613 03ab 04       		.byte	0x4
 1614 03ac 1202     		.2byte	0x212
 1615 03ae 6B000000 		.4byte	0x6b
 1616 03b2 0A       		.byte	0xa
 1617 03b3 00       		.byte	0
 1618 03b4 0A       		.uleb128 0xa
 1619 03b5 5F0E0000 		.4byte	.LASF114
 1620 03b9 04       		.byte	0x4
 1621 03ba 1402     		.2byte	0x214
 1622 03bc 42030000 		.4byte	0x342
 1623 03c0 0B       		.uleb128 0xb
 1624 03c1 1A       		.byte	0x1a
 1625 03c2 04       		.byte	0x4
 1626 03c3 1702     		.2byte	0x217
 1627 03c5 66040000 		.4byte	0x466
 1628 03c9 0C       		.uleb128 0xc
 1629 03ca 49120000 		.4byte	.LASF108
 1630 03ce 04       		.byte	0x4
 1631 03cf 1D02     		.2byte	0x21d
 1632 03d1 76000000 		.4byte	0x76
 1633 03d5 00       		.byte	0
 1634 03d6 0C       		.uleb128 0xc
 1635 03d7 25140000 		.4byte	.LASF109
 1636 03db 04       		.byte	0x4
 1637 03dc 2202     		.2byte	0x222
 1638 03de 76000000 		.4byte	0x76
 1639 03e2 02       		.byte	0x2
 1640 03e3 0C       		.uleb128 0xc
 1641 03e4 2D080000 		.4byte	.LASF115
ARM GAS  C:\Users\msuro\AppData\Local\Temp\ccOjNMmK.s 			page 50


 1642 03e8 04       		.byte	0x4
 1643 03e9 2A02     		.2byte	0x22a
 1644 03eb 6B000000 		.4byte	0x6b
 1645 03ef 04       		.byte	0x4
 1646 03f0 0C       		.uleb128 0xc
 1647 03f1 FC040000 		.4byte	.LASF116
 1648 03f5 04       		.byte	0x4
 1649 03f6 2D02     		.2byte	0x22d
 1650 03f8 26030000 		.4byte	0x326
 1651 03fc 05       		.byte	0x5
 1652 03fd 0C       		.uleb128 0xc
 1653 03fe 4C0C0000 		.4byte	.LASF117
 1654 0402 04       		.byte	0x4
 1655 0403 3302     		.2byte	0x233
 1656 0405 6B000000 		.4byte	0x6b
 1657 0409 0B       		.byte	0xb
 1658 040a 0C       		.uleb128 0xc
 1659 040b D50A0000 		.4byte	.LASF110
 1660 040f 04       		.byte	0x4
 1661 0410 3902     		.2byte	0x239
 1662 0412 6B000000 		.4byte	0x6b
 1663 0416 0C       		.byte	0xc
 1664 0417 0C       		.uleb128 0xc
 1665 0418 400C0000 		.4byte	.LASF118
 1666 041c 04       		.byte	0x4
 1667 041d 4002     		.2byte	0x240
 1668 041f 76000000 		.4byte	0x76
 1669 0423 0E       		.byte	0xe
 1670 0424 0C       		.uleb128 0xc
 1671 0425 760E0000 		.4byte	.LASF119
 1672 0429 04       		.byte	0x4
 1673 042a 4702     		.2byte	0x247
 1674 042c 76000000 		.4byte	0x76
 1675 0430 10       		.byte	0x10
 1676 0431 0C       		.uleb128 0xc
 1677 0432 D6140000 		.4byte	.LASF120
 1678 0436 04       		.byte	0x4
 1679 0437 4C02     		.2byte	0x24c
 1680 0439 76000000 		.4byte	0x76
 1681 043d 12       		.byte	0x12
 1682 043e 0C       		.uleb128 0xc
 1683 043f 3B120000 		.4byte	.LASF121
 1684 0443 04       		.byte	0x4
 1685 0444 5202     		.2byte	0x252
 1686 0446 76000000 		.4byte	0x76
 1687 044a 14       		.byte	0x14
 1688 044b 0C       		.uleb128 0xc
 1689 044c 1A040000 		.4byte	.LASF122
 1690 0450 04       		.byte	0x4
 1691 0451 5702     		.2byte	0x257
 1692 0453 76000000 		.4byte	0x76
 1693 0457 16       		.byte	0x16
 1694 0458 0C       		.uleb128 0xc
 1695 0459 95130000 		.4byte	.LASF123
 1696 045d 04       		.byte	0x4
 1697 045e 5C02     		.2byte	0x25c
 1698 0460 76000000 		.4byte	0x76
ARM GAS  C:\Users\msuro\AppData\Local\Temp\ccOjNMmK.s 			page 51


 1699 0464 18       		.byte	0x18
 1700 0465 00       		.byte	0
 1701 0466 0A       		.uleb128 0xa
 1702 0467 2C090000 		.4byte	.LASF124
 1703 046b 04       		.byte	0x4
 1704 046c 5E02     		.2byte	0x25e
 1705 046e C0030000 		.4byte	0x3c0
 1706 0472 0F       		.uleb128 0xf
 1707 0473 04       		.byte	0x4
 1708 0474 6B000000 		.4byte	0x6b
 1709 0478 0A       		.uleb128 0xa
 1710 0479 41030000 		.4byte	.LASF125
 1711 047d 05       		.byte	0x5
 1712 047e 5201     		.2byte	0x152
 1713 0480 76000000 		.4byte	0x76
 1714 0484 0B       		.uleb128 0xb
 1715 0485 02       		.byte	0x2
 1716 0486 05       		.byte	0x5
 1717 0487 5501     		.2byte	0x155
 1718 0489 A8040000 		.4byte	0x4a8
 1719 048d 0C       		.uleb128 0xc
 1720 048e A1130000 		.4byte	.LASF126
 1721 0492 05       		.byte	0x5
 1722 0493 5C01     		.2byte	0x15c
 1723 0495 6B000000 		.4byte	0x6b
 1724 0499 00       		.byte	0
 1725 049a 0C       		.uleb128 0xc
 1726 049b 9D090000 		.4byte	.LASF127
 1727 049f 05       		.byte	0x5
 1728 04a0 6201     		.2byte	0x162
 1729 04a2 6B000000 		.4byte	0x6b
 1730 04a6 01       		.byte	0x1
 1731 04a7 00       		.byte	0
 1732 04a8 0A       		.uleb128 0xa
 1733 04a9 72000000 		.4byte	.LASF128
 1734 04ad 05       		.byte	0x5
 1735 04ae 6401     		.2byte	0x164
 1736 04b0 84040000 		.4byte	0x484
 1737 04b4 10       		.uleb128 0x10
 1738 04b5 08       		.byte	0x8
 1739 04b6 06       		.byte	0x6
 1740 04b7 B8       		.byte	0xb8
 1741 04b8 D5040000 		.4byte	0x4d5
 1742 04bc 11       		.uleb128 0x11
 1743 04bd 33110000 		.4byte	.LASF129
 1744 04c1 06       		.byte	0x6
 1745 04c2 BB       		.byte	0xbb
 1746 04c3 76000000 		.4byte	0x76
 1747 04c7 00       		.byte	0
 1748 04c8 11       		.uleb128 0x11
 1749 04c9 F60B0000 		.4byte	.LASF130
 1750 04cd 06       		.byte	0x6
 1751 04ce C0       		.byte	0xc0
 1752 04cf B8000000 		.4byte	0xb8
 1753 04d3 04       		.byte	0x4
 1754 04d4 00       		.byte	0
 1755 04d5 04       		.uleb128 0x4
ARM GAS  C:\Users\msuro\AppData\Local\Temp\ccOjNMmK.s 			page 52


 1756 04d6 6C100000 		.4byte	.LASF131
 1757 04da 06       		.byte	0x6
 1758 04db C2       		.byte	0xc2
 1759 04dc B4040000 		.4byte	0x4b4
 1760 04e0 12       		.uleb128 0x12
 1761 04e1 08       		.byte	0x8
 1762 04e2 06       		.byte	0x6
 1763 04e3 C5       		.byte	0xc5
 1764 04e4 FF040000 		.4byte	0x4ff
 1765 04e8 13       		.uleb128 0x13
 1766 04e9 DF070000 		.4byte	.LASF132
 1767 04ed 06       		.byte	0x6
 1768 04ee CC       		.byte	0xcc
 1769 04ef D5040000 		.4byte	0x4d5
 1770 04f3 13       		.uleb128 0x13
 1771 04f4 D10B0000 		.4byte	.LASF133
 1772 04f8 06       		.byte	0x6
 1773 04f9 CF       		.byte	0xcf
 1774 04fa 76000000 		.4byte	0x76
 1775 04fe 00       		.byte	0
 1776 04ff 04       		.uleb128 0x4
 1777 0500 C90F0000 		.4byte	.LASF134
 1778 0504 06       		.byte	0x6
 1779 0505 D1       		.byte	0xd1
 1780 0506 E0040000 		.4byte	0x4e0
 1781 050a 10       		.uleb128 0x10
 1782 050b 14       		.byte	0x14
 1783 050c 06       		.byte	0x6
 1784 050d D4       		.byte	0xd4
 1785 050e 4F050000 		.4byte	0x54f
 1786 0512 11       		.uleb128 0x11
 1787 0513 8F050000 		.4byte	.LASF135
 1788 0517 06       		.byte	0x6
 1789 0518 D7       		.byte	0xd7
 1790 0519 76000000 		.4byte	0x76
 1791 051d 00       		.byte	0
 1792 051e 11       		.uleb128 0x11
 1793 051f 67060000 		.4byte	.LASF136
 1794 0523 06       		.byte	0x6
 1795 0524 DD       		.byte	0xdd
 1796 0525 76000000 		.4byte	0x76
 1797 0529 02       		.byte	0x2
 1798 052a 11       		.uleb128 0x11
 1799 052b F6030000 		.4byte	.LASF137
 1800 052f 06       		.byte	0x6
 1801 0530 E7       		.byte	0xe7
 1802 0531 81000000 		.4byte	0x81
 1803 0535 04       		.byte	0x4
 1804 0536 11       		.uleb128 0x11
 1805 0537 FB0F0000 		.4byte	.LASF138
 1806 053b 06       		.byte	0x6
 1807 053c EA       		.byte	0xea
 1808 053d 76000000 		.4byte	0x76
 1809 0541 08       		.byte	0x8
 1810 0542 11       		.uleb128 0x11
 1811 0543 5D0D0000 		.4byte	.LASF139
 1812 0547 06       		.byte	0x6
ARM GAS  C:\Users\msuro\AppData\Local\Temp\ccOjNMmK.s 			page 53


 1813 0548 F3       		.byte	0xf3
 1814 0549 FF040000 		.4byte	0x4ff
 1815 054d 0C       		.byte	0xc
 1816 054e 00       		.byte	0
 1817 054f 04       		.uleb128 0x4
 1818 0550 22110000 		.4byte	.LASF140
 1819 0554 06       		.byte	0x6
 1820 0555 F4       		.byte	0xf4
 1821 0556 0A050000 		.4byte	0x50a
 1822 055a 04       		.uleb128 0x4
 1823 055b 05120000 		.4byte	.LASF141
 1824 055f 07       		.byte	0x7
 1825 0560 FB       		.byte	0xfb
 1826 0561 65050000 		.4byte	0x565
 1827 0565 0F       		.uleb128 0xf
 1828 0566 04       		.byte	0x4
 1829 0567 6B050000 		.4byte	0x56b
 1830 056b 14       		.uleb128 0x14
 1831 056c 7B050000 		.4byte	0x57b
 1832 0570 15       		.uleb128 0x15
 1833 0571 81000000 		.4byte	0x81
 1834 0575 15       		.uleb128 0x15
 1835 0576 B8000000 		.4byte	0xb8
 1836 057a 00       		.byte	0
 1837 057b 10       		.uleb128 0x10
 1838 057c 04       		.byte	0x4
 1839 057d 08       		.byte	0x8
 1840 057e 5C       		.byte	0x5c
 1841 057f 9C050000 		.4byte	0x59c
 1842 0583 11       		.uleb128 0x11
 1843 0584 340F0000 		.4byte	.LASF142
 1844 0588 08       		.byte	0x8
 1845 0589 5F       		.byte	0x5f
 1846 058a 6B000000 		.4byte	0x6b
 1847 058e 00       		.byte	0
 1848 058f 11       		.uleb128 0x11
 1849 0590 A80D0000 		.4byte	.LASF143
 1850 0594 08       		.byte	0x8
 1851 0595 62       		.byte	0x62
 1852 0596 78040000 		.4byte	0x478
 1853 059a 02       		.byte	0x2
 1854 059b 00       		.byte	0
 1855 059c 04       		.uleb128 0x4
 1856 059d 5E070000 		.4byte	.LASF144
 1857 05a1 08       		.byte	0x8
 1858 05a2 63       		.byte	0x63
 1859 05a3 7B050000 		.4byte	0x57b
 1860 05a7 10       		.uleb128 0x10
 1861 05a8 06       		.byte	0x6
 1862 05a9 08       		.byte	0x8
 1863 05aa 7E       		.byte	0x7e
 1864 05ab C8050000 		.4byte	0x5c8
 1865 05af 11       		.uleb128 0x11
 1866 05b0 AD0A0000 		.4byte	.LASF145
 1867 05b4 08       		.byte	0x8
 1868 05b5 80       		.byte	0x80
 1869 05b6 9C050000 		.4byte	0x59c
ARM GAS  C:\Users\msuro\AppData\Local\Temp\ccOjNMmK.s 			page 54


 1870 05ba 00       		.byte	0
 1871 05bb 11       		.uleb128 0x11
 1872 05bc FA060000 		.4byte	.LASF146
 1873 05c0 08       		.byte	0x8
 1874 05c1 81       		.byte	0x81
 1875 05c2 78040000 		.4byte	0x478
 1876 05c6 04       		.byte	0x4
 1877 05c7 00       		.byte	0
 1878 05c8 04       		.uleb128 0x4
 1879 05c9 52120000 		.4byte	.LASF147
 1880 05cd 08       		.byte	0x8
 1881 05ce 82       		.byte	0x82
 1882 05cf A7050000 		.4byte	0x5a7
 1883 05d3 07       		.uleb128 0x7
 1884 05d4 01       		.byte	0x1
 1885 05d5 09       		.byte	0x9
 1886 05d6 1D       		.byte	0x1d
 1887 05d7 18060000 		.4byte	0x618
 1888 05db 08       		.uleb128 0x8
 1889 05dc 4B060000 		.4byte	.LASF148
 1890 05e0 00       		.sleb128 0
 1891 05e1 08       		.uleb128 0x8
 1892 05e2 920F0000 		.4byte	.LASF149
 1893 05e6 01       		.sleb128 1
 1894 05e7 08       		.uleb128 0x8
 1895 05e8 040D0000 		.4byte	.LASF150
 1896 05ec 02       		.sleb128 2
 1897 05ed 08       		.uleb128 0x8
 1898 05ee B3050000 		.4byte	.LASF151
 1899 05f2 03       		.sleb128 3
 1900 05f3 08       		.uleb128 0x8
 1901 05f4 78050000 		.4byte	.LASF152
 1902 05f8 04       		.sleb128 4
 1903 05f9 08       		.uleb128 0x8
 1904 05fa 480E0000 		.4byte	.LASF153
 1905 05fe 05       		.sleb128 5
 1906 05ff 08       		.uleb128 0x8
 1907 0600 2B0A0000 		.4byte	.LASF154
 1908 0604 06       		.sleb128 6
 1909 0605 08       		.uleb128 0x8
 1910 0606 DE0B0000 		.4byte	.LASF155
 1911 060a 07       		.sleb128 7
 1912 060b 08       		.uleb128 0x8
 1913 060c 5A090000 		.4byte	.LASF156
 1914 0610 08       		.sleb128 8
 1915 0611 08       		.uleb128 0x8
 1916 0612 7B0D0000 		.4byte	.LASF157
 1917 0616 09       		.sleb128 9
 1918 0617 00       		.byte	0
 1919 0618 09       		.uleb128 0x9
 1920 0619 01       		.byte	0x1
 1921 061a 0A       		.byte	0xa
 1922 061b 9505     		.2byte	0x595
 1923 061d 46060000 		.4byte	0x646
 1924 0621 08       		.uleb128 0x8
 1925 0622 3F000000 		.4byte	.LASF158
 1926 0626 00       		.sleb128 0
ARM GAS  C:\Users\msuro\AppData\Local\Temp\ccOjNMmK.s 			page 55


 1927 0627 08       		.uleb128 0x8
 1928 0628 BC0A0000 		.4byte	.LASF159
 1929 062c 01       		.sleb128 1
 1930 062d 08       		.uleb128 0x8
 1931 062e ED120000 		.4byte	.LASF160
 1932 0632 02       		.sleb128 2
 1933 0633 08       		.uleb128 0x8
 1934 0634 500F0000 		.4byte	.LASF161
 1935 0638 03       		.sleb128 3
 1936 0639 08       		.uleb128 0x8
 1937 063a B40D0000 		.4byte	.LASF162
 1938 063e 04       		.sleb128 4
 1939 063f 08       		.uleb128 0x8
 1940 0640 67040000 		.4byte	.LASF163
 1941 0644 05       		.sleb128 5
 1942 0645 00       		.byte	0
 1943 0646 0A       		.uleb128 0xa
 1944 0647 92030000 		.4byte	.LASF164
 1945 064b 0A       		.byte	0xa
 1946 064c A305     		.2byte	0x5a3
 1947 064e 18060000 		.4byte	0x618
 1948 0652 09       		.uleb128 0x9
 1949 0653 01       		.byte	0x1
 1950 0654 0A       		.byte	0xa
 1951 0655 A905     		.2byte	0x5a9
 1952 0657 92060000 		.4byte	0x692
 1953 065b 08       		.uleb128 0x8
 1954 065c B9140000 		.4byte	.LASF165
 1955 0660 00       		.sleb128 0
 1956 0661 08       		.uleb128 0x8
 1957 0662 BE0E0000 		.4byte	.LASF166
 1958 0666 01       		.sleb128 1
 1959 0667 08       		.uleb128 0x8
 1960 0668 6E030000 		.4byte	.LASF167
 1961 066c 02       		.sleb128 2
 1962 066d 08       		.uleb128 0x8
 1963 066e 1D0B0000 		.4byte	.LASF168
 1964 0672 03       		.sleb128 3
 1965 0673 08       		.uleb128 0x8
 1966 0674 CC020000 		.4byte	.LASF169
 1967 0678 04       		.sleb128 4
 1968 0679 08       		.uleb128 0x8
 1969 067a 220C0000 		.4byte	.LASF170
 1970 067e 05       		.sleb128 5
 1971 067f 08       		.uleb128 0x8
 1972 0680 01110000 		.4byte	.LASF171
 1973 0684 06       		.sleb128 6
 1974 0685 08       		.uleb128 0x8
 1975 0686 18100000 		.4byte	.LASF172
 1976 068a 07       		.sleb128 7
 1977 068b 08       		.uleb128 0x8
 1978 068c C8060000 		.4byte	.LASF173
 1979 0690 08       		.sleb128 8
 1980 0691 00       		.byte	0
 1981 0692 0A       		.uleb128 0xa
 1982 0693 85140000 		.4byte	.LASF174
 1983 0697 0A       		.byte	0xa
ARM GAS  C:\Users\msuro\AppData\Local\Temp\ccOjNMmK.s 			page 56


 1984 0698 B305     		.2byte	0x5b3
 1985 069a 52060000 		.4byte	0x652
 1986 069e 0B       		.uleb128 0xb
 1987 069f 0A       		.byte	0xa
 1988 06a0 0A       		.byte	0xa
 1989 06a1 B605     		.2byte	0x5b6
 1990 06a3 E9060000 		.4byte	0x6e9
 1991 06a7 0C       		.uleb128 0xc
 1992 06a8 30140000 		.4byte	.LASF175
 1993 06ac 0A       		.byte	0xa
 1994 06ad B905     		.2byte	0x5b9
 1995 06af 78040000 		.4byte	0x478
 1996 06b3 00       		.byte	0
 1997 06b4 0C       		.uleb128 0xc
 1998 06b5 AE010000 		.4byte	.LASF176
 1999 06b9 0A       		.byte	0xa
 2000 06ba BB05     		.2byte	0x5bb
 2001 06bc 78040000 		.4byte	0x478
 2002 06c0 02       		.byte	0x2
 2003 06c1 0C       		.uleb128 0xc
 2004 06c2 8A100000 		.4byte	.LASF177
 2005 06c6 0A       		.byte	0xa
 2006 06c7 BD05     		.2byte	0x5bd
 2007 06c9 78040000 		.4byte	0x478
 2008 06cd 04       		.byte	0x4
 2009 06ce 0C       		.uleb128 0xc
 2010 06cf E7040000 		.4byte	.LASF178
 2011 06d3 0A       		.byte	0xa
 2012 06d4 BF05     		.2byte	0x5bf
 2013 06d6 78040000 		.4byte	0x478
 2014 06da 06       		.byte	0x6
 2015 06db 0C       		.uleb128 0xc
 2016 06dc 900D0000 		.4byte	.LASF179
 2017 06e0 0A       		.byte	0xa
 2018 06e1 C205     		.2byte	0x5c2
 2019 06e3 78040000 		.4byte	0x478
 2020 06e7 08       		.byte	0x8
 2021 06e8 00       		.byte	0
 2022 06e9 0A       		.uleb128 0xa
 2023 06ea E10F0000 		.4byte	.LASF180
 2024 06ee 0A       		.byte	0xa
 2025 06ef C305     		.2byte	0x5c3
 2026 06f1 9E060000 		.4byte	0x69e
 2027 06f5 09       		.uleb128 0x9
 2028 06f6 01       		.byte	0x1
 2029 06f7 0A       		.byte	0xa
 2030 06f8 C705     		.2byte	0x5c7
 2031 06fa 17070000 		.4byte	0x717
 2032 06fe 08       		.uleb128 0x8
 2033 06ff 5D100000 		.4byte	.LASF181
 2034 0703 00       		.sleb128 0
 2035 0704 08       		.uleb128 0x8
 2036 0705 08100000 		.4byte	.LASF182
 2037 0709 01       		.sleb128 1
 2038 070a 08       		.uleb128 0x8
 2039 070b BC070000 		.4byte	.LASF183
 2040 070f 02       		.sleb128 2
ARM GAS  C:\Users\msuro\AppData\Local\Temp\ccOjNMmK.s 			page 57


 2041 0710 08       		.uleb128 0x8
 2042 0711 3F0F0000 		.4byte	.LASF184
 2043 0715 03       		.sleb128 3
 2044 0716 00       		.byte	0
 2045 0717 16       		.uleb128 0x16
 2046 0718 DD130000 		.4byte	.LASF185
 2047 071c 01       		.byte	0x1
 2048 071d 6A       		.byte	0x6a
 2049 071e 00000000 		.4byte	.LFB2
 2050 0722 8C000000 		.4byte	.LFE2-.LFB2
 2051 0726 01       		.uleb128 0x1
 2052 0727 9C       		.byte	0x9c
 2053 0728 16       		.uleb128 0x16
 2054 0729 E8060000 		.4byte	.LASF186
 2055 072d 01       		.byte	0x1
 2056 072e 9E       		.byte	0x9e
 2057 072f 00000000 		.4byte	.LFB3
 2058 0733 30000000 		.4byte	.LFE3-.LFB3
 2059 0737 01       		.uleb128 0x1
 2060 0738 9C       		.byte	0x9c
 2061 0739 17       		.uleb128 0x17
 2062 073a 20090000 		.4byte	.LASF190
 2063 073e 01       		.byte	0x1
 2064 073f 2501     		.2byte	0x125
 2065 0741 F6020000 		.4byte	0x2f6
 2066 0745 00000000 		.4byte	.LFB4
 2067 0749 9C000000 		.4byte	.LFE4-.LFB4
 2068 074d 01       		.uleb128 0x1
 2069 074e 9C       		.byte	0x9c
 2070 074f 84070000 		.4byte	0x784
 2071 0753 18       		.uleb128 0x18
 2072 0754 500D0000 		.4byte	.LASF192
 2073 0758 01       		.byte	0x1
 2074 0759 2501     		.2byte	0x125
 2075 075b 5A050000 		.4byte	0x55a
 2076 075f 02       		.uleb128 0x2
 2077 0760 91       		.byte	0x91
 2078 0761 64       		.sleb128 -28
 2079 0762 19       		.uleb128 0x19
 2080 0763 6F0B0000 		.4byte	.LASF187
 2081 0767 01       		.byte	0x1
 2082 0768 2701     		.2byte	0x127
 2083 076a F6020000 		.4byte	0x2f6
 2084 076e 02       		.uleb128 0x2
 2085 076f 91       		.byte	0x91
 2086 0770 6E       		.sleb128 -18
 2087 0771 19       		.uleb128 0x19
 2088 0772 52010000 		.4byte	.LASF188
 2089 0776 01       		.byte	0x1
 2090 0777 2A01     		.2byte	0x12a
 2091 0779 84070000 		.4byte	0x784
 2092 077d 05       		.uleb128 0x5
 2093 077e 03       		.byte	0x3
 2094 077f 08000000 		.4byte	cyBle_stackMemoryRam.6119
 2095 0783 00       		.byte	0
 2096 0784 0D       		.uleb128 0xd
 2097 0785 6B000000 		.4byte	0x6b
ARM GAS  C:\Users\msuro\AppData\Local\Temp\ccOjNMmK.s 			page 58


 2098 0789 95070000 		.4byte	0x795
 2099 078d 1A       		.uleb128 0x1a
 2100 078e B1000000 		.4byte	0xb1
 2101 0792 6B10     		.2byte	0x106b
 2102 0794 00       		.byte	0
 2103 0795 1B       		.uleb128 0x1b
 2104 0796 8C0B0000 		.4byte	.LASF189
 2105 079a 01       		.byte	0x1
 2106 079b 5B01     		.2byte	0x15b
 2107 079d 00000000 		.4byte	.LFB5
 2108 07a1 1C000000 		.4byte	.LFE5-.LFB5
 2109 07a5 01       		.uleb128 0x1
 2110 07a6 9C       		.byte	0x9c
 2111 07a7 17       		.uleb128 0x17
 2112 07a8 EE110000 		.4byte	.LASF191
 2113 07ac 01       		.byte	0x1
 2114 07ad 8401     		.2byte	0x184
 2115 07af F6020000 		.4byte	0x2f6
 2116 07b3 00000000 		.4byte	.LFB6
 2117 07b7 DC000000 		.4byte	.LFE6-.LFB6
 2118 07bb 01       		.uleb128 0x1
 2119 07bc 9C       		.byte	0x9c
 2120 07bd E0070000 		.4byte	0x7e0
 2121 07c1 18       		.uleb128 0x18
 2122 07c2 3F070000 		.4byte	.LASF193
 2123 07c6 01       		.byte	0x1
 2124 07c7 8401     		.2byte	0x184
 2125 07c9 6B000000 		.4byte	0x6b
 2126 07cd 02       		.uleb128 0x2
 2127 07ce 91       		.byte	0x91
 2128 07cf 67       		.sleb128 -25
 2129 07d0 19       		.uleb128 0x19
 2130 07d1 6F0B0000 		.4byte	.LASF187
 2131 07d5 01       		.byte	0x1
 2132 07d6 8601     		.2byte	0x186
 2133 07d8 F6020000 		.4byte	0x2f6
 2134 07dc 02       		.uleb128 0x2
 2135 07dd 91       		.byte	0x91
 2136 07de 6E       		.sleb128 -18
 2137 07df 00       		.byte	0
 2138 07e0 17       		.uleb128 0x17
 2139 07e1 27020000 		.4byte	.LASF194
 2140 07e5 01       		.byte	0x1
 2141 07e6 9F02     		.2byte	0x29f
 2142 07e8 F6020000 		.4byte	0x2f6
 2143 07ec 00000000 		.4byte	.LFB7
 2144 07f0 94000000 		.4byte	.LFE7-.LFB7
 2145 07f4 01       		.uleb128 0x1
 2146 07f5 9C       		.byte	0x9c
 2147 07f6 19080000 		.4byte	0x819
 2148 07fa 18       		.uleb128 0x18
 2149 07fb 330E0000 		.4byte	.LASF195
 2150 07ff 01       		.byte	0x1
 2151 0800 9F02     		.2byte	0x29f
 2152 0802 6B000000 		.4byte	0x6b
 2153 0806 02       		.uleb128 0x2
 2154 0807 91       		.byte	0x91
ARM GAS  C:\Users\msuro\AppData\Local\Temp\ccOjNMmK.s 			page 59


 2155 0808 67       		.sleb128 -25
 2156 0809 19       		.uleb128 0x19
 2157 080a 6F0B0000 		.4byte	.LASF187
 2158 080e 01       		.byte	0x1
 2159 080f A102     		.2byte	0x2a1
 2160 0811 F6020000 		.4byte	0x2f6
 2161 0815 02       		.uleb128 0x2
 2162 0816 91       		.byte	0x91
 2163 0817 6E       		.sleb128 -18
 2164 0818 00       		.byte	0
 2165 0819 1B       		.uleb128 0x1b
 2166 081a 91080000 		.4byte	.LASF196
 2167 081e 01       		.byte	0x1
 2168 081f D402     		.2byte	0x2d4
 2169 0821 00000000 		.4byte	.LFB8
 2170 0825 20000000 		.4byte	.LFE8-.LFB8
 2171 0829 01       		.uleb128 0x1
 2172 082a 9C       		.byte	0x9c
 2173 082b 17       		.uleb128 0x17
 2174 082c 45140000 		.4byte	.LASF197
 2175 0830 01       		.byte	0x1
 2176 0831 0D03     		.2byte	0x30d
 2177 0833 F6020000 		.4byte	0x2f6
 2178 0837 00000000 		.4byte	.LFB9
 2179 083b B8000000 		.4byte	.LFE9-.LFB9
 2180 083f 01       		.uleb128 0x1
 2181 0840 9C       		.byte	0x9c
 2182 0841 71080000 		.4byte	0x871
 2183 0845 18       		.uleb128 0x18
 2184 0846 FB0A0000 		.4byte	.LASF198
 2185 084a 01       		.byte	0x1
 2186 084b 0D03     		.2byte	0x30d
 2187 084d 71080000 		.4byte	0x871
 2188 0851 02       		.uleb128 0x2
 2189 0852 91       		.byte	0x91
 2190 0853 64       		.sleb128 -28
 2191 0854 19       		.uleb128 0x19
 2192 0855 6F0B0000 		.4byte	.LASF187
 2193 0859 01       		.byte	0x1
 2194 085a 0F03     		.2byte	0x30f
 2195 085c F6020000 		.4byte	0x2f6
 2196 0860 02       		.uleb128 0x2
 2197 0861 91       		.byte	0x91
 2198 0862 6E       		.sleb128 -18
 2199 0863 1C       		.uleb128 0x1c
 2200 0864 6900     		.ascii	"i\000"
 2201 0866 01       		.byte	0x1
 2202 0867 1003     		.2byte	0x310
 2203 0869 6B000000 		.4byte	0x6b
 2204 086d 02       		.uleb128 0x2
 2205 086e 91       		.byte	0x91
 2206 086f 6D       		.sleb128 -19
 2207 0870 00       		.byte	0
 2208 0871 0F       		.uleb128 0xf
 2209 0872 04       		.byte	0x4
 2210 0873 77080000 		.4byte	0x877
 2211 0877 1D       		.uleb128 0x1d
ARM GAS  C:\Users\msuro\AppData\Local\Temp\ccOjNMmK.s 			page 60


 2212 0878 36030000 		.4byte	0x336
 2213 087c 17       		.uleb128 0x17
 2214 087d 3F130000 		.4byte	.LASF199
 2215 0881 01       		.byte	0x1
 2216 0882 4B03     		.2byte	0x34b
 2217 0884 F6020000 		.4byte	0x2f6
 2218 0888 00000000 		.4byte	.LFB10
 2219 088c 40000000 		.4byte	.LFE10-.LFB10
 2220 0890 01       		.uleb128 0x1
 2221 0891 9C       		.byte	0x9c
 2222 0892 A6080000 		.4byte	0x8a6
 2223 0896 19       		.uleb128 0x19
 2224 0897 6F0B0000 		.4byte	.LASF187
 2225 089b 01       		.byte	0x1
 2226 089c 4D03     		.2byte	0x34d
 2227 089e F6020000 		.4byte	0x2f6
 2228 08a2 02       		.uleb128 0x2
 2229 08a3 91       		.byte	0x91
 2230 08a4 6E       		.sleb128 -18
 2231 08a5 00       		.byte	0
 2232 08a6 1E       		.uleb128 0x1e
 2233 08a7 CB040000 		.4byte	.LASF200
 2234 08ab 01       		.byte	0x1
 2235 08ac DF03     		.2byte	0x3df
 2236 08ae F6020000 		.4byte	0x2f6
 2237 08b2 00000000 		.4byte	.LFB11
 2238 08b6 A4000000 		.4byte	.LFE11-.LFB11
 2239 08ba 01       		.uleb128 0x1
 2240 08bb 9C       		.byte	0x9c
 2241 08bc 0A090000 		.4byte	0x90a
 2242 08c0 18       		.uleb128 0x18
 2243 08c1 B7070000 		.4byte	.LASF201
 2244 08c5 01       		.byte	0x1
 2245 08c6 DF03     		.2byte	0x3df
 2246 08c8 0A090000 		.4byte	0x90a
 2247 08cc 02       		.uleb128 0x2
 2248 08cd 91       		.byte	0x91
 2249 08ce 64       		.sleb128 -28
 2250 08cf 19       		.uleb128 0x19
 2251 08d0 6F0B0000 		.4byte	.LASF187
 2252 08d4 01       		.byte	0x1
 2253 08d5 E103     		.2byte	0x3e1
 2254 08d7 F6020000 		.4byte	0x2f6
 2255 08db 02       		.uleb128 0x2
 2256 08dc 91       		.byte	0x91
 2257 08dd 76       		.sleb128 -10
 2258 08de 1C       		.uleb128 0x1c
 2259 08df 6900     		.ascii	"i\000"
 2260 08e1 01       		.byte	0x1
 2261 08e2 E203     		.2byte	0x3e2
 2262 08e4 6B000000 		.4byte	0x6b
 2263 08e8 02       		.uleb128 0x2
 2264 08e9 91       		.byte	0x91
 2265 08ea 75       		.sleb128 -11
 2266 08eb 1C       		.uleb128 0x1c
 2267 08ec 70747200 		.ascii	"ptr\000"
 2268 08f0 01       		.byte	0x1
ARM GAS  C:\Users\msuro\AppData\Local\Temp\ccOjNMmK.s 			page 61


 2269 08f1 E303     		.2byte	0x3e3
 2270 08f3 15090000 		.4byte	0x915
 2271 08f7 02       		.uleb128 0x2
 2272 08f8 91       		.byte	0x91
 2273 08f9 70       		.sleb128 -16
 2274 08fa 19       		.uleb128 0x19
 2275 08fb E3090000 		.4byte	.LASF202
 2276 08ff 01       		.byte	0x1
 2277 0900 E403     		.2byte	0x3e4
 2278 0902 6B000000 		.4byte	0x6b
 2279 0906 02       		.uleb128 0x2
 2280 0907 91       		.byte	0x91
 2281 0908 6F       		.sleb128 -17
 2282 0909 00       		.byte	0
 2283 090a 0F       		.uleb128 0xf
 2284 090b 04       		.byte	0x4
 2285 090c 10090000 		.4byte	0x910
 2286 0910 1D       		.uleb128 0x1d
 2287 0911 9A000000 		.4byte	0x9a
 2288 0915 0F       		.uleb128 0xf
 2289 0916 04       		.byte	0x4
 2290 0917 9A000000 		.4byte	0x9a
 2291 091b 1E       		.uleb128 0x1e
 2292 091c 44090000 		.4byte	.LASF203
 2293 0920 01       		.byte	0x1
 2294 0921 2604     		.2byte	0x426
 2295 0923 F6020000 		.4byte	0x2f6
 2296 0927 00000000 		.4byte	.LFB12
 2297 092b A4000000 		.4byte	.LFE12-.LFB12
 2298 092f 01       		.uleb128 0x1
 2299 0930 9C       		.byte	0x9c
 2300 0931 7F090000 		.4byte	0x97f
 2301 0935 18       		.uleb128 0x18
 2302 0936 B7070000 		.4byte	.LASF201
 2303 093a 01       		.byte	0x1
 2304 093b 2604     		.2byte	0x426
 2305 093d 15090000 		.4byte	0x915
 2306 0941 02       		.uleb128 0x2
 2307 0942 91       		.byte	0x91
 2308 0943 64       		.sleb128 -28
 2309 0944 19       		.uleb128 0x19
 2310 0945 6F0B0000 		.4byte	.LASF187
 2311 0949 01       		.byte	0x1
 2312 094a 2804     		.2byte	0x428
 2313 094c F6020000 		.4byte	0x2f6
 2314 0950 02       		.uleb128 0x2
 2315 0951 91       		.byte	0x91
 2316 0952 76       		.sleb128 -10
 2317 0953 19       		.uleb128 0x19
 2318 0954 E3090000 		.4byte	.LASF202
 2319 0958 01       		.byte	0x1
 2320 0959 2904     		.2byte	0x429
 2321 095b 6B000000 		.4byte	0x6b
 2322 095f 02       		.uleb128 0x2
 2323 0960 91       		.byte	0x91
 2324 0961 6F       		.sleb128 -17
 2325 0962 1C       		.uleb128 0x1c
ARM GAS  C:\Users\msuro\AppData\Local\Temp\ccOjNMmK.s 			page 62


 2326 0963 6900     		.ascii	"i\000"
 2327 0965 01       		.byte	0x1
 2328 0966 2A04     		.2byte	0x42a
 2329 0968 6B000000 		.4byte	0x6b
 2330 096c 02       		.uleb128 0x2
 2331 096d 91       		.byte	0x91
 2332 096e 75       		.sleb128 -11
 2333 096f 1C       		.uleb128 0x1c
 2334 0970 70747200 		.ascii	"ptr\000"
 2335 0974 01       		.byte	0x1
 2336 0975 2B04     		.2byte	0x42b
 2337 0977 15090000 		.4byte	0x915
 2338 097b 02       		.uleb128 0x2
 2339 097c 91       		.byte	0x91
 2340 097d 70       		.sleb128 -16
 2341 097e 00       		.byte	0
 2342 097f 1E       		.uleb128 0x1e
 2343 0980 84130000 		.4byte	.LASF204
 2344 0984 01       		.byte	0x1
 2345 0985 5A04     		.2byte	0x45a
 2346 0987 76000000 		.4byte	0x76
 2347 098b 00000000 		.4byte	.LFB13
 2348 098f 24000000 		.4byte	.LFE13-.LFB13
 2349 0993 01       		.uleb128 0x1
 2350 0994 9C       		.byte	0x9c
 2351 0995 A9090000 		.4byte	0x9a9
 2352 0999 1F       		.uleb128 0x1f
 2353 099a 70747200 		.ascii	"ptr\000"
 2354 099e 01       		.byte	0x1
 2355 099f 5A04     		.2byte	0x45a
 2356 09a1 A9090000 		.4byte	0x9a9
 2357 09a5 02       		.uleb128 0x2
 2358 09a6 91       		.byte	0x91
 2359 09a7 74       		.sleb128 -12
 2360 09a8 00       		.byte	0
 2361 09a9 0F       		.uleb128 0xf
 2362 09aa 04       		.byte	0x4
 2363 09ab AF090000 		.4byte	0x9af
 2364 09af 1D       		.uleb128 0x1d
 2365 09b0 6B000000 		.4byte	0x6b
 2366 09b4 20       		.uleb128 0x20
 2367 09b5 F5080000 		.4byte	.LASF228
 2368 09b9 01       		.byte	0x1
 2369 09ba 6F04     		.2byte	0x46f
 2370 09bc 00000000 		.4byte	.LFB14
 2371 09c0 2E000000 		.4byte	.LFE14-.LFB14
 2372 09c4 01       		.uleb128 0x1
 2373 09c5 9C       		.byte	0x9c
 2374 09c6 E9090000 		.4byte	0x9e9
 2375 09ca 1F       		.uleb128 0x1f
 2376 09cb 70747200 		.ascii	"ptr\000"
 2377 09cf 01       		.byte	0x1
 2378 09d0 6F04     		.2byte	0x46f
 2379 09d2 72040000 		.4byte	0x472
 2380 09d6 02       		.uleb128 0x2
 2381 09d7 91       		.byte	0x91
 2382 09d8 74       		.sleb128 -12
ARM GAS  C:\Users\msuro\AppData\Local\Temp\ccOjNMmK.s 			page 63


 2383 09d9 18       		.uleb128 0x18
 2384 09da 86060000 		.4byte	.LASF205
 2385 09de 01       		.byte	0x1
 2386 09df 6F04     		.2byte	0x46f
 2387 09e1 76000000 		.4byte	0x76
 2388 09e5 02       		.uleb128 0x2
 2389 09e6 91       		.byte	0x91
 2390 09e7 72       		.sleb128 -14
 2391 09e8 00       		.byte	0
 2392 09e9 21       		.uleb128 0x21
 2393 09ea E20E0000 		.4byte	.LASF206
 2394 09ee 01       		.byte	0x1
 2395 09ef 58       		.byte	0x58
 2396 09f0 5A050000 		.4byte	0x55a
 2397 09f4 05       		.uleb128 0x5
 2398 09f5 03       		.byte	0x3
 2399 09f6 00000000 		.4byte	CyBle_ApplCallback
 2400 09fa 21       		.uleb128 0x21
 2401 09fb A4080000 		.4byte	.LASF207
 2402 09ff 01       		.byte	0x1
 2403 0a00 29       		.byte	0x29
 2404 0a01 6B000000 		.4byte	0x6b
 2405 0a05 05       		.uleb128 0x5
 2406 0a06 03       		.byte	0x3
 2407 0a07 00000000 		.4byte	cyBle_initVar
 2408 0a0b 22       		.uleb128 0x22
 2409 0a0c 0E140000 		.4byte	.LASF208
 2410 0a10 07       		.byte	0x7
 2411 0a11 6901     		.2byte	0x169
 2412 0a13 AC000000 		.4byte	0xac
 2413 0a17 21       		.uleb128 0x21
 2414 0a18 7E120000 		.4byte	.LASF209
 2415 0a1c 01       		.byte	0x1
 2416 0a1d 59       		.byte	0x59
 2417 0a1e 36030000 		.4byte	0x336
 2418 0a22 05       		.uleb128 0x5
 2419 0a23 03       		.byte	0x3
 2420 0a24 00000000 		.4byte	cyBle_deviceAddress
 2421 0a28 21       		.uleb128 0x21
 2422 0a29 D3120000 		.4byte	.LASF210
 2423 0a2d 01       		.byte	0x1
 2424 0a2e 5A       		.byte	0x5a
 2425 0a2f 390A0000 		.4byte	0xa39
 2426 0a33 05       		.uleb128 0x5
 2427 0a34 03       		.byte	0x3
 2428 0a35 00000000 		.4byte	cyBle_sflashDeviceAddress
 2429 0a39 0F       		.uleb128 0xf
 2430 0a3a 04       		.byte	0x4
 2431 0a3b 36030000 		.4byte	0x336
 2432 0a3f 21       		.uleb128 0x21
 2433 0a40 CB070000 		.4byte	.LASF211
 2434 0a44 01       		.byte	0x1
 2435 0a45 44       		.byte	0x44
 2436 0a46 B4030000 		.4byte	0x3b4
 2437 0a4a 05       		.uleb128 0x5
 2438 0a4b 03       		.byte	0x3
 2439 0a4c 00000000 		.4byte	cyBle_discoveryInfo
ARM GAS  C:\Users\msuro\AppData\Local\Temp\ccOjNMmK.s 			page 64


 2440 0a50 21       		.uleb128 0x21
 2441 0a51 EE070000 		.4byte	.LASF212
 2442 0a55 01       		.byte	0x1
 2443 0a56 33       		.byte	0x33
 2444 0a57 66040000 		.4byte	0x466
 2445 0a5b 05       		.uleb128 0x5
 2446 0a5c 03       		.byte	0x3
 2447 0a5d 00000000 		.4byte	cyBle_connectionParameters
 2448 0a61 21       		.uleb128 0x21
 2449 0a62 E9100000 		.4byte	.LASF213
 2450 0a66 01       		.byte	0x1
 2451 0a67 38       		.byte	0x38
 2452 0a68 76000000 		.4byte	0x76
 2453 0a6c 05       		.uleb128 0x5
 2454 0a6d 03       		.byte	0x3
 2455 0a6e 00000000 		.4byte	cyBle_connectingTimeout
 2456 0a72 21       		.uleb128 0x21
 2457 0a73 700C0000 		.4byte	.LASF214
 2458 0a77 01       		.byte	0x1
 2459 0a78 54       		.byte	0x54
 2460 0a79 6B000000 		.4byte	0x6b
 2461 0a7d 05       		.uleb128 0x5
 2462 0a7e 03       		.byte	0x3
 2463 0a7f 00000000 		.4byte	cyBle_pendingFlashWrite
 2464 0a83 0D       		.uleb128 0xd
 2465 0a84 4F050000 		.4byte	0x54f
 2466 0a88 930A0000 		.4byte	0xa93
 2467 0a8c 0E       		.uleb128 0xe
 2468 0a8d B1000000 		.4byte	0xb1
 2469 0a91 1B       		.byte	0x1b
 2470 0a92 00       		.byte	0
 2471 0a93 23       		.uleb128 0x23
 2472 0a94 650F0000 		.4byte	.LASF215
 2473 0a98 08       		.byte	0x8
 2474 0a99 B4       		.byte	0xb4
 2475 0a9a 9E0A0000 		.4byte	0xa9e
 2476 0a9e 1D       		.uleb128 0x1d
 2477 0a9f 830A0000 		.4byte	0xa83
 2478 0aa3 0D       		.uleb128 0xd
 2479 0aa4 6B000000 		.4byte	0x6b
 2480 0aa8 B30A0000 		.4byte	0xab3
 2481 0aac 0E       		.uleb128 0xe
 2482 0aad B1000000 		.4byte	0xb1
 2483 0ab1 01       		.byte	0x1
 2484 0ab2 00       		.byte	0
 2485 0ab3 23       		.uleb128 0x23
 2486 0ab4 43100000 		.4byte	.LASF216
 2487 0ab8 08       		.byte	0x8
 2488 0ab9 B7       		.byte	0xb7
 2489 0aba A30A0000 		.4byte	0xaa3
 2490 0abe 0D       		.uleb128 0xd
 2491 0abf 6B000000 		.4byte	0x6b
 2492 0ac3 D40A0000 		.4byte	0xad4
 2493 0ac7 0E       		.uleb128 0xe
 2494 0ac8 B1000000 		.4byte	0xb1
 2495 0acc 04       		.byte	0x4
 2496 0acd 0E       		.uleb128 0xe
ARM GAS  C:\Users\msuro\AppData\Local\Temp\ccOjNMmK.s 			page 65


 2497 0ace B1000000 		.4byte	0xb1
 2498 0ad2 01       		.byte	0x1
 2499 0ad3 00       		.byte	0
 2500 0ad4 23       		.uleb128 0x23
 2501 0ad5 9A140000 		.4byte	.LASF217
 2502 0ad9 08       		.byte	0x8
 2503 0ada B8       		.byte	0xb8
 2504 0adb DF0A0000 		.4byte	0xadf
 2505 0adf 1D       		.uleb128 0x1d
 2506 0ae0 BE0A0000 		.4byte	0xabe
 2507 0ae4 23       		.uleb128 0x23
 2508 0ae5 6C050000 		.4byte	.LASF218
 2509 0ae9 08       		.byte	0x8
 2510 0aea BF       		.byte	0xbf
 2511 0aeb C8050000 		.4byte	0x5c8
 2512 0aef 22       		.uleb128 0x22
 2513 0af0 6B090000 		.4byte	.LASF219
 2514 0af4 0A       		.byte	0xa
 2515 0af5 2207     		.2byte	0x722
 2516 0af7 46060000 		.4byte	0x646
 2517 0afb 22       		.uleb128 0x22
 2518 0afc 05070000 		.4byte	.LASF220
 2519 0b00 0A       		.byte	0xa
 2520 0b01 2307     		.2byte	0x723
 2521 0b03 A8040000 		.4byte	0x4a8
 2522 0b07 22       		.uleb128 0x22
 2523 0b08 5A020000 		.4byte	.LASF221
 2524 0b0c 0A       		.byte	0xa
 2525 0b0d 2407     		.2byte	0x724
 2526 0b0f AC000000 		.4byte	0xac
 2527 0b13 22       		.uleb128 0x22
 2528 0b14 720F0000 		.4byte	.LASF222
 2529 0b18 0A       		.byte	0xa
 2530 0b19 2B07     		.2byte	0x72b
 2531 0b1b 6B000000 		.4byte	0x6b
 2532 0b1f 22       		.uleb128 0x22
 2533 0b20 410B0000 		.4byte	.LASF223
 2534 0b24 0A       		.byte	0xa
 2535 0b25 2F07     		.2byte	0x72f
 2536 0b27 92060000 		.4byte	0x692
 2537 0b2b 22       		.uleb128 0x22
 2538 0b2c 6B020000 		.4byte	.LASF224
 2539 0b30 0A       		.byte	0xa
 2540 0b31 3107     		.2byte	0x731
 2541 0b33 E9060000 		.4byte	0x6e9
 2542 0b37 00       		.byte	0
 2543              		.section	.debug_abbrev,"",%progbits
 2544              	.Ldebug_abbrev0:
 2545 0000 01       		.uleb128 0x1
 2546 0001 11       		.uleb128 0x11
 2547 0002 01       		.byte	0x1
 2548 0003 25       		.uleb128 0x25
 2549 0004 0E       		.uleb128 0xe
 2550 0005 13       		.uleb128 0x13
 2551 0006 0B       		.uleb128 0xb
 2552 0007 03       		.uleb128 0x3
 2553 0008 0E       		.uleb128 0xe
ARM GAS  C:\Users\msuro\AppData\Local\Temp\ccOjNMmK.s 			page 66


 2554 0009 1B       		.uleb128 0x1b
 2555 000a 0E       		.uleb128 0xe
 2556 000b 55       		.uleb128 0x55
 2557 000c 17       		.uleb128 0x17
 2558 000d 11       		.uleb128 0x11
 2559 000e 01       		.uleb128 0x1
 2560 000f 10       		.uleb128 0x10
 2561 0010 17       		.uleb128 0x17
 2562 0011 00       		.byte	0
 2563 0012 00       		.byte	0
 2564 0013 02       		.uleb128 0x2
 2565 0014 24       		.uleb128 0x24
 2566 0015 00       		.byte	0
 2567 0016 0B       		.uleb128 0xb
 2568 0017 0B       		.uleb128 0xb
 2569 0018 3E       		.uleb128 0x3e
 2570 0019 0B       		.uleb128 0xb
 2571 001a 03       		.uleb128 0x3
 2572 001b 0E       		.uleb128 0xe
 2573 001c 00       		.byte	0
 2574 001d 00       		.byte	0
 2575 001e 03       		.uleb128 0x3
 2576 001f 24       		.uleb128 0x24
 2577 0020 00       		.byte	0
 2578 0021 0B       		.uleb128 0xb
 2579 0022 0B       		.uleb128 0xb
 2580 0023 3E       		.uleb128 0x3e
 2581 0024 0B       		.uleb128 0xb
 2582 0025 03       		.uleb128 0x3
 2583 0026 08       		.uleb128 0x8
 2584 0027 00       		.byte	0
 2585 0028 00       		.byte	0
 2586 0029 04       		.uleb128 0x4
 2587 002a 16       		.uleb128 0x16
 2588 002b 00       		.byte	0
 2589 002c 03       		.uleb128 0x3
 2590 002d 0E       		.uleb128 0xe
 2591 002e 3A       		.uleb128 0x3a
 2592 002f 0B       		.uleb128 0xb
 2593 0030 3B       		.uleb128 0x3b
 2594 0031 0B       		.uleb128 0xb
 2595 0032 49       		.uleb128 0x49
 2596 0033 13       		.uleb128 0x13
 2597 0034 00       		.byte	0
 2598 0035 00       		.byte	0
 2599 0036 05       		.uleb128 0x5
 2600 0037 35       		.uleb128 0x35
 2601 0038 00       		.byte	0
 2602 0039 49       		.uleb128 0x49
 2603 003a 13       		.uleb128 0x13
 2604 003b 00       		.byte	0
 2605 003c 00       		.byte	0
 2606 003d 06       		.uleb128 0x6
 2607 003e 0F       		.uleb128 0xf
 2608 003f 00       		.byte	0
 2609 0040 0B       		.uleb128 0xb
 2610 0041 0B       		.uleb128 0xb
ARM GAS  C:\Users\msuro\AppData\Local\Temp\ccOjNMmK.s 			page 67


 2611 0042 00       		.byte	0
 2612 0043 00       		.byte	0
 2613 0044 07       		.uleb128 0x7
 2614 0045 04       		.uleb128 0x4
 2615 0046 01       		.byte	0x1
 2616 0047 0B       		.uleb128 0xb
 2617 0048 0B       		.uleb128 0xb
 2618 0049 3A       		.uleb128 0x3a
 2619 004a 0B       		.uleb128 0xb
 2620 004b 3B       		.uleb128 0x3b
 2621 004c 0B       		.uleb128 0xb
 2622 004d 01       		.uleb128 0x1
 2623 004e 13       		.uleb128 0x13
 2624 004f 00       		.byte	0
 2625 0050 00       		.byte	0
 2626 0051 08       		.uleb128 0x8
 2627 0052 28       		.uleb128 0x28
 2628 0053 00       		.byte	0
 2629 0054 03       		.uleb128 0x3
 2630 0055 0E       		.uleb128 0xe
 2631 0056 1C       		.uleb128 0x1c
 2632 0057 0D       		.uleb128 0xd
 2633 0058 00       		.byte	0
 2634 0059 00       		.byte	0
 2635 005a 09       		.uleb128 0x9
 2636 005b 04       		.uleb128 0x4
 2637 005c 01       		.byte	0x1
 2638 005d 0B       		.uleb128 0xb
 2639 005e 0B       		.uleb128 0xb
 2640 005f 3A       		.uleb128 0x3a
 2641 0060 0B       		.uleb128 0xb
 2642 0061 3B       		.uleb128 0x3b
 2643 0062 05       		.uleb128 0x5
 2644 0063 01       		.uleb128 0x1
 2645 0064 13       		.uleb128 0x13
 2646 0065 00       		.byte	0
 2647 0066 00       		.byte	0
 2648 0067 0A       		.uleb128 0xa
 2649 0068 16       		.uleb128 0x16
 2650 0069 00       		.byte	0
 2651 006a 03       		.uleb128 0x3
 2652 006b 0E       		.uleb128 0xe
 2653 006c 3A       		.uleb128 0x3a
 2654 006d 0B       		.uleb128 0xb
 2655 006e 3B       		.uleb128 0x3b
 2656 006f 05       		.uleb128 0x5
 2657 0070 49       		.uleb128 0x49
 2658 0071 13       		.uleb128 0x13
 2659 0072 00       		.byte	0
 2660 0073 00       		.byte	0
 2661 0074 0B       		.uleb128 0xb
 2662 0075 13       		.uleb128 0x13
 2663 0076 01       		.byte	0x1
 2664 0077 0B       		.uleb128 0xb
 2665 0078 0B       		.uleb128 0xb
 2666 0079 3A       		.uleb128 0x3a
 2667 007a 0B       		.uleb128 0xb
ARM GAS  C:\Users\msuro\AppData\Local\Temp\ccOjNMmK.s 			page 68


 2668 007b 3B       		.uleb128 0x3b
 2669 007c 05       		.uleb128 0x5
 2670 007d 01       		.uleb128 0x1
 2671 007e 13       		.uleb128 0x13
 2672 007f 00       		.byte	0
 2673 0080 00       		.byte	0
 2674 0081 0C       		.uleb128 0xc
 2675 0082 0D       		.uleb128 0xd
 2676 0083 00       		.byte	0
 2677 0084 03       		.uleb128 0x3
 2678 0085 0E       		.uleb128 0xe
 2679 0086 3A       		.uleb128 0x3a
 2680 0087 0B       		.uleb128 0xb
 2681 0088 3B       		.uleb128 0x3b
 2682 0089 05       		.uleb128 0x5
 2683 008a 49       		.uleb128 0x49
 2684 008b 13       		.uleb128 0x13
 2685 008c 38       		.uleb128 0x38
 2686 008d 0B       		.uleb128 0xb
 2687 008e 00       		.byte	0
 2688 008f 00       		.byte	0
 2689 0090 0D       		.uleb128 0xd
 2690 0091 01       		.uleb128 0x1
 2691 0092 01       		.byte	0x1
 2692 0093 49       		.uleb128 0x49
 2693 0094 13       		.uleb128 0x13
 2694 0095 01       		.uleb128 0x1
 2695 0096 13       		.uleb128 0x13
 2696 0097 00       		.byte	0
 2697 0098 00       		.byte	0
 2698 0099 0E       		.uleb128 0xe
 2699 009a 21       		.uleb128 0x21
 2700 009b 00       		.byte	0
 2701 009c 49       		.uleb128 0x49
 2702 009d 13       		.uleb128 0x13
 2703 009e 2F       		.uleb128 0x2f
 2704 009f 0B       		.uleb128 0xb
 2705 00a0 00       		.byte	0
 2706 00a1 00       		.byte	0
 2707 00a2 0F       		.uleb128 0xf
 2708 00a3 0F       		.uleb128 0xf
 2709 00a4 00       		.byte	0
 2710 00a5 0B       		.uleb128 0xb
 2711 00a6 0B       		.uleb128 0xb
 2712 00a7 49       		.uleb128 0x49
 2713 00a8 13       		.uleb128 0x13
 2714 00a9 00       		.byte	0
 2715 00aa 00       		.byte	0
 2716 00ab 10       		.uleb128 0x10
 2717 00ac 13       		.uleb128 0x13
 2718 00ad 01       		.byte	0x1
 2719 00ae 0B       		.uleb128 0xb
 2720 00af 0B       		.uleb128 0xb
 2721 00b0 3A       		.uleb128 0x3a
 2722 00b1 0B       		.uleb128 0xb
 2723 00b2 3B       		.uleb128 0x3b
 2724 00b3 0B       		.uleb128 0xb
ARM GAS  C:\Users\msuro\AppData\Local\Temp\ccOjNMmK.s 			page 69


 2725 00b4 01       		.uleb128 0x1
 2726 00b5 13       		.uleb128 0x13
 2727 00b6 00       		.byte	0
 2728 00b7 00       		.byte	0
 2729 00b8 11       		.uleb128 0x11
 2730 00b9 0D       		.uleb128 0xd
 2731 00ba 00       		.byte	0
 2732 00bb 03       		.uleb128 0x3
 2733 00bc 0E       		.uleb128 0xe
 2734 00bd 3A       		.uleb128 0x3a
 2735 00be 0B       		.uleb128 0xb
 2736 00bf 3B       		.uleb128 0x3b
 2737 00c0 0B       		.uleb128 0xb
 2738 00c1 49       		.uleb128 0x49
 2739 00c2 13       		.uleb128 0x13
 2740 00c3 38       		.uleb128 0x38
 2741 00c4 0B       		.uleb128 0xb
 2742 00c5 00       		.byte	0
 2743 00c6 00       		.byte	0
 2744 00c7 12       		.uleb128 0x12
 2745 00c8 17       		.uleb128 0x17
 2746 00c9 01       		.byte	0x1
 2747 00ca 0B       		.uleb128 0xb
 2748 00cb 0B       		.uleb128 0xb
 2749 00cc 3A       		.uleb128 0x3a
 2750 00cd 0B       		.uleb128 0xb
 2751 00ce 3B       		.uleb128 0x3b
 2752 00cf 0B       		.uleb128 0xb
 2753 00d0 01       		.uleb128 0x1
 2754 00d1 13       		.uleb128 0x13
 2755 00d2 00       		.byte	0
 2756 00d3 00       		.byte	0
 2757 00d4 13       		.uleb128 0x13
 2758 00d5 0D       		.uleb128 0xd
 2759 00d6 00       		.byte	0
 2760 00d7 03       		.uleb128 0x3
 2761 00d8 0E       		.uleb128 0xe
 2762 00d9 3A       		.uleb128 0x3a
 2763 00da 0B       		.uleb128 0xb
 2764 00db 3B       		.uleb128 0x3b
 2765 00dc 0B       		.uleb128 0xb
 2766 00dd 49       		.uleb128 0x49
 2767 00de 13       		.uleb128 0x13
 2768 00df 00       		.byte	0
 2769 00e0 00       		.byte	0
 2770 00e1 14       		.uleb128 0x14
 2771 00e2 15       		.uleb128 0x15
 2772 00e3 01       		.byte	0x1
 2773 00e4 27       		.uleb128 0x27
 2774 00e5 19       		.uleb128 0x19
 2775 00e6 01       		.uleb128 0x1
 2776 00e7 13       		.uleb128 0x13
 2777 00e8 00       		.byte	0
 2778 00e9 00       		.byte	0
 2779 00ea 15       		.uleb128 0x15
 2780 00eb 05       		.uleb128 0x5
 2781 00ec 00       		.byte	0
ARM GAS  C:\Users\msuro\AppData\Local\Temp\ccOjNMmK.s 			page 70


 2782 00ed 49       		.uleb128 0x49
 2783 00ee 13       		.uleb128 0x13
 2784 00ef 00       		.byte	0
 2785 00f0 00       		.byte	0
 2786 00f1 16       		.uleb128 0x16
 2787 00f2 2E       		.uleb128 0x2e
 2788 00f3 00       		.byte	0
 2789 00f4 3F       		.uleb128 0x3f
 2790 00f5 19       		.uleb128 0x19
 2791 00f6 03       		.uleb128 0x3
 2792 00f7 0E       		.uleb128 0xe
 2793 00f8 3A       		.uleb128 0x3a
 2794 00f9 0B       		.uleb128 0xb
 2795 00fa 3B       		.uleb128 0x3b
 2796 00fb 0B       		.uleb128 0xb
 2797 00fc 27       		.uleb128 0x27
 2798 00fd 19       		.uleb128 0x19
 2799 00fe 11       		.uleb128 0x11
 2800 00ff 01       		.uleb128 0x1
 2801 0100 12       		.uleb128 0x12
 2802 0101 06       		.uleb128 0x6
 2803 0102 40       		.uleb128 0x40
 2804 0103 18       		.uleb128 0x18
 2805 0104 9642     		.uleb128 0x2116
 2806 0106 19       		.uleb128 0x19
 2807 0107 00       		.byte	0
 2808 0108 00       		.byte	0
 2809 0109 17       		.uleb128 0x17
 2810 010a 2E       		.uleb128 0x2e
 2811 010b 01       		.byte	0x1
 2812 010c 3F       		.uleb128 0x3f
 2813 010d 19       		.uleb128 0x19
 2814 010e 03       		.uleb128 0x3
 2815 010f 0E       		.uleb128 0xe
 2816 0110 3A       		.uleb128 0x3a
 2817 0111 0B       		.uleb128 0xb
 2818 0112 3B       		.uleb128 0x3b
 2819 0113 05       		.uleb128 0x5
 2820 0114 27       		.uleb128 0x27
 2821 0115 19       		.uleb128 0x19
 2822 0116 49       		.uleb128 0x49
 2823 0117 13       		.uleb128 0x13
 2824 0118 11       		.uleb128 0x11
 2825 0119 01       		.uleb128 0x1
 2826 011a 12       		.uleb128 0x12
 2827 011b 06       		.uleb128 0x6
 2828 011c 40       		.uleb128 0x40
 2829 011d 18       		.uleb128 0x18
 2830 011e 9642     		.uleb128 0x2116
 2831 0120 19       		.uleb128 0x19
 2832 0121 01       		.uleb128 0x1
 2833 0122 13       		.uleb128 0x13
 2834 0123 00       		.byte	0
 2835 0124 00       		.byte	0
 2836 0125 18       		.uleb128 0x18
 2837 0126 05       		.uleb128 0x5
 2838 0127 00       		.byte	0
ARM GAS  C:\Users\msuro\AppData\Local\Temp\ccOjNMmK.s 			page 71


 2839 0128 03       		.uleb128 0x3
 2840 0129 0E       		.uleb128 0xe
 2841 012a 3A       		.uleb128 0x3a
 2842 012b 0B       		.uleb128 0xb
 2843 012c 3B       		.uleb128 0x3b
 2844 012d 05       		.uleb128 0x5
 2845 012e 49       		.uleb128 0x49
 2846 012f 13       		.uleb128 0x13
 2847 0130 02       		.uleb128 0x2
 2848 0131 18       		.uleb128 0x18
 2849 0132 00       		.byte	0
 2850 0133 00       		.byte	0
 2851 0134 19       		.uleb128 0x19
 2852 0135 34       		.uleb128 0x34
 2853 0136 00       		.byte	0
 2854 0137 03       		.uleb128 0x3
 2855 0138 0E       		.uleb128 0xe
 2856 0139 3A       		.uleb128 0x3a
 2857 013a 0B       		.uleb128 0xb
 2858 013b 3B       		.uleb128 0x3b
 2859 013c 05       		.uleb128 0x5
 2860 013d 49       		.uleb128 0x49
 2861 013e 13       		.uleb128 0x13
 2862 013f 02       		.uleb128 0x2
 2863 0140 18       		.uleb128 0x18
 2864 0141 00       		.byte	0
 2865 0142 00       		.byte	0
 2866 0143 1A       		.uleb128 0x1a
 2867 0144 21       		.uleb128 0x21
 2868 0145 00       		.byte	0
 2869 0146 49       		.uleb128 0x49
 2870 0147 13       		.uleb128 0x13
 2871 0148 2F       		.uleb128 0x2f
 2872 0149 05       		.uleb128 0x5
 2873 014a 00       		.byte	0
 2874 014b 00       		.byte	0
 2875 014c 1B       		.uleb128 0x1b
 2876 014d 2E       		.uleb128 0x2e
 2877 014e 00       		.byte	0
 2878 014f 3F       		.uleb128 0x3f
 2879 0150 19       		.uleb128 0x19
 2880 0151 03       		.uleb128 0x3
 2881 0152 0E       		.uleb128 0xe
 2882 0153 3A       		.uleb128 0x3a
 2883 0154 0B       		.uleb128 0xb
 2884 0155 3B       		.uleb128 0x3b
 2885 0156 05       		.uleb128 0x5
 2886 0157 27       		.uleb128 0x27
 2887 0158 19       		.uleb128 0x19
 2888 0159 11       		.uleb128 0x11
 2889 015a 01       		.uleb128 0x1
 2890 015b 12       		.uleb128 0x12
 2891 015c 06       		.uleb128 0x6
 2892 015d 40       		.uleb128 0x40
 2893 015e 18       		.uleb128 0x18
 2894 015f 9642     		.uleb128 0x2116
 2895 0161 19       		.uleb128 0x19
ARM GAS  C:\Users\msuro\AppData\Local\Temp\ccOjNMmK.s 			page 72


 2896 0162 00       		.byte	0
 2897 0163 00       		.byte	0
 2898 0164 1C       		.uleb128 0x1c
 2899 0165 34       		.uleb128 0x34
 2900 0166 00       		.byte	0
 2901 0167 03       		.uleb128 0x3
 2902 0168 08       		.uleb128 0x8
 2903 0169 3A       		.uleb128 0x3a
 2904 016a 0B       		.uleb128 0xb
 2905 016b 3B       		.uleb128 0x3b
 2906 016c 05       		.uleb128 0x5
 2907 016d 49       		.uleb128 0x49
 2908 016e 13       		.uleb128 0x13
 2909 016f 02       		.uleb128 0x2
 2910 0170 18       		.uleb128 0x18
 2911 0171 00       		.byte	0
 2912 0172 00       		.byte	0
 2913 0173 1D       		.uleb128 0x1d
 2914 0174 26       		.uleb128 0x26
 2915 0175 00       		.byte	0
 2916 0176 49       		.uleb128 0x49
 2917 0177 13       		.uleb128 0x13
 2918 0178 00       		.byte	0
 2919 0179 00       		.byte	0
 2920 017a 1E       		.uleb128 0x1e
 2921 017b 2E       		.uleb128 0x2e
 2922 017c 01       		.byte	0x1
 2923 017d 3F       		.uleb128 0x3f
 2924 017e 19       		.uleb128 0x19
 2925 017f 03       		.uleb128 0x3
 2926 0180 0E       		.uleb128 0xe
 2927 0181 3A       		.uleb128 0x3a
 2928 0182 0B       		.uleb128 0xb
 2929 0183 3B       		.uleb128 0x3b
 2930 0184 05       		.uleb128 0x5
 2931 0185 27       		.uleb128 0x27
 2932 0186 19       		.uleb128 0x19
 2933 0187 49       		.uleb128 0x49
 2934 0188 13       		.uleb128 0x13
 2935 0189 11       		.uleb128 0x11
 2936 018a 01       		.uleb128 0x1
 2937 018b 12       		.uleb128 0x12
 2938 018c 06       		.uleb128 0x6
 2939 018d 40       		.uleb128 0x40
 2940 018e 18       		.uleb128 0x18
 2941 018f 9742     		.uleb128 0x2117
 2942 0191 19       		.uleb128 0x19
 2943 0192 01       		.uleb128 0x1
 2944 0193 13       		.uleb128 0x13
 2945 0194 00       		.byte	0
 2946 0195 00       		.byte	0
 2947 0196 1F       		.uleb128 0x1f
 2948 0197 05       		.uleb128 0x5
 2949 0198 00       		.byte	0
 2950 0199 03       		.uleb128 0x3
 2951 019a 08       		.uleb128 0x8
 2952 019b 3A       		.uleb128 0x3a
ARM GAS  C:\Users\msuro\AppData\Local\Temp\ccOjNMmK.s 			page 73


 2953 019c 0B       		.uleb128 0xb
 2954 019d 3B       		.uleb128 0x3b
 2955 019e 05       		.uleb128 0x5
 2956 019f 49       		.uleb128 0x49
 2957 01a0 13       		.uleb128 0x13
 2958 01a1 02       		.uleb128 0x2
 2959 01a2 18       		.uleb128 0x18
 2960 01a3 00       		.byte	0
 2961 01a4 00       		.byte	0
 2962 01a5 20       		.uleb128 0x20
 2963 01a6 2E       		.uleb128 0x2e
 2964 01a7 01       		.byte	0x1
 2965 01a8 3F       		.uleb128 0x3f
 2966 01a9 19       		.uleb128 0x19
 2967 01aa 03       		.uleb128 0x3
 2968 01ab 0E       		.uleb128 0xe
 2969 01ac 3A       		.uleb128 0x3a
 2970 01ad 0B       		.uleb128 0xb
 2971 01ae 3B       		.uleb128 0x3b
 2972 01af 05       		.uleb128 0x5
 2973 01b0 27       		.uleb128 0x27
 2974 01b1 19       		.uleb128 0x19
 2975 01b2 11       		.uleb128 0x11
 2976 01b3 01       		.uleb128 0x1
 2977 01b4 12       		.uleb128 0x12
 2978 01b5 06       		.uleb128 0x6
 2979 01b6 40       		.uleb128 0x40
 2980 01b7 18       		.uleb128 0x18
 2981 01b8 9742     		.uleb128 0x2117
 2982 01ba 19       		.uleb128 0x19
 2983 01bb 01       		.uleb128 0x1
 2984 01bc 13       		.uleb128 0x13
 2985 01bd 00       		.byte	0
 2986 01be 00       		.byte	0
 2987 01bf 21       		.uleb128 0x21
 2988 01c0 34       		.uleb128 0x34
 2989 01c1 00       		.byte	0
 2990 01c2 03       		.uleb128 0x3
 2991 01c3 0E       		.uleb128 0xe
 2992 01c4 3A       		.uleb128 0x3a
 2993 01c5 0B       		.uleb128 0xb
 2994 01c6 3B       		.uleb128 0x3b
 2995 01c7 0B       		.uleb128 0xb
 2996 01c8 49       		.uleb128 0x49
 2997 01c9 13       		.uleb128 0x13
 2998 01ca 3F       		.uleb128 0x3f
 2999 01cb 19       		.uleb128 0x19
 3000 01cc 02       		.uleb128 0x2
 3001 01cd 18       		.uleb128 0x18
 3002 01ce 00       		.byte	0
 3003 01cf 00       		.byte	0
 3004 01d0 22       		.uleb128 0x22
 3005 01d1 34       		.uleb128 0x34
 3006 01d2 00       		.byte	0
 3007 01d3 03       		.uleb128 0x3
 3008 01d4 0E       		.uleb128 0xe
 3009 01d5 3A       		.uleb128 0x3a
ARM GAS  C:\Users\msuro\AppData\Local\Temp\ccOjNMmK.s 			page 74


 3010 01d6 0B       		.uleb128 0xb
 3011 01d7 3B       		.uleb128 0x3b
 3012 01d8 05       		.uleb128 0x5
 3013 01d9 49       		.uleb128 0x49
 3014 01da 13       		.uleb128 0x13
 3015 01db 3F       		.uleb128 0x3f
 3016 01dc 19       		.uleb128 0x19
 3017 01dd 3C       		.uleb128 0x3c
 3018 01de 19       		.uleb128 0x19
 3019 01df 00       		.byte	0
 3020 01e0 00       		.byte	0
 3021 01e1 23       		.uleb128 0x23
 3022 01e2 34       		.uleb128 0x34
 3023 01e3 00       		.byte	0
 3024 01e4 03       		.uleb128 0x3
 3025 01e5 0E       		.uleb128 0xe
 3026 01e6 3A       		.uleb128 0x3a
 3027 01e7 0B       		.uleb128 0xb
 3028 01e8 3B       		.uleb128 0x3b
 3029 01e9 0B       		.uleb128 0xb
 3030 01ea 49       		.uleb128 0x49
 3031 01eb 13       		.uleb128 0x13
 3032 01ec 3F       		.uleb128 0x3f
 3033 01ed 19       		.uleb128 0x19
 3034 01ee 3C       		.uleb128 0x3c
 3035 01ef 19       		.uleb128 0x19
 3036 01f0 00       		.byte	0
 3037 01f1 00       		.byte	0
 3038 01f2 00       		.byte	0
 3039              		.section	.debug_aranges,"",%progbits
 3040 0000 7C000000 		.4byte	0x7c
 3041 0004 0200     		.2byte	0x2
 3042 0006 00000000 		.4byte	.Ldebug_info0
 3043 000a 04       		.byte	0x4
 3044 000b 00       		.byte	0
 3045 000c 0000     		.2byte	0
 3046 000e 0000     		.2byte	0
 3047 0010 00000000 		.4byte	.LFB2
 3048 0014 8C000000 		.4byte	.LFE2-.LFB2
 3049 0018 00000000 		.4byte	.LFB3
 3050 001c 30000000 		.4byte	.LFE3-.LFB3
 3051 0020 00000000 		.4byte	.LFB4
 3052 0024 9C000000 		.4byte	.LFE4-.LFB4
 3053 0028 00000000 		.4byte	.LFB5
 3054 002c 1C000000 		.4byte	.LFE5-.LFB5
 3055 0030 00000000 		.4byte	.LFB6
 3056 0034 DC000000 		.4byte	.LFE6-.LFB6
 3057 0038 00000000 		.4byte	.LFB7
 3058 003c 94000000 		.4byte	.LFE7-.LFB7
 3059 0040 00000000 		.4byte	.LFB8
 3060 0044 20000000 		.4byte	.LFE8-.LFB8
 3061 0048 00000000 		.4byte	.LFB9
 3062 004c B8000000 		.4byte	.LFE9-.LFB9
 3063 0050 00000000 		.4byte	.LFB10
 3064 0054 40000000 		.4byte	.LFE10-.LFB10
 3065 0058 00000000 		.4byte	.LFB11
 3066 005c A4000000 		.4byte	.LFE11-.LFB11
ARM GAS  C:\Users\msuro\AppData\Local\Temp\ccOjNMmK.s 			page 75


 3067 0060 00000000 		.4byte	.LFB12
 3068 0064 A4000000 		.4byte	.LFE12-.LFB12
 3069 0068 00000000 		.4byte	.LFB13
 3070 006c 24000000 		.4byte	.LFE13-.LFB13
 3071 0070 00000000 		.4byte	.LFB14
 3072 0074 2E000000 		.4byte	.LFE14-.LFB14
 3073 0078 00000000 		.4byte	0
 3074 007c 00000000 		.4byte	0
 3075              		.section	.debug_ranges,"",%progbits
 3076              	.Ldebug_ranges0:
 3077 0000 00000000 		.4byte	.LFB2
 3078 0004 8C000000 		.4byte	.LFE2
 3079 0008 00000000 		.4byte	.LFB3
 3080 000c 30000000 		.4byte	.LFE3
 3081 0010 00000000 		.4byte	.LFB4
 3082 0014 9C000000 		.4byte	.LFE4
 3083 0018 00000000 		.4byte	.LFB5
 3084 001c 1C000000 		.4byte	.LFE5
 3085 0020 00000000 		.4byte	.LFB6
 3086 0024 DC000000 		.4byte	.LFE6
 3087 0028 00000000 		.4byte	.LFB7
 3088 002c 94000000 		.4byte	.LFE7
 3089 0030 00000000 		.4byte	.LFB8
 3090 0034 20000000 		.4byte	.LFE8
 3091 0038 00000000 		.4byte	.LFB9
 3092 003c B8000000 		.4byte	.LFE9
 3093 0040 00000000 		.4byte	.LFB10
 3094 0044 40000000 		.4byte	.LFE10
 3095 0048 00000000 		.4byte	.LFB11
 3096 004c A4000000 		.4byte	.LFE11
 3097 0050 00000000 		.4byte	.LFB12
 3098 0054 A4000000 		.4byte	.LFE12
 3099 0058 00000000 		.4byte	.LFB13
 3100 005c 24000000 		.4byte	.LFE13
 3101 0060 00000000 		.4byte	.LFB14
 3102 0064 2E000000 		.4byte	.LFE14
 3103 0068 00000000 		.4byte	0
 3104 006c 00000000 		.4byte	0
 3105              		.section	.debug_line,"",%progbits
 3106              	.Ldebug_line0:
 3107 0000 58020000 		.section	.debug_str,"MS",%progbits,1
 3107      0200C500 
 3107      00000201 
 3107      FB0E0D00 
 3107      01010101 
 3108              	.LASF66:
 3109 0000 4359424C 		.ascii	"CYBLE_EVT_L2CAP_CBFC_RX_CREDIT_IND\000"
 3109      455F4556 
 3109      545F4C32 
 3109      4341505F 
 3109      43424643 
 3110              	.LASF22:
 3111 0023 4359424C 		.ascii	"CYBLE_EVT_STACK_BUSY_STATUS\000"
 3111      455F4556 
 3111      545F5354 
 3111      41434B5F 
 3111      42555359 
ARM GAS  C:\Users\msuro\AppData\Local\Temp\ccOjNMmK.s 			page 76


 3112              	.LASF158:
 3113 003f 4359424C 		.ascii	"CYBLE_STATE_STOPPED\000"
 3113      455F5354 
 3113      4154455F 
 3113      53544F50 
 3113      50454400 
 3114              	.LASF65:
 3115 0053 4359424C 		.ascii	"CYBLE_EVT_L2CAP_CBFC_DATA_READ\000"
 3115      455F4556 
 3115      545F4C32 
 3115      4341505F 
 3115      43424643 
 3116              	.LASF128:
 3117 0072 4359424C 		.ascii	"CYBLE_CONN_HANDLE_T\000"
 3117      455F434F 
 3117      4E4E5F48 
 3117      414E444C 
 3117      455F5400 
 3118              	.LASF74:
 3119 0086 4359424C 		.ascii	"CYBLE_ERROR_MEMORY_ALLOCATION_FAILED\000"
 3119      455F4552 
 3119      524F525F 
 3119      4D454D4F 
 3119      52595F41 
 3120              	.LASF226:
 3121 00ab 2E5C4765 		.ascii	".\\Generated_Source\\PSoC4\\BLE.c\000"
 3121      6E657261 
 3121      7465645F 
 3121      536F7572 
 3121      63655C50 
 3122              	.LASF33:
 3123 00ca 4359424C 		.ascii	"CYBLE_EVT_GAP_CONNECTION_UPDATE_COMPLETE\000"
 3123      455F4556 
 3123      545F4741 
 3123      505F434F 
 3123      4E4E4543 
 3124              	.LASF64:
 3125 00f3 4359424C 		.ascii	"CYBLE_EVT_L2CAP_CBFC_DISCONN_CNF\000"
 3125      455F4556 
 3125      545F4C32 
 3125      4341505F 
 3125      43424643 
 3126              	.LASF47:
 3127 0114 4359424C 		.ascii	"CYBLE_EVT_GATTC_READ_MULTI_RSP\000"
 3127      455F4556 
 3127      545F4741 
 3127      5454435F 
 3127      52454144 
 3128              	.LASF52:
 3129 0133 4359424C 		.ascii	"CYBLE_EVT_GATTS_EXEC_WRITE_REQ\000"
 3129      455F4556 
 3129      545F4741 
 3129      5454535F 
 3129      45584543 
 3130              	.LASF188:
 3131 0152 6379426C 		.ascii	"cyBle_stackMemoryRam\000"
 3131      655F7374 
ARM GAS  C:\Users\msuro\AppData\Local\Temp\ccOjNMmK.s 			page 77


 3131      61636B4D 
 3131      656D6F72 
 3131      7952616D 
 3132              	.LASF41:
 3133 0167 4359424C 		.ascii	"CYBLE_EVT_GATTC_READ_BY_GROUP_TYPE_RSP\000"
 3133      455F4556 
 3133      545F4741 
 3133      5454435F 
 3133      52454144 
 3134              	.LASF104:
 3135 018e 74797065 		.ascii	"type\000"
 3135      00
 3136              	.LASF19:
 3137 0193 4359424C 		.ascii	"CYBLE_EVT_TIMEOUT\000"
 3137      455F4556 
 3137      545F5449 
 3137      4D454F55 
 3137      5400
 3138              	.LASF4:
 3139 01a5 6C6F6E67 		.ascii	"long int\000"
 3139      20696E74 
 3139      00
 3140              	.LASF176:
 3141 01ae 61707065 		.ascii	"appearanceCharHandle\000"
 3141      6172616E 
 3141      63654368 
 3141      61724861 
 3141      6E646C65 
 3142              	.LASF112:
 3143 01c3 7363616E 		.ascii	"scanTo\000"
 3143      546F00
 3144              	.LASF84:
 3145 01ca 4359424C 		.ascii	"CYBLE_ERROR_L2CAP_PSM_WRONG_ENCODING\000"
 3145      455F4552 
 3145      524F525F 
 3145      4C324341 
 3145      505F5053 
 3146              	.LASF75:
 3147 01ef 4359424C 		.ascii	"CYBLE_ERROR_INSUFFICIENT_RESOURCES\000"
 3147      455F4552 
 3147      524F525F 
 3147      494E5355 
 3147      46464943 
 3148              	.LASF21:
 3149 0212 4359424C 		.ascii	"CYBLE_EVT_HCI_STATUS\000"
 3149      455F4556 
 3149      545F4843 
 3149      495F5354 
 3149      41545553 
 3150              	.LASF194:
 3151 0227 4379426C 		.ascii	"CyBle_GapcStartScan\000"
 3151      655F4761 
 3151      70635374 
 3151      61727453 
 3151      63616E00 
 3152              	.LASF34:
 3153 023b 4359424C 		.ascii	"CYBLE_EVT_GAPC_SCAN_START_STOP\000"
ARM GAS  C:\Users\msuro\AppData\Local\Temp\ccOjNMmK.s 			page 78


 3153      455F4556 
 3153      545F4741 
 3153      50435F53 
 3153      43414E5F 
 3154              	.LASF221:
 3155 025a 6379426C 		.ascii	"cyBle_busyStatus\000"
 3155      655F6275 
 3155      73795374 
 3155      61747573 
 3155      00
 3156              	.LASF224:
 3157 026b 6379426C 		.ascii	"cyBle_gapc\000"
 3157      655F6761 
 3157      706300
 3158              	.LASF105:
 3159 0276 4359424C 		.ascii	"CYBLE_GAP_BD_ADDR_T\000"
 3159      455F4741 
 3159      505F4244 
 3159      5F414444 
 3159      525F5400 
 3160              	.LASF83:
 3161 028a 4359424C 		.ascii	"CYBLE_ERROR_SEC_FAILED\000"
 3161      455F4552 
 3161      524F525F 
 3161      5345435F 
 3161      4641494C 
 3162              	.LASF31:
 3163 02a1 4359424C 		.ascii	"CYBLE_EVT_GAP_DEVICE_DISCONNECTED\000"
 3163      455F4556 
 3163      545F4741 
 3163      505F4445 
 3163      56494345 
 3164              	.LASF107:
 3165 02c3 7363616E 		.ascii	"scanType\000"
 3165      54797065 
 3165      00
 3166              	.LASF169:
 3167 02cc 4359424C 		.ascii	"CYBLE_CLIENT_STATE_DESCR_DISCOVERING\000"
 3167      455F434C 
 3167      49454E54 
 3167      5F535441 
 3167      54455F44 
 3168              	.LASF67:
 3169 02f1 4359424C 		.ascii	"CYBLE_EVT_L2CAP_CBFC_TX_CREDIT_IND\000"
 3169      455F4556 
 3169      545F4C32 
 3169      4341505F 
 3169      43424643 
 3170              	.LASF6:
 3171 0314 6C6F6E67 		.ascii	"long long int\000"
 3171      206C6F6E 
 3171      6720696E 
 3171      7400
 3172              	.LASF0:
 3173 0322 7369676E 		.ascii	"signed char\000"
 3173      65642063 
 3173      68617200 
ARM GAS  C:\Users\msuro\AppData\Local\Temp\ccOjNMmK.s 			page 79


 3174              	.LASF18:
 3175 032e 4359424C 		.ascii	"CYBLE_EVT_STACK_ON\000"
 3175      455F4556 
 3175      545F5354 
 3175      41434B5F 
 3175      4F4E00
 3176              	.LASF125:
 3177 0341 4359424C 		.ascii	"CYBLE_GATT_DB_ATTR_HANDLE_T\000"
 3177      455F4741 
 3177      54545F44 
 3177      425F4154 
 3177      54525F48 
 3178              	.LASF111:
 3179 035d 7363616E 		.ascii	"scanFilterPolicy\000"
 3179      46696C74 
 3179      6572506F 
 3179      6C696379 
 3179      00
 3180              	.LASF167:
 3181 036e 4359424C 		.ascii	"CYBLE_CLIENT_STATE_INCL_DISCOVERING\000"
 3181      455F434C 
 3181      49454E54 
 3181      5F535441 
 3181      54455F49 
 3182              	.LASF164:
 3183 0392 4359424C 		.ascii	"CYBLE_STATE_T\000"
 3183      455F5354 
 3183      4154455F 
 3183      5400
 3184              	.LASF91:
 3185 03a0 4359424C 		.ascii	"CYBLE_ERROR_DEVICE_ALREADY_EXISTS\000"
 3185      455F4552 
 3185      524F525F 
 3185      44455649 
 3185      43455F41 
 3186              	.LASF78:
 3187 03c2 4359424C 		.ascii	"CYBLE_ERROR_NO_DEVICE_ENTITY\000"
 3187      455F4552 
 3187      524F525F 
 3187      4E4F5F44 
 3187      45564943 
 3188              	.LASF24:
 3189 03df 4359424C 		.ascii	"CYBLE_EVT_GAP_AUTH_REQ\000"
 3189      455F4556 
 3189      545F4741 
 3189      505F4155 
 3189      54485F52 
 3190              	.LASF137:
 3191 03f6 7065726D 		.ascii	"permission\000"
 3191      69737369 
 3191      6F6E00
 3192              	.LASF45:
 3193 0401 4359424C 		.ascii	"CYBLE_EVT_GATTC_READ_RSP\000"
 3193      455F4556 
 3193      545F4741 
 3193      5454435F 
 3193      52454144 
ARM GAS  C:\Users\msuro\AppData\Local\Temp\ccOjNMmK.s 			page 80


 3194              	.LASF122:
 3195 041a 6D696E43 		.ascii	"minCeLength\000"
 3195      654C656E 
 3195      67746800 
 3196              	.LASF106:
 3197 0426 64697363 		.ascii	"discProcedure\000"
 3197      50726F63 
 3197      65647572 
 3197      6500
 3198              	.LASF50:
 3199 0434 4359424C 		.ascii	"CYBLE_EVT_GATTS_WRITE_CMD_REQ\000"
 3199      455F4556 
 3199      545F4741 
 3199      5454535F 
 3199      57524954 
 3200              	.LASF95:
 3201 0452 4359424C 		.ascii	"CYBLE_INCL_DISC_DONE\000"
 3201      455F494E 
 3201      434C5F44 
 3201      4953435F 
 3201      444F4E45 
 3202              	.LASF163:
 3203 0467 4359424C 		.ascii	"CYBLE_STATE_DISCONNECTED\000"
 3203      455F5354 
 3203      4154455F 
 3203      44495343 
 3203      4F4E4E45 
 3204              	.LASF29:
 3205 0480 4359424C 		.ascii	"CYBLE_EVT_GAPP_ADVERTISEMENT_START_STOP\000"
 3205      455F4556 
 3205      545F4741 
 3205      50505F41 
 3205      44564552 
 3206              	.LASF89:
 3207 04a8 4359424C 		.ascii	"CYBLE_ERROR_L2CAP_PSM_NOT_IN_RANGE\000"
 3207      455F4552 
 3207      524F525F 
 3207      4C324341 
 3207      505F5053 
 3208              	.LASF200:
 3209 04cb 4379426C 		.ascii	"CyBle_GapSetLocalName\000"
 3209      655F4761 
 3209      70536574 
 3209      4C6F6361 
 3209      6C4E616D 
 3210              	.LASF9:
 3211 04e1 75696E74 		.ascii	"uint8\000"
 3211      3800
 3212              	.LASF178:
 3213 04e7 7265636F 		.ascii	"reconnAddrCharHandle\000"
 3213      6E6E4164 
 3213      64724368 
 3213      61724861 
 3213      6E646C65 
 3214              	.LASF116:
 3215 04fc 70656572 		.ascii	"peerBdAddr\000"
 3215      42644164 
ARM GAS  C:\Users\msuro\AppData\Local\Temp\ccOjNMmK.s 			page 81


 3215      647200
 3216              	.LASF53:
 3217 0507 4359424C 		.ascii	"CYBLE_EVT_GATTC_EXEC_WRITE_RSP\000"
 3217      455F4556 
 3217      545F4741 
 3217      5454435F 
 3217      45584543 
 3218              	.LASF13:
 3219 0526 646F7562 		.ascii	"double\000"
 3219      6C6500
 3220              	.LASF63:
 3221 052d 4359424C 		.ascii	"CYBLE_EVT_L2CAP_CBFC_DISCONN_IND\000"
 3221      455F4556 
 3221      545F4C32 
 3221      4341505F 
 3221      43424643 
 3222              	.LASF72:
 3223 054e 4359424C 		.ascii	"CYBLE_ERROR_INVALID_PARAMETER\000"
 3223      455F4552 
 3223      524F525F 
 3223      494E5641 
 3223      4C49445F 
 3224              	.LASF218:
 3225 056c 6379426C 		.ascii	"cyBle_gattc\000"
 3225      655F6761 
 3225      74746300 
 3226              	.LASF152:
 3227 0578 4359424C 		.ascii	"CYBLE_DIS_FIRMWARE_REV\000"
 3227      455F4449 
 3227      535F4649 
 3227      524D5741 
 3227      52455F52 
 3228              	.LASF135:
 3229 058f 61747448 		.ascii	"attHandle\000"
 3229      616E646C 
 3229      6500
 3230              	.LASF3:
 3231 0599 73686F72 		.ascii	"short unsigned int\000"
 3231      7420756E 
 3231      7369676E 
 3231      65642069 
 3231      6E7400
 3232              	.LASF11:
 3233 05ac 75696E74 		.ascii	"uint32\000"
 3233      333200
 3234              	.LASF151:
 3235 05b3 4359424C 		.ascii	"CYBLE_DIS_HARDWARE_REV\000"
 3235      455F4449 
 3235      535F4841 
 3235      52445741 
 3235      52455F52 
 3236              	.LASF70:
 3237 05ca 4359424C 		.ascii	"CYBLE_EVT_MAX\000"
 3237      455F4556 
 3237      545F4D41 
 3237      5800
 3238              	.LASF71:
ARM GAS  C:\Users\msuro\AppData\Local\Temp\ccOjNMmK.s 			page 82


 3239 05d8 4359424C 		.ascii	"CYBLE_ERROR_OK\000"
 3239      455F4552 
 3239      524F525F 
 3239      4F4B00
 3240              	.LASF36:
 3241 05e7 4359424C 		.ascii	"CYBLE_EVT_GATTC_ERROR_RSP\000"
 3241      455F4556 
 3241      545F4741 
 3241      5454435F 
 3241      4552524F 
 3242              	.LASF58:
 3243 0601 4359424C 		.ascii	"CYBLE_EVT_L2CAP_CONN_PARAM_UPDATE_REQ\000"
 3243      455F4556 
 3243      545F4C32 
 3243      4341505F 
 3243      434F4E4E 
 3244              	.LASF68:
 3245 0627 4359424C 		.ascii	"CYBLE_EVT_L2CAP_CBFC_DATA_WRITE_IND\000"
 3245      455F4556 
 3245      545F4C32 
 3245      4341505F 
 3245      43424643 
 3246              	.LASF148:
 3247 064b 4359424C 		.ascii	"CYBLE_DIS_MANUFACTURER_NAME\000"
 3247      455F4449 
 3247      535F4D41 
 3247      4E554641 
 3247      43545552 
 3248              	.LASF136:
 3249 0667 61747454 		.ascii	"attType\000"
 3249      79706500 
 3250              	.LASF7:
 3251 066f 6C6F6E67 		.ascii	"long long unsigned int\000"
 3251      206C6F6E 
 3251      6720756E 
 3251      7369676E 
 3251      65642069 
 3252              	.LASF205:
 3253 0686 76616C75 		.ascii	"value\000"
 3253      6500
 3254              	.LASF76:
 3255 068c 4359424C 		.ascii	"CYBLE_ERROR_OOB_NOT_AVAILABLE\000"
 3255      455F4552 
 3255      524F525F 
 3255      4F4F425F 
 3255      4E4F545F 
 3256              	.LASF38:
 3257 06aa 4359424C 		.ascii	"CYBLE_EVT_GATT_DISCONNECT_IND\000"
 3257      455F4556 
 3257      545F4741 
 3257      54545F44 
 3257      4953434F 
 3258              	.LASF173:
 3259 06c8 4359424C 		.ascii	"CYBLE_CLIENT_STATE_DISCONNECTED\000"
 3259      455F434C 
 3259      49454E54 
 3259      5F535441 
ARM GAS  C:\Users\msuro\AppData\Local\Temp\ccOjNMmK.s 			page 83


 3259      54455F44 
 3260              	.LASF186:
 3261 06e8 4379426C 		.ascii	"CyBle_ServiceInit\000"
 3261      655F5365 
 3261      72766963 
 3261      65496E69 
 3261      7400
 3262              	.LASF146:
 3263 06fa 63636364 		.ascii	"cccdHandle\000"
 3263      48616E64 
 3263      6C6500
 3264              	.LASF220:
 3265 0705 6379426C 		.ascii	"cyBle_connHandle\000"
 3265      655F636F 
 3265      6E6E4861 
 3265      6E646C65 
 3265      00
 3266              	.LASF85:
 3267 0716 4359424C 		.ascii	"CYBLE_ERROR_L2CAP_PSM_ALREADY_REGISTERED\000"
 3267      455F4552 
 3267      524F525F 
 3267      4C324341 
 3267      505F5053 
 3268              	.LASF193:
 3269 073f 6973466F 		.ascii	"isForceWrite\000"
 3269      72636557 
 3269      72697465 
 3269      00
 3270              	.LASF5:
 3271 074c 6C6F6E67 		.ascii	"long unsigned int\000"
 3271      20756E73 
 3271      69676E65 
 3271      6420696E 
 3271      7400
 3272              	.LASF144:
 3273 075e 4359424C 		.ascii	"CYBLE_SRVR_CHAR_INFO_T\000"
 3273      455F5352 
 3273      56525F43 
 3273      4841525F 
 3273      494E464F 
 3274              	.LASF40:
 3275 0775 4359424C 		.ascii	"CYBLE_EVT_GATTC_XCHNG_MTU_RSP\000"
 3275      455F4556 
 3275      545F4741 
 3275      5454435F 
 3275      5843484E 
 3276              	.LASF57:
 3277 0793 4359424C 		.ascii	"CYBLE_EVT_GATTS_DATA_SIGNED_CMD_REQ\000"
 3277      455F4556 
 3277      545F4741 
 3277      5454535F 
 3277      44415441 
 3278              	.LASF201:
 3279 07b7 6E616D65 		.ascii	"name\000"
 3279      00
 3280              	.LASF183:
 3281 07bc 4359424C 		.ascii	"CYBLE_SRVI_TPS\000"
ARM GAS  C:\Users\msuro\AppData\Local\Temp\ccOjNMmK.s 			page 84


 3281      455F5352 
 3281      56495F54 
 3281      505300
 3282              	.LASF211:
 3283 07cb 6379426C 		.ascii	"cyBle_discoveryInfo\000"
 3283      655F6469 
 3283      73636F76 
 3283      65727949 
 3283      6E666F00 
 3284              	.LASF132:
 3285 07df 61747446 		.ascii	"attFormatValue\000"
 3285      6F726D61 
 3285      7456616C 
 3285      756500
 3286              	.LASF212:
 3287 07ee 6379426C 		.ascii	"cyBle_connectionParameters\000"
 3287      655F636F 
 3287      6E6E6563 
 3287      74696F6E 
 3287      50617261 
 3288              	.LASF88:
 3289 0809 4359424C 		.ascii	"CYBLE_ERROR_L2CAP_CHANNEL_NOT_FOUND\000"
 3289      455F4552 
 3289      524F525F 
 3289      4C324341 
 3289      505F4348 
 3290              	.LASF115:
 3291 082d 696E6974 		.ascii	"initiatorFilterPolicy\000"
 3291      6961746F 
 3291      7246696C 
 3291      74657250 
 3291      6F6C6963 
 3292              	.LASF98:
 3293 0843 4359424C 		.ascii	"CYBLE_ERROR_NTF_DISABLED\000"
 3293      455F4552 
 3293      524F525F 
 3293      4E54465F 
 3293      44495341 
 3294              	.LASF17:
 3295 085c 4359424C 		.ascii	"CYBLE_EVT_HOST_INVALID\000"
 3295      455F4556 
 3295      545F484F 
 3295      53545F49 
 3295      4E56414C 
 3296              	.LASF43:
 3297 0873 4359424C 		.ascii	"CYBLE_EVT_GATTC_FIND_INFO_RSP\000"
 3297      455F4556 
 3297      545F4741 
 3297      5454435F 
 3297      46494E44 
 3298              	.LASF196:
 3299 0891 4379426C 		.ascii	"CyBle_GapcStopScan\000"
 3299      655F4761 
 3299      70635374 
 3299      6F705363 
 3299      616E00
 3300              	.LASF207:
ARM GAS  C:\Users\msuro\AppData\Local\Temp\ccOjNMmK.s 			page 85


 3301 08a4 6379426C 		.ascii	"cyBle_initVar\000"
 3301      655F696E 
 3301      69745661 
 3301      7200
 3302              	.LASF25:
 3303 08b2 4359424C 		.ascii	"CYBLE_EVT_GAP_PASSKEY_ENTRY_REQUEST\000"
 3303      455F4556 
 3303      545F4741 
 3303      505F5041 
 3303      53534B45 
 3304              	.LASF30:
 3305 08d6 4359424C 		.ascii	"CYBLE_EVT_GAP_DEVICE_CONNECTED\000"
 3305      455F4556 
 3305      545F4741 
 3305      505F4445 
 3305      56494345 
 3306              	.LASF228:
 3307 08f5 4379426C 		.ascii	"CyBle_Set16ByPtr\000"
 3307      655F5365 
 3307      74313642 
 3307      79507472 
 3307      00
 3308              	.LASF48:
 3309 0906 4359424C 		.ascii	"CYBLE_EVT_GATTS_WRITE_REQ\000"
 3309      455F4556 
 3309      545F4741 
 3309      5454535F 
 3309      57524954 
 3310              	.LASF190:
 3311 0920 4379426C 		.ascii	"CyBle_Start\000"
 3311      655F5374 
 3311      61727400 
 3312              	.LASF124:
 3313 092c 4359424C 		.ascii	"CYBLE_GAPC_CONN_PARAM_T\000"
 3313      455F4741 
 3313      50435F43 
 3313      4F4E4E5F 
 3313      50415241 
 3314              	.LASF203:
 3315 0944 4379426C 		.ascii	"CyBle_GapGetLocalName\000"
 3315      655F4761 
 3315      70476574 
 3315      4C6F6361 
 3315      6C4E616D 
 3316              	.LASF156:
 3317 095a 4359424C 		.ascii	"CYBLE_DIS_PNP_ID\000"
 3317      455F4449 
 3317      535F504E 
 3317      505F4944 
 3317      00
 3318              	.LASF219:
 3319 096b 6379426C 		.ascii	"cyBle_state\000"
 3319      655F7374 
 3319      61746500 
 3320              	.LASF26:
 3321 0977 4359424C 		.ascii	"CYBLE_EVT_GAP_PASSKEY_DISPLAY_REQUEST\000"
 3321      455F4556 
ARM GAS  C:\Users\msuro\AppData\Local\Temp\ccOjNMmK.s 			page 86


 3321      545F4741 
 3321      505F5041 
 3321      53534B45 
 3322              	.LASF127:
 3323 099d 61747449 		.ascii	"attId\000"
 3323      6400
 3324              	.LASF37:
 3325 09a3 4359424C 		.ascii	"CYBLE_EVT_GATT_CONNECT_IND\000"
 3325      455F4556 
 3325      545F4741 
 3325      54545F43 
 3325      4F4E4E45 
 3326              	.LASF92:
 3327 09be 4359424C 		.ascii	"CYBLE_ERROR_FLASH_WRITE_NOT_PERMITED\000"
 3327      455F4552 
 3327      524F525F 
 3327      464C4153 
 3327      485F5752 
 3328              	.LASF202:
 3329 09e3 63686172 		.ascii	"charLen\000"
 3329      4C656E00 
 3330              	.LASF60:
 3331 09eb 4359424C 		.ascii	"CYBLE_EVT_L2CAP_COMMAND_REJ\000"
 3331      455F4556 
 3331      545F4C32 
 3331      4341505F 
 3331      434F4D4D 
 3332              	.LASF23:
 3333 0a07 4359424C 		.ascii	"CYBLE_EVT_GAPC_SCAN_PROGRESS_RESULT\000"
 3333      455F4556 
 3333      545F4741 
 3333      50435F53 
 3333      43414E5F 
 3334              	.LASF154:
 3335 0a2b 4359424C 		.ascii	"CYBLE_DIS_SYSTEM_ID\000"
 3335      455F4449 
 3335      535F5359 
 3335      5354454D 
 3335      5F494400 
 3336              	.LASF97:
 3337 0a3f 4359424C 		.ascii	"CYBLE_DESCR_DISC_DONE\000"
 3337      455F4445 
 3337      5343525F 
 3337      44495343 
 3337      5F444F4E 
 3338              	.LASF94:
 3339 0a55 4359424C 		.ascii	"CYBLE_ERROR_MAX\000"
 3339      455F4552 
 3339      524F525F 
 3339      4D415800 
 3340              	.LASF61:
 3341 0a65 4359424C 		.ascii	"CYBLE_EVT_L2CAP_CBFC_CONN_IND\000"
 3341      455F4556 
 3341      545F4C32 
 3341      4341505F 
 3341      43424643 
 3342              	.LASF42:
ARM GAS  C:\Users\msuro\AppData\Local\Temp\ccOjNMmK.s 			page 87


 3343 0a83 4359424C 		.ascii	"CYBLE_EVT_GATTC_READ_BY_TYPE_RSP\000"
 3343      455F4556 
 3343      545F4741 
 3343      5454435F 
 3343      52454144 
 3344              	.LASF16:
 3345 0aa4 73697A65 		.ascii	"sizetype\000"
 3345      74797065 
 3345      00
 3346              	.LASF145:
 3347 0aad 73657276 		.ascii	"serviceChanged\000"
 3347      69636543 
 3347      68616E67 
 3347      656400
 3348              	.LASF159:
 3349 0abc 4359424C 		.ascii	"CYBLE_STATE_INITIALIZING\000"
 3349      455F5354 
 3349      4154455F 
 3349      494E4954 
 3349      49414C49 
 3350              	.LASF110:
 3351 0ad5 6F776E41 		.ascii	"ownAddrType\000"
 3351      64647254 
 3351      79706500 
 3352              	.LASF28:
 3353 0ae1 4359424C 		.ascii	"CYBLE_EVT_GAP_AUTH_FAILED\000"
 3353      455F4556 
 3353      545F4741 
 3353      505F4155 
 3353      54485F46 
 3354              	.LASF198:
 3355 0afb 61646472 		.ascii	"address\000"
 3355      65737300 
 3356              	.LASF49:
 3357 0b03 4359424C 		.ascii	"CYBLE_EVT_GATTC_WRITE_RSP\000"
 3357      455F4556 
 3357      545F4741 
 3357      5454435F 
 3357      57524954 
 3358              	.LASF168:
 3359 0b1d 4359424C 		.ascii	"CYBLE_CLIENT_STATE_CHAR_DISCOVERING\000"
 3359      455F434C 
 3359      49454E54 
 3359      5F535441 
 3359      54455F43 
 3360              	.LASF223:
 3361 0b41 6379426C 		.ascii	"cyBle_clientState\000"
 3361      655F636C 
 3361      69656E74 
 3361      53746174 
 3361      6500
 3362              	.LASF27:
 3363 0b53 4359424C 		.ascii	"CYBLE_EVT_GAP_AUTH_COMPLETE\000"
 3363      455F4556 
 3363      545F4741 
 3363      505F4155 
 3363      54485F43 
ARM GAS  C:\Users\msuro\AppData\Local\Temp\ccOjNMmK.s 			page 88


 3364              	.LASF187:
 3365 0b6f 61706952 		.ascii	"apiResult\000"
 3365      6573756C 
 3365      7400
 3366              	.LASF102:
 3367 0b79 4359424C 		.ascii	"CYBLE_API_RESULT_T\000"
 3367      455F4150 
 3367      495F5245 
 3367      53554C54 
 3367      5F5400
 3368              	.LASF189:
 3369 0b8c 4379426C 		.ascii	"CyBle_Stop\000"
 3369      655F5374 
 3369      6F7000
 3370              	.LASF54:
 3371 0b97 4359424C 		.ascii	"CYBLE_EVT_GATTC_HANDLE_VALUE_NTF\000"
 3371      455F4556 
 3371      545F4741 
 3371      5454435F 
 3371      48414E44 
 3372              	.LASF99:
 3373 0bb8 4359424C 		.ascii	"CYBLE_ERROR_IND_DISABLED\000"
 3373      455F4552 
 3373      524F525F 
 3373      494E445F 
 3373      44495341 
 3374              	.LASF133:
 3375 0bd1 61747456 		.ascii	"attValueUuid\000"
 3375      616C7565 
 3375      55756964 
 3375      00
 3376              	.LASF155:
 3377 0bde 4359424C 		.ascii	"CYBLE_DIS_REG_CERT_DATA\000"
 3377      455F4449 
 3377      535F5245 
 3377      475F4345 
 3377      52545F44 
 3378              	.LASF130:
 3379 0bf6 61747447 		.ascii	"attGenericVal\000"
 3379      656E6572 
 3379      69635661 
 3379      6C00
 3380              	.LASF62:
 3381 0c04 4359424C 		.ascii	"CYBLE_EVT_L2CAP_CBFC_CONN_CNF\000"
 3381      455F4556 
 3381      545F4C32 
 3381      4341505F 
 3381      43424643 
 3382              	.LASF170:
 3383 0c22 4359424C 		.ascii	"CYBLE_CLIENT_STATE_DISCOVERED\000"
 3383      455F434C 
 3383      49454E54 
 3383      5F535441 
 3383      54455F44 
 3384              	.LASF118:
 3385 0c40 636F6E6E 		.ascii	"connIntvMin\000"
 3385      496E7476 
ARM GAS  C:\Users\msuro\AppData\Local\Temp\ccOjNMmK.s 			page 89


 3385      4D696E00 
 3386              	.LASF117:
 3387 0c4c 70656572 		.ascii	"peerAddrType\000"
 3387      41646472 
 3387      54797065 
 3387      00
 3388              	.LASF12:
 3389 0c59 666C6F61 		.ascii	"float\000"
 3389      7400
 3390              	.LASF113:
 3391 0c5f 66696C74 		.ascii	"filterDuplicates\000"
 3391      65724475 
 3391      706C6963 
 3391      61746573 
 3391      00
 3392              	.LASF214:
 3393 0c70 6379426C 		.ascii	"cyBle_pendingFlashWrite\000"
 3393      655F7065 
 3393      6E64696E 
 3393      67466C61 
 3393      73685772 
 3394              	.LASF225:
 3395 0c88 474E5520 		.ascii	"GNU C 4.8.4 20140526 (release) [ARM/embedded-4_8-br"
 3395      4320342E 
 3395      382E3420 
 3395      32303134 
 3395      30353236 
 3396 0cbb 616E6368 		.ascii	"anch revision 211358] -mcpu=cortex-m0 -mthumb -g -O"
 3396      20726576 
 3396      6973696F 
 3396      6E203231 
 3396      31333538 
 3397 0cee 30202D66 		.ascii	"0 -ffunction-sections\000"
 3397      66756E63 
 3397      74696F6E 
 3397      2D736563 
 3397      74696F6E 
 3398              	.LASF150:
 3399 0d04 4359424C 		.ascii	"CYBLE_DIS_SERIAL_NUMBER\000"
 3399      455F4449 
 3399      535F5345 
 3399      5249414C 
 3399      5F4E554D 
 3400              	.LASF101:
 3401 0d1c 4359424C 		.ascii	"CYBLE_ERROR_INVALID_STATE\000"
 3401      455F4552 
 3401      524F525F 
 3401      494E5641 
 3401      4C49445F 
 3402              	.LASF81:
 3403 0d36 4359424C 		.ascii	"CYBLE_ERROR_TX_POWER_READ\000"
 3403      455F4552 
 3403      524F525F 
 3403      54585F50 
 3403      4F574552 
 3404              	.LASF192:
 3405 0d50 63616C6C 		.ascii	"callbackFunc\000"
ARM GAS  C:\Users\msuro\AppData\Local\Temp\ccOjNMmK.s 			page 90


 3405      6261636B 
 3405      46756E63 
 3405      00
 3406              	.LASF139:
 3407 0d5d 61747456 		.ascii	"attValue\000"
 3407      616C7565 
 3407      00
 3408              	.LASF1:
 3409 0d66 756E7369 		.ascii	"unsigned char\000"
 3409      676E6564 
 3409      20636861 
 3409      7200
 3410              	.LASF10:
 3411 0d74 75696E74 		.ascii	"uint16\000"
 3411      313600
 3412              	.LASF157:
 3413 0d7b 4359424C 		.ascii	"CYBLE_DIS_CHAR_COUNT\000"
 3413      455F4449 
 3413      535F4348 
 3413      41525F43 
 3413      4F554E54 
 3414              	.LASF179:
 3415 0d90 70726566 		.ascii	"prefConnParamCharHandle\000"
 3415      436F6E6E 
 3415      50617261 
 3415      6D436861 
 3415      7248616E 
 3416              	.LASF143:
 3417 0da8 76616C75 		.ascii	"valueHandle\000"
 3417      6548616E 
 3417      646C6500 
 3418              	.LASF162:
 3419 0db4 4359424C 		.ascii	"CYBLE_STATE_CONNECTING\000"
 3419      455F5354 
 3419      4154455F 
 3419      434F4E4E 
 3419      45435449 
 3420              	.LASF100:
 3421 0dcb 4359424C 		.ascii	"CYBLE_ERROR_CHAR_IS_NOT_DISCOVERED\000"
 3421      455F4552 
 3421      524F525F 
 3421      43484152 
 3421      5F49535F 
 3422              	.LASF2:
 3423 0dee 73686F72 		.ascii	"short int\000"
 3423      7420696E 
 3423      7400
 3424              	.LASF55:
 3425 0df8 4359424C 		.ascii	"CYBLE_EVT_GATTC_HANDLE_VALUE_IND\000"
 3425      455F4556 
 3425      545F4741 
 3425      5454435F 
 3425      48414E44 
 3426              	.LASF77:
 3427 0e19 4359424C 		.ascii	"CYBLE_ERROR_NO_CONNECTION\000"
 3427      455F4552 
 3427      524F525F 
ARM GAS  C:\Users\msuro\AppData\Local\Temp\ccOjNMmK.s 			page 91


 3427      4E4F5F43 
 3427      4F4E4E45 
 3428              	.LASF195:
 3429 0e33 7363616E 		.ascii	"scanningIntervalType\000"
 3429      6E696E67 
 3429      496E7465 
 3429      7276616C 
 3429      54797065 
 3430              	.LASF153:
 3431 0e48 4359424C 		.ascii	"CYBLE_DIS_SOFTWARE_REV\000"
 3431      455F4449 
 3431      535F534F 
 3431      46545741 
 3431      52455F52 
 3432              	.LASF114:
 3433 0e5f 4359424C 		.ascii	"CYBLE_GAPC_DISC_INFO_T\000"
 3433      455F4741 
 3433      50435F44 
 3433      4953435F 
 3433      494E464F 
 3434              	.LASF119:
 3435 0e76 636F6E6E 		.ascii	"connIntvMax\000"
 3435      496E7476 
 3435      4D617800 
 3436              	.LASF51:
 3437 0e82 4359424C 		.ascii	"CYBLE_EVT_GATTS_PREP_WRITE_REQ\000"
 3437      455F4556 
 3437      545F4741 
 3437      5454535F 
 3437      50524550 
 3438              	.LASF32:
 3439 0ea1 4359424C 		.ascii	"CYBLE_EVT_GAP_ENCRYPT_CHANGE\000"
 3439      455F4556 
 3439      545F4741 
 3439      505F454E 
 3439      43525950 
 3440              	.LASF166:
 3441 0ebe 4359424C 		.ascii	"CYBLE_CLIENT_STATE_SRVC_DISCOVERING\000"
 3441      455F434C 
 3441      49454E54 
 3441      5F535441 
 3441      54455F53 
 3442              	.LASF206:
 3443 0ee2 4379426C 		.ascii	"CyBle_ApplCallback\000"
 3443      655F4170 
 3443      706C4361 
 3443      6C6C6261 
 3443      636B00
 3444              	.LASF56:
 3445 0ef5 4359424C 		.ascii	"CYBLE_EVT_GATTS_HANDLE_VALUE_CNF\000"
 3445      455F4556 
 3445      545F4741 
 3445      5454535F 
 3445      48414E44 
 3446              	.LASF79:
 3447 0f16 4359424C 		.ascii	"CYBLE_ERROR_REPEATED_ATTEMPTS\000"
 3447      455F4552 
ARM GAS  C:\Users\msuro\AppData\Local\Temp\ccOjNMmK.s 			page 92


 3447      524F525F 
 3447      52455045 
 3447      41544544 
 3448              	.LASF142:
 3449 0f34 70726F70 		.ascii	"properties\000"
 3449      65727469 
 3449      657300
 3450              	.LASF184:
 3451 0f3f 4359424C 		.ascii	"CYBLE_SRVI_COUNT\000"
 3451      455F5352 
 3451      56495F43 
 3451      4F554E54 
 3451      00
 3452              	.LASF161:
 3453 0f50 4359424C 		.ascii	"CYBLE_STATE_SCANNING\000"
 3453      455F5354 
 3453      4154455F 
 3453      5343414E 
 3453      4E494E47 
 3454              	.LASF215:
 3455 0f65 6379426C 		.ascii	"cyBle_gattDB\000"
 3455      655F6761 
 3455      74744442 
 3455      00
 3456              	.LASF222:
 3457 0f72 6379426C 		.ascii	"cyBle_scanningIntervalType\000"
 3457      655F7363 
 3457      616E6E69 
 3457      6E67496E 
 3457      74657276 
 3458              	.LASF15:
 3459 0f8d 63686172 		.ascii	"char\000"
 3459      00
 3460              	.LASF149:
 3461 0f92 4359424C 		.ascii	"CYBLE_DIS_MODEL_NUMBER\000"
 3461      455F4449 
 3461      535F4D4F 
 3461      44454C5F 
 3461      4E554D42 
 3462              	.LASF82:
 3463 0fa9 4359424C 		.ascii	"CYBLE_ERROR_BT_ON_NOT_COMPLETED\000"
 3463      455F4552 
 3463      524F525F 
 3463      42545F4F 
 3463      4E5F4E4F 
 3464              	.LASF134:
 3465 0fc9 4359424C 		.ascii	"CYBLE_GATTS_ATT_VALUE_T\000"
 3465      455F4741 
 3465      5454535F 
 3465      4154545F 
 3465      56414C55 
 3466              	.LASF180:
 3467 0fe1 4359424C 		.ascii	"CYBLE_GAPC_T\000"
 3467      455F4741 
 3467      50435F54 
 3467      00
 3468              	.LASF8:
ARM GAS  C:\Users\msuro\AppData\Local\Temp\ccOjNMmK.s 			page 93


 3469 0fee 756E7369 		.ascii	"unsigned int\000"
 3469      676E6564 
 3469      20696E74 
 3469      00
 3470              	.LASF138:
 3471 0ffb 61747445 		.ascii	"attEndHandle\000"
 3471      6E644861 
 3471      6E646C65 
 3471      00
 3472              	.LASF182:
 3473 1008 4359424C 		.ascii	"CYBLE_SRVI_GATT\000"
 3473      455F5352 
 3473      56495F47 
 3473      41545400 
 3474              	.LASF172:
 3475 1018 4359424C 		.ascii	"CYBLE_CLIENT_STATE_DISCONNECTED_DISCOVERED\000"
 3475      455F434C 
 3475      49454E54 
 3475      5F535441 
 3475      54455F44 
 3476              	.LASF216:
 3477 1043 6379426C 		.ascii	"cyBle_attValuesCCCD\000"
 3477      655F6174 
 3477      7456616C 
 3477      75657343 
 3477      43434400 
 3478              	.LASF14:
 3479 1057 63686172 		.ascii	"char8\000"
 3479      3800
 3480              	.LASF181:
 3481 105d 4359424C 		.ascii	"CYBLE_SRVI_GAP\000"
 3481      455F5352 
 3481      56495F47 
 3481      415000
 3482              	.LASF131:
 3483 106c 4359424C 		.ascii	"CYBLE_GATTS_ATT_GENERIC_VAL_T\000"
 3483      455F4741 
 3483      5454535F 
 3483      4154545F 
 3483      47454E45 
 3484              	.LASF177:
 3485 108a 70657269 		.ascii	"periphPrivacyCharHandle\000"
 3485      70685072 
 3485      69766163 
 3485      79436861 
 3485      7248616E 
 3486              	.LASF87:
 3487 10a2 4359424C 		.ascii	"CYBLE_ERROR_L2CAP_CONNECTION_ENTITY_NOT_FOUND\000"
 3487      455F4552 
 3487      524F525F 
 3487      4C324341 
 3487      505F434F 
 3488              	.LASF20:
 3489 10d0 4359424C 		.ascii	"CYBLE_EVT_HARDWARE_ERROR\000"
 3489      455F4556 
 3489      545F4841 
 3489      52445741 
ARM GAS  C:\Users\msuro\AppData\Local\Temp\ccOjNMmK.s 			page 94


 3489      52455F45 
 3490              	.LASF213:
 3491 10e9 6379426C 		.ascii	"cyBle_connectingTimeout\000"
 3491      655F636F 
 3491      6E6E6563 
 3491      74696E67 
 3491      54696D65 
 3492              	.LASF171:
 3493 1101 4359424C 		.ascii	"CYBLE_CLIENT_STATE_DISCONNECTING\000"
 3493      455F434C 
 3493      49454E54 
 3493      5F535441 
 3493      54455F44 
 3494              	.LASF140:
 3495 1122 4359424C 		.ascii	"CYBLE_GATTS_DB_T\000"
 3495      455F4741 
 3495      5454535F 
 3495      44425F54 
 3495      00
 3496              	.LASF129:
 3497 1133 6C656E67 		.ascii	"length\000"
 3497      746800
 3498              	.LASF73:
 3499 113a 4359424C 		.ascii	"CYBLE_ERROR_INVALID_OPERATION\000"
 3499      455F4552 
 3499      524F525F 
 3499      494E5641 
 3499      4C49445F 
 3500              	.LASF227:
 3501 1158 433A5C55 		.ascii	"C:\\Users\\msuro\\Documents\\Manhattan College\\Fal"
 3501      73657273 
 3501      5C6D7375 
 3501      726F5C44 
 3501      6F63756D 
 3502 1186 6C203230 		.ascii	"l 2016\\Embedded Systems\\Project\\Project Files\\C"
 3502      31365C45 
 3502      6D626564 
 3502      64656420 
 3502      53797374 
 3503 11b5 6C69656E 		.ascii	"lient and Server-Central\\Client and Server-Central"
 3503      7420616E 
 3503      64205365 
 3503      72766572 
 3503      2D43656E 
 3504 11e7 2E637964 		.ascii	".cydsn\000"
 3504      736E00
 3505              	.LASF191:
 3506 11ee 4379426C 		.ascii	"CyBle_StoreBondingData\000"
 3506      655F5374 
 3506      6F726542 
 3506      6F6E6469 
 3506      6E674461 
 3507              	.LASF141:
 3508 1205 4359424C 		.ascii	"CYBLE_CALLBACK_T\000"
 3508      455F4341 
 3508      4C4C4241 
 3508      434B5F54 
ARM GAS  C:\Users\msuro\AppData\Local\Temp\ccOjNMmK.s 			page 95


 3508      00
 3509              	.LASF39:
 3510 1216 4359424C 		.ascii	"CYBLE_EVT_GATTS_XCNHG_MTU_REQ\000"
 3510      455F4556 
 3510      545F4741 
 3510      5454535F 
 3510      58434E48 
 3511              	.LASF103:
 3512 1234 62644164 		.ascii	"bdAddr\000"
 3512      647200
 3513              	.LASF121:
 3514 123b 73757065 		.ascii	"supervisionTO\000"
 3514      72766973 
 3514      696F6E54 
 3514      4F00
 3515              	.LASF108:
 3516 1249 7363616E 		.ascii	"scanIntv\000"
 3516      496E7476 
 3516      00
 3517              	.LASF147:
 3518 1252 4359424C 		.ascii	"CYBLE_GATTC_T\000"
 3518      455F4741 
 3518      5454435F 
 3518      5400
 3519              	.LASF46:
 3520 1260 4359424C 		.ascii	"CYBLE_EVT_GATTC_READ_BLOB_RSP\000"
 3520      455F4556 
 3520      545F4741 
 3520      5454435F 
 3520      52454144 
 3521              	.LASF209:
 3522 127e 6379426C 		.ascii	"cyBle_deviceAddress\000"
 3522      655F6465 
 3522      76696365 
 3522      41646472 
 3522      65737300 
 3523              	.LASF93:
 3524 1292 4359424C 		.ascii	"CYBLE_ERROR_MIC_AUTH_FAILED\000"
 3524      455F4552 
 3524      524F525F 
 3524      4D49435F 
 3524      41555448 
 3525              	.LASF86:
 3526 12ae 4359424C 		.ascii	"CYBLE_ERROR_L2CAP_PSM_NOT_REGISTERED\000"
 3526      455F4552 
 3526      524F525F 
 3526      4C324341 
 3526      505F5053 
 3527              	.LASF210:
 3528 12d3 6379426C 		.ascii	"cyBle_sflashDeviceAddress\000"
 3528      655F7366 
 3528      6C617368 
 3528      44657669 
 3528      63654164 
 3529              	.LASF160:
 3530 12ed 4359424C 		.ascii	"CYBLE_STATE_CONNECTED\000"
 3530      455F5354 
ARM GAS  C:\Users\msuro\AppData\Local\Temp\ccOjNMmK.s 			page 96


 3530      4154455F 
 3530      434F4E4E 
 3530      45435445 
 3531              	.LASF44:
 3532 1303 4359424C 		.ascii	"CYBLE_EVT_GATTC_FIND_BY_TYPE_VALUE_RSP\000"
 3532      455F4556 
 3532      545F4741 
 3532      5454435F 
 3532      46494E44 
 3533              	.LASF80:
 3534 132a 4359424C 		.ascii	"CYBLE_ERROR_GAP_ROLE\000"
 3534      455F4552 
 3534      524F525F 
 3534      4741505F 
 3534      524F4C45 
 3535              	.LASF199:
 3536 133f 4379426C 		.ascii	"CyBle_GapcCancelDeviceConnection\000"
 3536      655F4761 
 3536      70634361 
 3536      6E63656C 
 3536      44657669 
 3537              	.LASF35:
 3538 1360 4359424C 		.ascii	"CYBLE_EVT_GAP_KEYINFO_EXCHNGE_CMPLT\000"
 3538      455F4556 
 3538      545F4741 
 3538      505F4B45 
 3538      59494E46 
 3539              	.LASF204:
 3540 1384 4379426C 		.ascii	"CyBle_Get16ByPtr\000"
 3540      655F4765 
 3540      74313642 
 3540      79507472 
 3540      00
 3541              	.LASF123:
 3542 1395 6D617843 		.ascii	"maxCeLength\000"
 3542      654C656E 
 3542      67746800 
 3543              	.LASF126:
 3544 13a1 62644861 		.ascii	"bdHandle\000"
 3544      6E646C65 
 3544      00
 3545              	.LASF96:
 3546 13aa 4359424C 		.ascii	"CYBLE_CHAR_DISC_DONE\000"
 3546      455F4348 
 3546      41525F44 
 3546      4953435F 
 3546      444F4E45 
 3547              	.LASF69:
 3548 13bf 4359424C 		.ascii	"CYBLE_EVT_PENDING_FLASH_WRITE\000"
 3548      455F4556 
 3548      545F5045 
 3548      4E44494E 
 3548      475F464C 
 3549              	.LASF185:
 3550 13dd 4379426C 		.ascii	"CyBle_Init\000"
 3550      655F496E 
 3550      697400
ARM GAS  C:\Users\msuro\AppData\Local\Temp\ccOjNMmK.s 			page 97


 3551              	.LASF59:
 3552 13e8 4359424C 		.ascii	"CYBLE_EVT_L2CAP_CONN_PARAM_UPDATE_RSP\000"
 3552      455F4556 
 3552      545F4C32 
 3552      4341505F 
 3552      434F4E4E 
 3553              	.LASF208:
 3554 140e 6379426C 		.ascii	"cyBle_eventHandlerFlag\000"
 3554      655F6576 
 3554      656E7448 
 3554      616E646C 
 3554      6572466C 
 3555              	.LASF109:
 3556 1425 7363616E 		.ascii	"scanWindow\000"
 3556      57696E64 
 3556      6F7700
 3557              	.LASF175:
 3558 1430 64657669 		.ascii	"deviceNameCharHandle\000"
 3558      63654E61 
 3558      6D654368 
 3558      61724861 
 3558      6E646C65 
 3559              	.LASF197:
 3560 1445 4379426C 		.ascii	"CyBle_GapcConnectDevice\000"
 3560      655F4761 
 3560      7063436F 
 3560      6E6E6563 
 3560      74446576 
 3561              	.LASF90:
 3562 145d 4359424C 		.ascii	"CYBLE_ERROR_GATT_DB_INVALID_ATTR_HANDLE\000"
 3562      455F4552 
 3562      524F525F 
 3562      47415454 
 3562      5F44425F 
 3563              	.LASF174:
 3564 1485 4359424C 		.ascii	"CYBLE_CLIENT_STATE_T\000"
 3564      455F434C 
 3564      49454E54 
 3564      5F535441 
 3564      54455F54 
 3565              	.LASF217:
 3566 149a 6379426C 		.ascii	"cyBle_attValuesCCCDFlashMemory\000"
 3566      655F6174 
 3566      7456616C 
 3566      75657343 
 3566      43434446 
 3567              	.LASF165:
 3568 14b9 4359424C 		.ascii	"CYBLE_CLIENT_STATE_CONNECTED\000"
 3568      455F434C 
 3568      49454E54 
 3568      5F535441 
 3568      54455F43 
 3569              	.LASF120:
 3570 14d6 636F6E6E 		.ascii	"connLatency\000"
 3570      4C617465 
 3570      6E637900 
 3571              		.ident	"GCC: (GNU Tools for ARM Embedded Processors) 4.8.4 20140526 (release) [ARM/embedded-4_8-br
ARM GAS  C:\Users\msuro\AppData\Local\Temp\ccOjNMmK.s 			page 98


