ARM GAS  C:\Users\msuro\AppData\Local\Temp\ccOjNMmK.s 			page 1


   1              		.cpu cortex-m0
   2              		.fpu softvfp
   3              		.eabi_attribute 20, 1
   4              		.eabi_attribute 21, 1
   5              		.eabi_attribute 23, 3
   6              		.eabi_attribute 24, 1
   7              		.eabi_attribute 25, 1
   8              		.eabi_attribute 26, 1
   9              		.eabi_attribute 30, 6
  10              		.eabi_attribute 34, 0
  11              		.eabi_attribute 18, 4
  12              		.code	16
  13              		.file	"BLE.c"
  14              		.text
  15              	.Ltext0:
  16              		.cfi_sections	.debug_frame
  17              		.global	cyBle_initVar
  18              		.bss
  19              		.type	cyBle_initVar, %object
  20              		.size	cyBle_initVar, 1
  21              	cyBle_initVar:
  22 0000 00       		.space	1
  23              		.comm	cyBle_connectionParameters,26,4
  24              		.comm	cyBle_connectingTimeout,2,2
  25              		.global	cyBle_discoveryInfo
  26              		.data
  27              		.align	2
  28              		.type	cyBle_discoveryInfo, %object
  29              		.size	cyBle_discoveryInfo, 12
  30              	cyBle_discoveryInfo:
  31 0000 02       		.byte	2
  32 0001 01       		.byte	1
  33 0002 3000     		.short	48
  34 0004 3000     		.short	48
  35 0006 00       		.byte	0
  36 0007 00       		.byte	0
  37 0008 1E00     		.short	30
  38 000a 01       		.byte	1
  39 000b 00       		.space	1
  40              		.comm	cyBle_pendingFlashWrite,1,1
  41              		.comm	CyBle_ApplCallback,4,4
  42              		.global	cyBle_deviceAddress
  43              		.align	2
  44              		.type	cyBle_deviceAddress, %object
  45              		.size	cyBle_deviceAddress, 7
  46              	cyBle_deviceAddress:
  47 000c 00       		.byte	0
  48 000d 00       		.byte	0
  49 000e 00       		.byte	0
  50 000f 50       		.byte	80
  51 0010 A0       		.byte	-96
  52 0011 00       		.byte	0
  53 0012 00       		.byte	0
  54              		.global	cyBle_sflashDeviceAddress
  55 0013 00       		.align	2
  56              		.type	cyBle_sflashDeviceAddress, %object
  57              		.size	cyBle_sflashDeviceAddress, 4
ARM GAS  C:\Users\msuro\AppData\Local\Temp\ccOjNMmK.s 			page 2


  58              	cyBle_sflashDeviceAddress:
  59 0014 00F2FF0F 		.word	268431872
  60              		.section	.text.CyBle_Init,"ax",%progbits
  61              		.align	2
  62              		.global	CyBle_Init
  63              		.code	16
  64              		.thumb_func
  65              		.type	CyBle_Init, %function
  66              	CyBle_Init:
  67              	.LFB2:
  68              		.file 1 ".\\Generated_Source\\PSoC4\\BLE.c"
   1:.\Generated_Source\PSoC4/BLE.c **** /*******************************************************************************
   2:.\Generated_Source\PSoC4/BLE.c **** File Name: CYBLE.c
   3:.\Generated_Source\PSoC4/BLE.c **** Version 1.20
   4:.\Generated_Source\PSoC4/BLE.c **** 
   5:.\Generated_Source\PSoC4/BLE.c **** Description:
   6:.\Generated_Source\PSoC4/BLE.c ****  This file contains the source code for the Common APIs of the BLE Component.
   7:.\Generated_Source\PSoC4/BLE.c **** 
   8:.\Generated_Source\PSoC4/BLE.c **** ********************************************************************************
   9:.\Generated_Source\PSoC4/BLE.c **** Copyright 2014-2015, Cypress Semiconductor Corporation.  All rights reserved.
  10:.\Generated_Source\PSoC4/BLE.c **** You may use this file only in accordance with the license, terms, conditions,
  11:.\Generated_Source\PSoC4/BLE.c **** disclaimers, and limitations in the end user license agreement accompanying
  12:.\Generated_Source\PSoC4/BLE.c **** the software package with which this file was provided.
  13:.\Generated_Source\PSoC4/BLE.c **** *******************************************************************************/
  14:.\Generated_Source\PSoC4/BLE.c **** 
  15:.\Generated_Source\PSoC4/BLE.c **** #include "BLE_eventHandler.h"
  16:.\Generated_Source\PSoC4/BLE.c **** #include "BLE_HAL_PVT.h"
  17:.\Generated_Source\PSoC4/BLE.c **** 
  18:.\Generated_Source\PSoC4/BLE.c **** 
  19:.\Generated_Source\PSoC4/BLE.c **** /***************************************
  20:.\Generated_Source\PSoC4/BLE.c **** ##Function Prototypes
  21:.\Generated_Source\PSoC4/BLE.c **** ***************************************/
  22:.\Generated_Source\PSoC4/BLE.c **** 
  23:.\Generated_Source\PSoC4/BLE.c **** #if(CYBLE_GATT_ROLE_SERVER)
  24:.\Generated_Source\PSoC4/BLE.c ****     #if(CYBLE_GAP_ROLE_PERIPHERAL)
  25:.\Generated_Source\PSoC4/BLE.c ****         static void CyBle_ChangeAdLocalName(const char8 name[], uint8 dest);
  26:.\Generated_Source\PSoC4/BLE.c ****     #endif /* (CYBLE_GAP_ROLE_PERIPHERAL) */
  27:.\Generated_Source\PSoC4/BLE.c **** #endif /* (CYBLE_GATT_ROLE_SERVER) */
  28:.\Generated_Source\PSoC4/BLE.c ****     
  29:.\Generated_Source\PSoC4/BLE.c **** 
  30:.\Generated_Source\PSoC4/BLE.c **** /***************************************
  31:.\Generated_Source\PSoC4/BLE.c **** ##Global Variables
  32:.\Generated_Source\PSoC4/BLE.c **** ***************************************/
  33:.\Generated_Source\PSoC4/BLE.c **** 
  34:.\Generated_Source\PSoC4/BLE.c **** /* Indicates whether the BLE has been initialized. The variable is initialized to
  35:.\Generated_Source\PSoC4/BLE.c ****    0 and set to 1 the first time CyBle_Start() is called. This allows the component
  36:.\Generated_Source\PSoC4/BLE.c ****    to restart without reinitialization after the first call to the CyBle_Start() 
  37:.\Generated_Source\PSoC4/BLE.c ****    routine. If reinitialization of the component is required, the variable should 
  38:.\Generated_Source\PSoC4/BLE.c ****    be set to 0 before the CyBle_Start() routine is called. Alternatively, the BLE
  39:.\Generated_Source\PSoC4/BLE.c ****    can be reinitialized by calling the CyBle_Init() function.
  40:.\Generated_Source\PSoC4/BLE.c **** */
  41:.\Generated_Source\PSoC4/BLE.c **** uint8  cyBle_initVar = 0u;
  42:.\Generated_Source\PSoC4/BLE.c **** 
  43:.\Generated_Source\PSoC4/BLE.c **** #if(CYBLE_GAP_ROLE_PERIPHERAL || CYBLE_GAP_ROLE_BROADCASTER)
  44:.\Generated_Source\PSoC4/BLE.c **** 
  45:.\Generated_Source\PSoC4/BLE.c **** 
  46:.\Generated_Source\PSoC4/BLE.c **** 
ARM GAS  C:\Users\msuro\AppData\Local\Temp\ccOjNMmK.s 			page 3


  47:.\Generated_Source\PSoC4/BLE.c **** #endif /* CYBLE_GAP_ROLE_PERIPHERAL || CYBLE_GAP_ROLE_BROADCASTER */
  48:.\Generated_Source\PSoC4/BLE.c **** 
  49:.\Generated_Source\PSoC4/BLE.c **** #if(CYBLE_GAP_ROLE_CENTRAL)
  50:.\Generated_Source\PSoC4/BLE.c ****     
  51:.\Generated_Source\PSoC4/BLE.c **** CYBLE_GAPC_CONN_PARAM_T cyBle_connectionParameters;
  52:.\Generated_Source\PSoC4/BLE.c **** 
  53:.\Generated_Source\PSoC4/BLE.c **** /* Connecting timeout is set to 30 seconds in CyBle_Init function. 
  54:.\Generated_Source\PSoC4/BLE.c ****    Not zero value starts timer in CyBle_GapcConnectDevice API.
  55:.\Generated_Source\PSoC4/BLE.c **** */
  56:.\Generated_Source\PSoC4/BLE.c **** uint16 cyBle_connectingTimeout;
  57:.\Generated_Source\PSoC4/BLE.c ****     
  58:.\Generated_Source\PSoC4/BLE.c **** #endif /* CYBLE_GAP_ROLE_CENTRAL */
  59:.\Generated_Source\PSoC4/BLE.c **** 
  60:.\Generated_Source\PSoC4/BLE.c **** #if(CYBLE_GAP_ROLE_CENTRAL || CYBLE_GAP_ROLE_OBSERVER)
  61:.\Generated_Source\PSoC4/BLE.c ****     
  62:.\Generated_Source\PSoC4/BLE.c **** /* This variable of type CYBLE_GAPC_DISC_INFO_T is present only when  
  63:.\Generated_Source\PSoC4/BLE.c ****    the BLE component is configured for Central GAP role or Central and  
  64:.\Generated_Source\PSoC4/BLE.c ****    Peripheral GAP role. It contains the Scan settings entered in the  
  65:.\Generated_Source\PSoC4/BLE.c ****    customizer. This variable can be used by advanced users to change Scan  
  66:.\Generated_Source\PSoC4/BLE.c ****    settings in runtime.
  67:.\Generated_Source\PSoC4/BLE.c **** */
  68:.\Generated_Source\PSoC4/BLE.c **** CYBLE_GAPC_DISC_INFO_T cyBle_discoveryInfo =
  69:.\Generated_Source\PSoC4/BLE.c **** {
  70:.\Generated_Source\PSoC4/BLE.c ****     0x02u,      /* discProcedure */
  71:.\Generated_Source\PSoC4/BLE.c ****     0x01u,      /* scanType */
  72:.\Generated_Source\PSoC4/BLE.c ****     0x0030u,    /* scanInterval */
  73:.\Generated_Source\PSoC4/BLE.c ****     0x0030u,    /* scanWindow */
  74:.\Generated_Source\PSoC4/BLE.c ****     0x00u,      /* ownAddrType */
  75:.\Generated_Source\PSoC4/BLE.c ****     0x00u,      /* scanFilterPolicy */
  76:.\Generated_Source\PSoC4/BLE.c ****     0x001Eu,    /* scanTO */
  77:.\Generated_Source\PSoC4/BLE.c ****     0x01u,      /* filterDuplicates */
  78:.\Generated_Source\PSoC4/BLE.c **** };
  79:.\Generated_Source\PSoC4/BLE.c ****     
  80:.\Generated_Source\PSoC4/BLE.c **** #endif /* CYBLE_GAP_ROLE_CENTRAL || CYBLE_GAP_ROLE_OBSERVER */
  81:.\Generated_Source\PSoC4/BLE.c **** 
  82:.\Generated_Source\PSoC4/BLE.c **** #if((CYBLE_GAP_ROLE_PERIPHERAL || CYBLE_GAP_ROLE_CENTRAL) && (CYBLE_BONDING_REQUIREMENT == CYBLE_BO
  83:.\Generated_Source\PSoC4/BLE.c **** 
  84:.\Generated_Source\PSoC4/BLE.c **** uint8 cyBle_pendingFlashWrite;
  85:.\Generated_Source\PSoC4/BLE.c ****     
  86:.\Generated_Source\PSoC4/BLE.c **** #endif  /* (CYBLE_BONDING_REQUIREMENT == CYBLE_BONDING_YES) */
  87:.\Generated_Source\PSoC4/BLE.c **** 
  88:.\Generated_Source\PSoC4/BLE.c **** CYBLE_CALLBACK_T CyBle_ApplCallback;
  89:.\Generated_Source\PSoC4/BLE.c **** CYBLE_GAP_BD_ADDR_T cyBle_deviceAddress = {{0x00u, 0x00u, 0x00u, 0x50u, 0xA0u, 0x00u}, 0x00u };
  90:.\Generated_Source\PSoC4/BLE.c **** CYBLE_GAP_BD_ADDR_T * cyBle_sflashDeviceAddress = CYBLE_SFLASH_DEVICE_ADDRESS_PTR;
  91:.\Generated_Source\PSoC4/BLE.c **** 
  92:.\Generated_Source\PSoC4/BLE.c **** 
  93:.\Generated_Source\PSoC4/BLE.c **** /******************************************************************************
  94:.\Generated_Source\PSoC4/BLE.c **** ##Function Name: CyBle_Init
  95:.\Generated_Source\PSoC4/BLE.c **** *******************************************************************************
  96:.\Generated_Source\PSoC4/BLE.c ****  Summary:
  97:.\Generated_Source\PSoC4/BLE.c ****   Initializes the component with the parameters set in the customizer.
  98:.\Generated_Source\PSoC4/BLE.c **** 
  99:.\Generated_Source\PSoC4/BLE.c ****  Parameters:
 100:.\Generated_Source\PSoC4/BLE.c ****   None
 101:.\Generated_Source\PSoC4/BLE.c **** 
 102:.\Generated_Source\PSoC4/BLE.c ****  Return:
 103:.\Generated_Source\PSoC4/BLE.c ****   None
ARM GAS  C:\Users\msuro\AppData\Local\Temp\ccOjNMmK.s 			page 4


 104:.\Generated_Source\PSoC4/BLE.c **** 
 105:.\Generated_Source\PSoC4/BLE.c **** ******************************************************************************/
 106:.\Generated_Source\PSoC4/BLE.c **** void CyBle_Init(void)
 107:.\Generated_Source\PSoC4/BLE.c **** {
  69              		.loc 1 107 0
  70              		.cfi_startproc
  71 0000 80B5     		push	{r7, lr}
  72              		.cfi_def_cfa_offset 8
  73              		.cfi_offset 7, -8
  74              		.cfi_offset 14, -4
  75 0002 00AF     		add	r7, sp, #0
  76              		.cfi_def_cfa_register 7
 108:.\Generated_Source\PSoC4/BLE.c ****     cyBle_eventHandlerFlag = 0u;
  77              		.loc 1 108 0
  78 0004 1A4B     		ldr	r3, .L2
  79 0006 0022     		mov	r2, #0
  80 0008 1A70     		strb	r2, [r3]
 109:.\Generated_Source\PSoC4/BLE.c ****     cyBle_busyStatus = CYBLE_STACK_STATE_FREE;
  81              		.loc 1 109 0
  82 000a 1A4B     		ldr	r3, .L2+4
  83 000c 0022     		mov	r2, #0
  84 000e 1A70     		strb	r2, [r3]
 110:.\Generated_Source\PSoC4/BLE.c ****     
 111:.\Generated_Source\PSoC4/BLE.c ****     #if(CYBLE_GAP_ROLE_PERIPHERAL || CYBLE_GAP_ROLE_BROADCASTER) 
 112:.\Generated_Source\PSoC4/BLE.c ****         cyBle_advertisingIntervalType = CYBLE_ADVERTISING_FAST; 
 113:.\Generated_Source\PSoC4/BLE.c ****     #endif /* (CYBLE_GAP_ROLE_PERIPHERAL || CYBLE_GAP_ROLE_BROADCASTER)  */
 114:.\Generated_Source\PSoC4/BLE.c ****     #if(CYBLE_GAP_ROLE_CENTRAL || CYBLE_GAP_ROLE_OBSERVER)
 115:.\Generated_Source\PSoC4/BLE.c ****         cyBle_scanningIntervalType = CYBLE_SCANNING_FAST; 
  85              		.loc 1 115 0
  86 0010 194B     		ldr	r3, .L2+8
  87 0012 0022     		mov	r2, #0
  88 0014 1A70     		strb	r2, [r3]
 116:.\Generated_Source\PSoC4/BLE.c ****     #endif /* (CYBLE_GAP_ROLE_CENTRAL || CYBLE_GAP_ROLE_OBSERVER) */
 117:.\Generated_Source\PSoC4/BLE.c ****         
 118:.\Generated_Source\PSoC4/BLE.c ****     /* Init default connection parameters. 
 119:.\Generated_Source\PSoC4/BLE.c ****        Application may change it before initiating a connection */
 120:.\Generated_Source\PSoC4/BLE.c ****     #if(CYBLE_GAP_ROLE_CENTRAL)
 121:.\Generated_Source\PSoC4/BLE.c ****         cyBle_connectionParameters.scanIntv = cyBle_discoveryInfo.scanIntv;
  89              		.loc 1 121 0
  90 0016 194B     		ldr	r3, .L2+12
  91 0018 5A88     		ldrh	r2, [r3, #2]
  92 001a 194B     		ldr	r3, .L2+16
  93 001c 1A80     		strh	r2, [r3]
 122:.\Generated_Source\PSoC4/BLE.c ****         cyBle_connectionParameters.scanWindow = cyBle_discoveryInfo.scanWindow;
  94              		.loc 1 122 0
  95 001e 174B     		ldr	r3, .L2+12
  96 0020 9A88     		ldrh	r2, [r3, #4]
  97 0022 174B     		ldr	r3, .L2+16
  98 0024 5A80     		strh	r2, [r3, #2]
 123:.\Generated_Source\PSoC4/BLE.c ****         cyBle_connectionParameters.ownAddrType = cyBle_discoveryInfo.ownAddrType;
  99              		.loc 1 123 0
 100 0026 154B     		ldr	r3, .L2+12
 101 0028 9A79     		ldrb	r2, [r3, #6]
 102 002a 154B     		ldr	r3, .L2+16
 103 002c 1A73     		strb	r2, [r3, #12]
 124:.\Generated_Source\PSoC4/BLE.c ****         cyBle_connectionParameters.initiatorFilterPolicy = cyBle_discoveryInfo.scanFilterPolicy;
 104              		.loc 1 124 0
ARM GAS  C:\Users\msuro\AppData\Local\Temp\ccOjNMmK.s 			page 5


 105 002e 134B     		ldr	r3, .L2+12
 106 0030 DA79     		ldrb	r2, [r3, #7]
 107 0032 134B     		ldr	r3, .L2+16
 108 0034 1A71     		strb	r2, [r3, #4]
 125:.\Generated_Source\PSoC4/BLE.c ****         cyBle_connectionParameters.connIntvMin = CYBLE_GAPC_CONNECTION_INTERVAL_MIN;
 109              		.loc 1 125 0
 110 0036 124B     		ldr	r3, .L2+16
 111 0038 0622     		mov	r2, #6
 112 003a DA81     		strh	r2, [r3, #14]
 126:.\Generated_Source\PSoC4/BLE.c ****         cyBle_connectionParameters.connIntvMax = CYBLE_GAPC_CONNECTION_INTERVAL_MAX;
 113              		.loc 1 126 0
 114 003c 104B     		ldr	r3, .L2+16
 115 003e 2822     		mov	r2, #40
 116 0040 1A82     		strh	r2, [r3, #16]
 127:.\Generated_Source\PSoC4/BLE.c ****         cyBle_connectionParameters.connLatency = CYBLE_GAPC_CONNECTION_SLAVE_LATENCY;
 117              		.loc 1 127 0
 118 0042 0F4B     		ldr	r3, .L2+16
 119 0044 0022     		mov	r2, #0
 120 0046 5A82     		strh	r2, [r3, #18]
 128:.\Generated_Source\PSoC4/BLE.c ****         cyBle_connectionParameters.supervisionTO = CYBLE_GAPC_CONNECTION_TIME_OUT;
 121              		.loc 1 128 0
 122 0048 0D4B     		ldr	r3, .L2+16
 123 004a 6422     		mov	r2, #100
 124 004c 9A82     		strh	r2, [r3, #20]
 129:.\Generated_Source\PSoC4/BLE.c ****         cyBle_connectionParameters.minCeLength = 0x0000u;
 125              		.loc 1 129 0
 126 004e 0C4B     		ldr	r3, .L2+16
 127 0050 0022     		mov	r2, #0
 128 0052 DA82     		strh	r2, [r3, #22]
 130:.\Generated_Source\PSoC4/BLE.c ****         cyBle_connectionParameters.maxCeLength = 0xFFFFu;
 129              		.loc 1 130 0
 130 0054 0A4B     		ldr	r3, .L2+16
 131 0056 0122     		mov	r2, #1
 132 0058 5242     		neg	r2, r2
 133 005a 1A83     		strh	r2, [r3, #24]
 131:.\Generated_Source\PSoC4/BLE.c ****         
 132:.\Generated_Source\PSoC4/BLE.c ****         cyBle_connectingTimeout = CYBLE_GAPC_CONNECTING_TIMEOUT;
 134              		.loc 1 132 0
 135 005c 094B     		ldr	r3, .L2+20
 136 005e 1E22     		mov	r2, #30
 137 0060 1A80     		strh	r2, [r3]
 133:.\Generated_Source\PSoC4/BLE.c ****     #endif /* CYBLE_GAP_ROLE_CENTRAL */
 134:.\Generated_Source\PSoC4/BLE.c **** 
 135:.\Generated_Source\PSoC4/BLE.c ****     CyBle_ServiceInit();
 138              		.loc 1 135 0
 139 0062 FFF7FEFF 		bl	CyBle_ServiceInit
 136:.\Generated_Source\PSoC4/BLE.c **** 
 137:.\Generated_Source\PSoC4/BLE.c **** #if((CYBLE_GAP_ROLE_PERIPHERAL || CYBLE_GAP_ROLE_CENTRAL) && (CYBLE_BONDING_REQUIREMENT == CYBLE_BO
 138:.\Generated_Source\PSoC4/BLE.c ****     cyBle_pendingFlashWrite = 0u;
 140              		.loc 1 138 0
 141 0066 084B     		ldr	r3, .L2+24
 142 0068 0022     		mov	r2, #0
 143 006a 1A70     		strb	r2, [r3]
 139:.\Generated_Source\PSoC4/BLE.c **** #endif  /* (CYBLE_BONDING_REQUIREMENT == CYBLE_BONDING_YES) */
 140:.\Generated_Source\PSoC4/BLE.c **** 
 141:.\Generated_Source\PSoC4/BLE.c **** }
 144              		.loc 1 141 0
ARM GAS  C:\Users\msuro\AppData\Local\Temp\ccOjNMmK.s 			page 6


 145 006c BD46     		mov	sp, r7
 146              		@ sp needed
 147 006e 80BD     		pop	{r7, pc}
 148              	.L3:
 149              		.align	2
 150              	.L2:
 151 0070 00000000 		.word	cyBle_eventHandlerFlag
 152 0074 00000000 		.word	cyBle_busyStatus
 153 0078 00000000 		.word	cyBle_scanningIntervalType
 154 007c 00000000 		.word	cyBle_discoveryInfo
 155 0080 00000000 		.word	cyBle_connectionParameters
 156 0084 00000000 		.word	cyBle_connectingTimeout
 157 0088 00000000 		.word	cyBle_pendingFlashWrite
 158              		.cfi_endproc
 159              	.LFE2:
 160              		.size	CyBle_Init, .-CyBle_Init
 161              		.section	.text.CyBle_ServiceInit,"ax",%progbits
 162              		.align	2
 163              		.global	CyBle_ServiceInit
 164              		.code	16
 165              		.thumb_func
 166              		.type	CyBle_ServiceInit, %function
 167              	CyBle_ServiceInit:
 168              	.LFB3:
 142:.\Generated_Source\PSoC4/BLE.c **** 
 143:.\Generated_Source\PSoC4/BLE.c **** 
 144:.\Generated_Source\PSoC4/BLE.c **** /******************************************************************************
 145:.\Generated_Source\PSoC4/BLE.c **** ##Function Name: CyBle_ServiceInit
 146:.\Generated_Source\PSoC4/BLE.c **** *******************************************************************************
 147:.\Generated_Source\PSoC4/BLE.c **** 
 148:.\Generated_Source\PSoC4/BLE.c **** Summary:
 149:.\Generated_Source\PSoC4/BLE.c ****  Initializes all included services.
 150:.\Generated_Source\PSoC4/BLE.c **** 
 151:.\Generated_Source\PSoC4/BLE.c **** Parameters:
 152:.\Generated_Source\PSoC4/BLE.c ****  None
 153:.\Generated_Source\PSoC4/BLE.c **** 
 154:.\Generated_Source\PSoC4/BLE.c **** Return:
 155:.\Generated_Source\PSoC4/BLE.c ****  None
 156:.\Generated_Source\PSoC4/BLE.c **** 
 157:.\Generated_Source\PSoC4/BLE.c **** ******************************************************************************/
 158:.\Generated_Source\PSoC4/BLE.c **** void CyBle_ServiceInit(void)
 159:.\Generated_Source\PSoC4/BLE.c **** {
 169              		.loc 1 159 0
 170              		.cfi_startproc
 171 0000 80B5     		push	{r7, lr}
 172              		.cfi_def_cfa_offset 8
 173              		.cfi_offset 7, -8
 174              		.cfi_offset 14, -4
 175 0002 00AF     		add	r7, sp, #0
 176              		.cfi_def_cfa_register 7
 160:.\Generated_Source\PSoC4/BLE.c ****     #if(CYBLE_GATT_ROLE_CLIENT)
 161:.\Generated_Source\PSoC4/BLE.c ****         (void)memset(&cyBle_gapc, 0, sizeof(cyBle_gapc));
 177              		.loc 1 161 0
 178 0004 084B     		ldr	r3, .L5
 179 0006 181C     		mov	r0, r3
 180 0008 0021     		mov	r1, #0
 181 000a 0A22     		mov	r2, #10
ARM GAS  C:\Users\msuro\AppData\Local\Temp\ccOjNMmK.s 			page 7


 182 000c FFF7FEFF 		bl	memset
 162:.\Generated_Source\PSoC4/BLE.c ****         (void)memset(&cyBle_gattc, 0, sizeof(cyBle_gattc));
 183              		.loc 1 162 0
 184 0010 064B     		ldr	r3, .L5+4
 185 0012 181C     		mov	r0, r3
 186 0014 0021     		mov	r1, #0
 187 0016 0622     		mov	r2, #6
 188 0018 FFF7FEFF 		bl	memset
 163:.\Generated_Source\PSoC4/BLE.c ****     #endif /* CYBLE_GATT_ROLE_CLIENT */
 164:.\Generated_Source\PSoC4/BLE.c ****     
 165:.\Generated_Source\PSoC4/BLE.c ****     #ifdef CYBLE_ANS
 166:.\Generated_Source\PSoC4/BLE.c ****         CyBle_AnsInit();
 167:.\Generated_Source\PSoC4/BLE.c ****     #endif /* CYBLE_ANS */
 168:.\Generated_Source\PSoC4/BLE.c ****     
 169:.\Generated_Source\PSoC4/BLE.c ****     #ifdef CYBLE_BAS
 170:.\Generated_Source\PSoC4/BLE.c ****         CyBle_BasInit();
 171:.\Generated_Source\PSoC4/BLE.c ****     #endif /* CYBLE_BAS */
 172:.\Generated_Source\PSoC4/BLE.c ****     
 173:.\Generated_Source\PSoC4/BLE.c ****     #ifdef CYBLE_BLS
 174:.\Generated_Source\PSoC4/BLE.c ****         CyBle_BlsInit();
 175:.\Generated_Source\PSoC4/BLE.c ****     #endif /* CYBLE_BLS */
 176:.\Generated_Source\PSoC4/BLE.c ****     
 177:.\Generated_Source\PSoC4/BLE.c ****     #ifdef CYBLE_CGMS
 178:.\Generated_Source\PSoC4/BLE.c ****         CyBle_CgmsInit();
 179:.\Generated_Source\PSoC4/BLE.c ****     #endif /* CYBLE_CGMS */
 180:.\Generated_Source\PSoC4/BLE.c **** 
 181:.\Generated_Source\PSoC4/BLE.c ****     #ifdef CYBLE_CPS
 182:.\Generated_Source\PSoC4/BLE.c ****         CyBle_CpsInit();
 183:.\Generated_Source\PSoC4/BLE.c ****     #endif /* CYBLE_CPS */
 184:.\Generated_Source\PSoC4/BLE.c **** 
 185:.\Generated_Source\PSoC4/BLE.c ****     #ifdef CYBLE_CSCS
 186:.\Generated_Source\PSoC4/BLE.c ****         CyBle_CscsInit();
 187:.\Generated_Source\PSoC4/BLE.c ****     #endif /* CYBLE_CSCS */
 188:.\Generated_Source\PSoC4/BLE.c ****     
 189:.\Generated_Source\PSoC4/BLE.c ****     #ifdef CYBLE_CTS
 190:.\Generated_Source\PSoC4/BLE.c ****         CyBle_CtsInit();
 191:.\Generated_Source\PSoC4/BLE.c ****     #endif /* CYBLE_CTS */
 192:.\Generated_Source\PSoC4/BLE.c **** 
 193:.\Generated_Source\PSoC4/BLE.c ****     #ifdef CYBLE_DIS
 194:.\Generated_Source\PSoC4/BLE.c ****         CyBle_DisInit();
 189              		.loc 1 194 0
 190 001c FFF7FEFF 		bl	CyBle_DisInit
 195:.\Generated_Source\PSoC4/BLE.c ****     #endif /* CYBLE_DIS */
 196:.\Generated_Source\PSoC4/BLE.c **** 
 197:.\Generated_Source\PSoC4/BLE.c ****     #ifdef CYBLE_GLS
 198:.\Generated_Source\PSoC4/BLE.c ****         CyBle_GlsInit();
 199:.\Generated_Source\PSoC4/BLE.c ****     #endif /* CYBLE_GLS */
 200:.\Generated_Source\PSoC4/BLE.c ****     
 201:.\Generated_Source\PSoC4/BLE.c ****     #ifdef CYBLE_HIDS
 202:.\Generated_Source\PSoC4/BLE.c ****         CyBle_HidsInit();
 203:.\Generated_Source\PSoC4/BLE.c ****     #endif /* CYBLE_HIDS */
 204:.\Generated_Source\PSoC4/BLE.c **** 
 205:.\Generated_Source\PSoC4/BLE.c ****     #ifdef CYBLE_HRS
 206:.\Generated_Source\PSoC4/BLE.c ****         CyBle_HrsInit();
 207:.\Generated_Source\PSoC4/BLE.c ****     #endif /* CYBLE_HRS */
 208:.\Generated_Source\PSoC4/BLE.c ****     
 209:.\Generated_Source\PSoC4/BLE.c ****     #ifdef CYBLE_HTS
ARM GAS  C:\Users\msuro\AppData\Local\Temp\ccOjNMmK.s 			page 8


 210:.\Generated_Source\PSoC4/BLE.c ****         CyBle_HtsInit();
 211:.\Generated_Source\PSoC4/BLE.c ****     #endif /* CYBLE_RSCS */
 212:.\Generated_Source\PSoC4/BLE.c **** 
 213:.\Generated_Source\PSoC4/BLE.c ****     #ifdef CYBLE_IAS
 214:.\Generated_Source\PSoC4/BLE.c ****         CyBle_IasInit();
 215:.\Generated_Source\PSoC4/BLE.c ****     #endif /* CYBLE_IAS */
 216:.\Generated_Source\PSoC4/BLE.c **** 
 217:.\Generated_Source\PSoC4/BLE.c ****     #ifdef CYBLE_LLS
 218:.\Generated_Source\PSoC4/BLE.c ****         CyBle_LlsInit();
 219:.\Generated_Source\PSoC4/BLE.c ****     #endif /* CYBLE_LLS */
 220:.\Generated_Source\PSoC4/BLE.c **** 
 221:.\Generated_Source\PSoC4/BLE.c ****     #ifdef CYBLE_RTUS
 222:.\Generated_Source\PSoC4/BLE.c ****         CyBle_RtusInit();
 223:.\Generated_Source\PSoC4/BLE.c ****     #endif /* CYBLE_RTUS */
 224:.\Generated_Source\PSoC4/BLE.c **** 
 225:.\Generated_Source\PSoC4/BLE.c ****     #ifdef CYBLE_LNS
 226:.\Generated_Source\PSoC4/BLE.c ****         CyBle_LnsInit();
 227:.\Generated_Source\PSoC4/BLE.c ****     #endif /* CYBLE_LNS */
 228:.\Generated_Source\PSoC4/BLE.c ****     
 229:.\Generated_Source\PSoC4/BLE.c ****     #ifdef CYBLE_PASS
 230:.\Generated_Source\PSoC4/BLE.c ****         CyBle_PassInit();
 231:.\Generated_Source\PSoC4/BLE.c ****     #endif /* CYBLE_PASS */
 232:.\Generated_Source\PSoC4/BLE.c ****     
 233:.\Generated_Source\PSoC4/BLE.c ****     #ifdef CYBLE_RSCS
 234:.\Generated_Source\PSoC4/BLE.c ****         CyBle_RscsInit();
 235:.\Generated_Source\PSoC4/BLE.c ****     #endif /* CYBLE_RSCS */
 236:.\Generated_Source\PSoC4/BLE.c **** 
 237:.\Generated_Source\PSoC4/BLE.c ****     #ifdef CYBLE_SCPS
 238:.\Generated_Source\PSoC4/BLE.c ****         CyBle_ScpsInit();
 239:.\Generated_Source\PSoC4/BLE.c ****     #endif /* CYBLE_SCPS */
 240:.\Generated_Source\PSoC4/BLE.c ****     
 241:.\Generated_Source\PSoC4/BLE.c ****     #ifdef CYBLE_TPS
 242:.\Generated_Source\PSoC4/BLE.c ****         CyBle_TpsInit();
 191              		.loc 1 242 0
 192 0020 FFF7FEFF 		bl	CyBle_TpsInit
 243:.\Generated_Source\PSoC4/BLE.c ****     #endif /* CYBLE_TPS */
 244:.\Generated_Source\PSoC4/BLE.c ****     
 245:.\Generated_Source\PSoC4/BLE.c ****     #ifdef CYBLE_UDS
 246:.\Generated_Source\PSoC4/BLE.c ****         CyBle_UdsInit();
 247:.\Generated_Source\PSoC4/BLE.c ****     #endif /* CYBLE_UDS */
 248:.\Generated_Source\PSoC4/BLE.c **** }
 193              		.loc 1 248 0
 194 0024 BD46     		mov	sp, r7
 195              		@ sp needed
 196 0026 80BD     		pop	{r7, pc}
 197              	.L6:
 198              		.align	2
 199              	.L5:
 200 0028 00000000 		.word	cyBle_gapc
 201 002c 00000000 		.word	cyBle_gattc
 202              		.cfi_endproc
 203              	.LFE3:
 204              		.size	CyBle_ServiceInit, .-CyBle_ServiceInit
 205              		.section	.text.CyBle_Start,"ax",%progbits
 206              		.align	2
 207              		.global	CyBle_Start
 208              		.code	16
ARM GAS  C:\Users\msuro\AppData\Local\Temp\ccOjNMmK.s 			page 9


 209              		.thumb_func
 210              		.type	CyBle_Start, %function
 211              	CyBle_Start:
 212              	.LFB4:
 249:.\Generated_Source\PSoC4/BLE.c **** 
 250:.\Generated_Source\PSoC4/BLE.c **** 
 251:.\Generated_Source\PSoC4/BLE.c **** /******************************************************************************
 252:.\Generated_Source\PSoC4/BLE.c **** ##Function Name: CyBle_Start
 253:.\Generated_Source\PSoC4/BLE.c **** *******************************************************************************
 254:.\Generated_Source\PSoC4/BLE.c **** 
 255:.\Generated_Source\PSoC4/BLE.c **** Summary:
 256:.\Generated_Source\PSoC4/BLE.c ****  This function initializes the BLE Stack, which consists of the BLE Stack 
 257:.\Generated_Source\PSoC4/BLE.c ****  Manager, BLE Controller, and BLE Host modules. It takes care of initializing
 258:.\Generated_Source\PSoC4/BLE.c ****  the Profile layer, schedulers, Timer and other platform related
 259:.\Generated_Source\PSoC4/BLE.c ****  resources required for the BLE component. It also registers the callback 
 260:.\Generated_Source\PSoC4/BLE.c ****  function for BLE events that will be registered in the BLE stack.
 261:.\Generated_Source\PSoC4/BLE.c **** 
 262:.\Generated_Source\PSoC4/BLE.c ****  Note that this function does not reset the BLE Stack.
 263:.\Generated_Source\PSoC4/BLE.c **** 
 264:.\Generated_Source\PSoC4/BLE.c ****  For HCI-Mode of operation, this function will not initialize the BLE Host 
 265:.\Generated_Source\PSoC4/BLE.c ****  module.
 266:.\Generated_Source\PSoC4/BLE.c **** 
 267:.\Generated_Source\PSoC4/BLE.c ****  Calling this function results in the generation of CYBLE_EVT_STACK_ON event
 268:.\Generated_Source\PSoC4/BLE.c ****  on successful initialization of the BLE Stack.
 269:.\Generated_Source\PSoC4/BLE.c **** 
 270:.\Generated_Source\PSoC4/BLE.c **** Parameters:
 271:.\Generated_Source\PSoC4/BLE.c ****  callbackFunc: Event callback function to receive events from BLE stack.
 272:.\Generated_Source\PSoC4/BLE.c ****   CYBLE_CALLBACK_T is a function pointer type.
 273:.\Generated_Source\PSoC4/BLE.c **** 
 274:.\Generated_Source\PSoC4/BLE.c **** Return:
 275:.\Generated_Source\PSoC4/BLE.c ****  CYBLE_API_RESULT_T : Return value indicates if the function succeeded or 
 276:.\Generated_Source\PSoC4/BLE.c ****  failed. Following are the possible error codes.
 277:.\Generated_Source\PSoC4/BLE.c ****  <table>
 278:.\Generated_Source\PSoC4/BLE.c ****   Errors codes                        Description
 279:.\Generated_Source\PSoC4/BLE.c ****   ------------                        -----------------
 280:.\Generated_Source\PSoC4/BLE.c ****   CYBLE_ERROR_OK                      On successful operation.
 281:.\Generated_Source\PSoC4/BLE.c ****   CYBLE_ERROR_INVALID_PARAMETER       On passing a NULL pointer to the 
 282:.\Generated_Source\PSoC4/BLE.c ****                                        function when the BLE stack is not 
 283:.\Generated_Source\PSoC4/BLE.c ****                                        built in HCI mode.
 284:.\Generated_Source\PSoC4/BLE.c ****                                        CYBLE_ERROR_INVALID_PARAMETER
 285:.\Generated_Source\PSoC4/BLE.c ****                                        is never returned in HCI mode.
 286:.\Generated_Source\PSoC4/BLE.c ****   CYBLE_ERROR_REPEATED_ATTEMPTS       On invoking this function more
 287:.\Generated_Source\PSoC4/BLE.c ****                                        than once without calling
 288:.\Generated_Source\PSoC4/BLE.c ****                                        CyBle_Shutdown() function 
 289:.\Generated_Source\PSoC4/BLE.c ****                                        between calls to this function.
 290:.\Generated_Source\PSoC4/BLE.c ****  </table>
 291:.\Generated_Source\PSoC4/BLE.c **** 
 292:.\Generated_Source\PSoC4/BLE.c **** ******************************************************************************/
 293:.\Generated_Source\PSoC4/BLE.c **** CYBLE_API_RESULT_T CyBle_Start(CYBLE_CALLBACK_T callbackFunc)
 294:.\Generated_Source\PSoC4/BLE.c **** {
 213              		.loc 1 294 0
 214              		.cfi_startproc
 215 0000 90B5     		push	{r4, r7, lr}
 216              		.cfi_def_cfa_offset 12
 217              		.cfi_offset 4, -12
 218              		.cfi_offset 7, -8
 219              		.cfi_offset 14, -4
ARM GAS  C:\Users\msuro\AppData\Local\Temp\ccOjNMmK.s 			page 10


 220 0002 85B0     		sub	sp, sp, #20
 221              		.cfi_def_cfa_offset 32
 222 0004 00AF     		add	r7, sp, #0
 223              		.cfi_def_cfa_register 7
 224 0006 7860     		str	r0, [r7, #4]
 295:.\Generated_Source\PSoC4/BLE.c ****     CYBLE_API_RESULT_T apiResult = CYBLE_ERROR_INVALID_PARAMETER;
 225              		.loc 1 295 0
 226 0008 3B1C     		mov	r3, r7
 227 000a 0E33     		add	r3, r3, #14
 228 000c 0122     		mov	r2, #1
 229 000e 1A80     		strh	r2, [r3]
 296:.\Generated_Source\PSoC4/BLE.c ****     
 297:.\Generated_Source\PSoC4/BLE.c ****     /* Allocate RAM memory for stack */
 298:.\Generated_Source\PSoC4/BLE.c ****     CYBLE_CYALIGNED static uint8 cyBle_stackMemoryRam[CYBLE_STACK_RAM_SIZE];
 299:.\Generated_Source\PSoC4/BLE.c ****     
 300:.\Generated_Source\PSoC4/BLE.c ****     /* If not initialized then initialize all the required hardware and software */
 301:.\Generated_Source\PSoC4/BLE.c ****     if(cyBle_initVar == 0u)
 230              		.loc 1 301 0
 231 0010 1B4B     		ldr	r3, .L11
 232 0012 1B78     		ldrb	r3, [r3]
 233 0014 002B     		cmp	r3, #0
 234 0016 04D1     		bne	.L8
 302:.\Generated_Source\PSoC4/BLE.c ****     {
 303:.\Generated_Source\PSoC4/BLE.c ****         CyBle_Init();
 235              		.loc 1 303 0
 236 0018 FFF7FEFF 		bl	CyBle_Init
 304:.\Generated_Source\PSoC4/BLE.c ****         cyBle_initVar = 1u;
 237              		.loc 1 304 0
 238 001c 184B     		ldr	r3, .L11
 239 001e 0122     		mov	r2, #1
 240 0020 1A70     		strb	r2, [r3]
 241              	.L8:
 305:.\Generated_Source\PSoC4/BLE.c ****     }
 306:.\Generated_Source\PSoC4/BLE.c ****     
 307:.\Generated_Source\PSoC4/BLE.c ****     if(NULL != callbackFunc)
 242              		.loc 1 307 0
 243 0022 7B68     		ldr	r3, [r7, #4]
 244 0024 002B     		cmp	r3, #0
 245 0026 24D0     		beq	.L9
 308:.\Generated_Source\PSoC4/BLE.c ****     {
 309:.\Generated_Source\PSoC4/BLE.c ****         CyBle_ApplCallback = callbackFunc;
 246              		.loc 1 309 0
 247 0028 164B     		ldr	r3, .L11+4
 248 002a 7A68     		ldr	r2, [r7, #4]
 249 002c 1A60     		str	r2, [r3]
 310:.\Generated_Source\PSoC4/BLE.c **** 
 311:.\Generated_Source\PSoC4/BLE.c ****         apiResult = CyBle_StackInit(&CyBle_EventHandler, cyBle_stackMemoryRam, CYBLE_GATT_MTU);
 250              		.loc 1 311 0
 251 002e 3C1C     		mov	r4, r7
 252 0030 0E34     		add	r4, r4, #14
 253 0032 1549     		ldr	r1, .L11+8
 254 0034 154A     		ldr	r2, .L11+12
 255 0036 8023     		mov	r3, #128
 256 0038 9B00     		lsl	r3, r3, #2
 257 003a 081C     		mov	r0, r1
 258 003c 111C     		mov	r1, r2
 259 003e 1A1C     		mov	r2, r3
ARM GAS  C:\Users\msuro\AppData\Local\Temp\ccOjNMmK.s 			page 11


 260 0040 FFF7FEFF 		bl	CyBle_StackInit
 261 0044 031C     		mov	r3, r0
 262 0046 2380     		strh	r3, [r4]
 312:.\Generated_Source\PSoC4/BLE.c **** 
 313:.\Generated_Source\PSoC4/BLE.c ****         if(apiResult == CYBLE_ERROR_OK)
 263              		.loc 1 313 0
 264 0048 3B1C     		mov	r3, r7
 265 004a 0E33     		add	r3, r3, #14
 266 004c 1B88     		ldrh	r3, [r3]
 267 004e 002B     		cmp	r3, #0
 268 0050 0FD1     		bne	.L9
 314:.\Generated_Source\PSoC4/BLE.c ****         {
 315:.\Generated_Source\PSoC4/BLE.c ****             CyBle_SetState(CYBLE_STATE_INITIALIZING);
 269              		.loc 1 315 0
 270 0052 0F4B     		ldr	r3, .L11+16
 271 0054 0122     		mov	r2, #1
 272 0056 1A70     		strb	r2, [r3]
 316:.\Generated_Source\PSoC4/BLE.c ****             
 317:.\Generated_Source\PSoC4/BLE.c ****         #if (CYBLE_GATT_ROLE_CLIENT)
 318:.\Generated_Source\PSoC4/BLE.c ****             CyBle_SetClientState(CYBLE_CLIENT_STATE_DISCONNECTED);
 273              		.loc 1 318 0
 274 0058 0E4B     		ldr	r3, .L11+20
 275 005a 0822     		mov	r2, #8
 276 005c 1A70     		strb	r2, [r3]
 319:.\Generated_Source\PSoC4/BLE.c ****         #endif /* CYBLE_GATT_ROLE_CLIENT */
 320:.\Generated_Source\PSoC4/BLE.c ****             
 321:.\Generated_Source\PSoC4/BLE.c ****         #if(CYBLE_GATT_ROLE_SERVER)
 322:.\Generated_Source\PSoC4/BLE.c ****             apiResult = CyBle_GattsDbRegister(cyBle_gattDB, CYBLE_GATT_DB_INDEX_COUNT, CYBLE_GATT_D
 277              		.loc 1 322 0
 278 005e 3C1C     		mov	r4, r7
 279 0060 0E34     		add	r4, r4, #14
 280 0062 0D4B     		ldr	r3, .L11+24
 281 0064 181C     		mov	r0, r3
 282 0066 1C21     		mov	r1, #28
 283 0068 1622     		mov	r2, #22
 284 006a FFF7FEFF 		bl	CyBle_GattsDbRegister
 285 006e 031C     		mov	r3, r0
 286 0070 2380     		strh	r3, [r4]
 287              	.L9:
 323:.\Generated_Source\PSoC4/BLE.c ****         #endif /* CYBLE_GATT_ROLE_SERVER */
 324:.\Generated_Source\PSoC4/BLE.c ****         }
 325:.\Generated_Source\PSoC4/BLE.c ****     }
 326:.\Generated_Source\PSoC4/BLE.c **** 
 327:.\Generated_Source\PSoC4/BLE.c ****     return (apiResult);
 288              		.loc 1 327 0
 289 0072 3B1C     		mov	r3, r7
 290 0074 0E33     		add	r3, r3, #14
 291 0076 1B88     		ldrh	r3, [r3]
 328:.\Generated_Source\PSoC4/BLE.c **** }
 292              		.loc 1 328 0
 293 0078 181C     		mov	r0, r3
 294 007a BD46     		mov	sp, r7
 295 007c 05B0     		add	sp, sp, #20
 296              		@ sp needed
 297 007e 90BD     		pop	{r4, r7, pc}
 298              	.L12:
 299              		.align	2
ARM GAS  C:\Users\msuro\AppData\Local\Temp\ccOjNMmK.s 			page 12


 300              	.L11:
 301 0080 00000000 		.word	cyBle_initVar
 302 0084 00000000 		.word	CyBle_ApplCallback
 303 0088 00000000 		.word	CyBle_EventHandler
 304 008c 08000000 		.word	cyBle_stackMemoryRam.6119
 305 0090 00000000 		.word	cyBle_state
 306 0094 00000000 		.word	cyBle_clientState
 307 0098 00000000 		.word	cyBle_gattDB
 308              		.cfi_endproc
 309              	.LFE4:
 310              		.size	CyBle_Start, .-CyBle_Start
 311              		.section	.text.CyBle_Stop,"ax",%progbits
 312              		.align	2
 313              		.global	CyBle_Stop
 314              		.code	16
 315              		.thumb_func
 316              		.type	CyBle_Stop, %function
 317              	CyBle_Stop:
 318              	.LFB5:
 329:.\Generated_Source\PSoC4/BLE.c **** 
 330:.\Generated_Source\PSoC4/BLE.c **** 
 331:.\Generated_Source\PSoC4/BLE.c **** /******************************************************************************
 332:.\Generated_Source\PSoC4/BLE.c **** ##Function Name: CyBle_Stop
 333:.\Generated_Source\PSoC4/BLE.c **** *******************************************************************************
 334:.\Generated_Source\PSoC4/BLE.c **** 
 335:.\Generated_Source\PSoC4/BLE.c **** Summary:
 336:.\Generated_Source\PSoC4/BLE.c ****  This function stops any ongoing operation in the BLE Stack and forces the 
 337:.\Generated_Source\PSoC4/BLE.c ****  BLE Stack to shut down. The only function that can be called after calling
 338:.\Generated_Source\PSoC4/BLE.c ****  this function is CyBle_Start(). 
 339:.\Generated_Source\PSoC4/BLE.c **** 
 340:.\Generated_Source\PSoC4/BLE.c **** Parameters:
 341:.\Generated_Source\PSoC4/BLE.c ****  None
 342:.\Generated_Source\PSoC4/BLE.c **** 
 343:.\Generated_Source\PSoC4/BLE.c **** Return:
 344:.\Generated_Source\PSoC4/BLE.c ****  None
 345:.\Generated_Source\PSoC4/BLE.c **** 
 346:.\Generated_Source\PSoC4/BLE.c **** ******************************************************************************/
 347:.\Generated_Source\PSoC4/BLE.c **** void CyBle_Stop(void)
 348:.\Generated_Source\PSoC4/BLE.c **** {
 319              		.loc 1 348 0
 320              		.cfi_startproc
 321 0000 80B5     		push	{r7, lr}
 322              		.cfi_def_cfa_offset 8
 323              		.cfi_offset 7, -8
 324              		.cfi_offset 14, -4
 325 0002 00AF     		add	r7, sp, #0
 326              		.cfi_def_cfa_register 7
 349:.\Generated_Source\PSoC4/BLE.c ****     CyBle_Shutdown(); /* stop all ongoing activities */
 327              		.loc 1 349 0
 328 0004 FFF7FEFF 		bl	CyBle_Shutdown
 350:.\Generated_Source\PSoC4/BLE.c ****     CyBle_ProcessEvents(); /* process all pending events */
 329              		.loc 1 350 0
 330 0008 FFF7FEFF 		bl	CyBle_ProcessEvents
 351:.\Generated_Source\PSoC4/BLE.c ****     CyBle_SetState(CYBLE_STATE_STOPPED);
 331              		.loc 1 351 0
 332 000c 024B     		ldr	r3, .L14
 333 000e 0022     		mov	r2, #0
ARM GAS  C:\Users\msuro\AppData\Local\Temp\ccOjNMmK.s 			page 13


 334 0010 1A70     		strb	r2, [r3]
 352:.\Generated_Source\PSoC4/BLE.c **** }
 335              		.loc 1 352 0
 336 0012 BD46     		mov	sp, r7
 337              		@ sp needed
 338 0014 80BD     		pop	{r7, pc}
 339              	.L15:
 340 0016 C046     		.align	2
 341              	.L14:
 342 0018 00000000 		.word	cyBle_state
 343              		.cfi_endproc
 344              	.LFE5:
 345              		.size	CyBle_Stop, .-CyBle_Stop
 346              		.section	.text.CyBle_StoreBondingData,"ax",%progbits
 347              		.align	2
 348              		.global	CyBle_StoreBondingData
 349              		.code	16
 350              		.thumb_func
 351              		.type	CyBle_StoreBondingData, %function
 352              	CyBle_StoreBondingData:
 353              	.LFB6:
 353:.\Generated_Source\PSoC4/BLE.c **** 
 354:.\Generated_Source\PSoC4/BLE.c **** 
 355:.\Generated_Source\PSoC4/BLE.c **** #if((CYBLE_GAP_ROLE_PERIPHERAL || CYBLE_GAP_ROLE_CENTRAL) && (CYBLE_BONDING_REQUIREMENT == CYBLE_BO
 356:.\Generated_Source\PSoC4/BLE.c **** 
 357:.\Generated_Source\PSoC4/BLE.c ****     
 358:.\Generated_Source\PSoC4/BLE.c **** /******************************************************************************
 359:.\Generated_Source\PSoC4/BLE.c **** ##Function Name: CyBle_StoreBondingData
 360:.\Generated_Source\PSoC4/BLE.c **** *******************************************************************************
 361:.\Generated_Source\PSoC4/BLE.c **** 
 362:.\Generated_Source\PSoC4/BLE.c **** Summary:
 363:.\Generated_Source\PSoC4/BLE.c ****  This function writes the new bonding data from RAM to the dedicated Flash 
 364:.\Generated_Source\PSoC4/BLE.c ****  location as defined by the component. It performs data comparing between RAM
 365:.\Generated_Source\PSoC4/BLE.c ****  and Flash before writing to Flash. If there is no change between RAM and Flash
 366:.\Generated_Source\PSoC4/BLE.c ****  data, then no write is performed. It writes only one flash row in one call.
 367:.\Generated_Source\PSoC4/BLE.c ****  Application should keep calling this function till API return CYBLE_ERROR_OK. 
 368:.\Generated_Source\PSoC4/BLE.c ****  This function is available only when Bonding requirement is selected in
 369:.\Generated_Source\PSoC4/BLE.c ****  Security settings.    
 370:.\Generated_Source\PSoC4/BLE.c ****     
 371:.\Generated_Source\PSoC4/BLE.c **** Parameters:
 372:.\Generated_Source\PSoC4/BLE.c ****  isForceWrite:  If value is set to 0, then stack will check if flash write 
 373:.\Generated_Source\PSoC4/BLE.c ****                 is permissible. 
 374:.\Generated_Source\PSoC4/BLE.c ****  
 375:.\Generated_Source\PSoC4/BLE.c **** Return:
 376:.\Generated_Source\PSoC4/BLE.c ****  Return value is of type CYBLE_API_RESULT_T.
 377:.\Generated_Source\PSoC4/BLE.c ****  * CYBLE_ERROR_OK - On successful operation
 378:.\Generated_Source\PSoC4/BLE.c ****  * CYBLE_ERROR_FLASH_WRITE_NOT_PERMITED - Flash Write is not complete
 379:.\Generated_Source\PSoC4/BLE.c ****    
 380:.\Generated_Source\PSoC4/BLE.c ****  Side Effects:
 381:.\Generated_Source\PSoC4/BLE.c ****   This API will automatically modify the clock settings for the device.
 382:.\Generated_Source\PSoC4/BLE.c ****   Writing to flash requires changes to be done to the IMO (set to 48 MHz)
 383:.\Generated_Source\PSoC4/BLE.c ****   and HFCLK (source set to IMO) settings. The configuration is restored before
 384:.\Generated_Source\PSoC4/BLE.c ****   returning. This will impact the operation of most of the hardware in the
 385:.\Generated_Source\PSoC4/BLE.c ****   device.
 386:.\Generated_Source\PSoC4/BLE.c **** 
 387:.\Generated_Source\PSoC4/BLE.c **** ******************************************************************************/
 388:.\Generated_Source\PSoC4/BLE.c **** CYBLE_API_RESULT_T CyBle_StoreBondingData(uint8 isForceWrite)
ARM GAS  C:\Users\msuro\AppData\Local\Temp\ccOjNMmK.s 			page 14


 389:.\Generated_Source\PSoC4/BLE.c **** {
 354              		.loc 1 389 0
 355              		.cfi_startproc
 356 0000 90B5     		push	{r4, r7, lr}
 357              		.cfi_def_cfa_offset 12
 358              		.cfi_offset 4, -12
 359              		.cfi_offset 7, -8
 360              		.cfi_offset 14, -4
 361 0002 85B0     		sub	sp, sp, #20
 362              		.cfi_def_cfa_offset 32
 363 0004 00AF     		add	r7, sp, #0
 364              		.cfi_def_cfa_register 7
 365 0006 021C     		mov	r2, r0
 366 0008 FB1D     		add	r3, r7, #7
 367 000a 1A70     		strb	r2, [r3]
 390:.\Generated_Source\PSoC4/BLE.c ****     CYBLE_API_RESULT_T apiResult = CYBLE_ERROR_OK;
 368              		.loc 1 390 0
 369 000c 3B1C     		mov	r3, r7
 370 000e 0E33     		add	r3, r3, #14
 371 0010 0022     		mov	r2, #0
 372 0012 1A80     		strh	r2, [r3]
 391:.\Generated_Source\PSoC4/BLE.c ****     
 392:.\Generated_Source\PSoC4/BLE.c ****     /* Store Stack data */
 393:.\Generated_Source\PSoC4/BLE.c ****     if((cyBle_pendingFlashWrite & CYBLE_PENDING_STACK_FLASH_WRITE_BIT) != 0u)
 373              		.loc 1 393 0
 374 0014 2D4B     		ldr	r3, .L21
 375 0016 1B78     		ldrb	r3, [r3]
 376 0018 1A1C     		mov	r2, r3
 377 001a 0123     		mov	r3, #1
 378 001c 1340     		and	r3, r2
 379 001e 1ED0     		beq	.L17
 394:.\Generated_Source\PSoC4/BLE.c ****     {
 395:.\Generated_Source\PSoC4/BLE.c ****         apiResult = CyBle_StoreStackData(isForceWrite);
 380              		.loc 1 395 0
 381 0020 3C1C     		mov	r4, r7
 382 0022 0E34     		add	r4, r4, #14
 383 0024 FB1D     		add	r3, r7, #7
 384 0026 1B78     		ldrb	r3, [r3]
 385 0028 181C     		mov	r0, r3
 386 002a FFF7FEFF 		bl	CyBle_StoreStackData
 387 002e 031C     		mov	r3, r0
 388 0030 2380     		strh	r3, [r4]
 396:.\Generated_Source\PSoC4/BLE.c ****         if(apiResult == CYBLE_ERROR_OK)
 389              		.loc 1 396 0
 390 0032 3B1C     		mov	r3, r7
 391 0034 0E33     		add	r3, r3, #14
 392 0036 1B88     		ldrh	r3, [r3]
 393 0038 002B     		cmp	r3, #0
 394 003a 10D1     		bne	.L17
 397:.\Generated_Source\PSoC4/BLE.c ****         {
 398:.\Generated_Source\PSoC4/BLE.c ****             cyBle_pendingFlashWrite &= (uint8)~CYBLE_PENDING_STACK_FLASH_WRITE_BIT;
 395              		.loc 1 398 0
 396 003c 234B     		ldr	r3, .L21
 397 003e 1B78     		ldrb	r3, [r3]
 398 0040 0122     		mov	r2, #1
 399 0042 9343     		bic	r3, r2
 400 0044 DAB2     		uxtb	r2, r3
ARM GAS  C:\Users\msuro\AppData\Local\Temp\ccOjNMmK.s 			page 15


 401 0046 214B     		ldr	r3, .L21
 402 0048 1A70     		strb	r2, [r3]
 399:.\Generated_Source\PSoC4/BLE.c ****             /* Change apiResult if there are more pending data to store */
 400:.\Generated_Source\PSoC4/BLE.c ****             if((cyBle_pendingFlashWrite & CYBLE_PENDING_CCCD_FLASH_WRITE_BIT) != 0u)
 403              		.loc 1 400 0
 404 004a 204B     		ldr	r3, .L21
 405 004c 1B78     		ldrb	r3, [r3]
 406 004e 1A1C     		mov	r2, r3
 407 0050 0223     		mov	r3, #2
 408 0052 1340     		and	r3, r2
 409 0054 03D0     		beq	.L17
 401:.\Generated_Source\PSoC4/BLE.c ****             {
 402:.\Generated_Source\PSoC4/BLE.c ****                 apiResult = CYBLE_ERROR_FLASH_WRITE_NOT_PERMITED;
 410              		.loc 1 402 0
 411 0056 3B1C     		mov	r3, r7
 412 0058 0E33     		add	r3, r3, #14
 413 005a 2822     		mov	r2, #40
 414 005c 1A80     		strh	r2, [r3]
 415              	.L17:
 403:.\Generated_Source\PSoC4/BLE.c ****             }
 404:.\Generated_Source\PSoC4/BLE.c ****         }
 405:.\Generated_Source\PSoC4/BLE.c ****     }
 406:.\Generated_Source\PSoC4/BLE.c **** #if(CYBLE_GATT_DB_CCCD_COUNT != 0u)
 407:.\Generated_Source\PSoC4/BLE.c ****     /* Store CCCD values */
 408:.\Generated_Source\PSoC4/BLE.c ****     if( ((apiResult == CYBLE_ERROR_OK) || (isForceWrite != 0u)) && 
 416              		.loc 1 408 0
 417 005e 3B1C     		mov	r3, r7
 418 0060 0E33     		add	r3, r3, #14
 419 0062 1B88     		ldrh	r3, [r3]
 420 0064 002B     		cmp	r3, #0
 421 0066 03D0     		beq	.L18
 422              		.loc 1 408 0 is_stmt 0 discriminator 2
 423 0068 FB1D     		add	r3, r7, #7
 424 006a 1B78     		ldrb	r3, [r3]
 425 006c 002B     		cmp	r3, #0
 426 006e 26D0     		beq	.L19
 427              	.L18:
 409:.\Generated_Source\PSoC4/BLE.c ****         ((cyBle_pendingFlashWrite & CYBLE_PENDING_CCCD_FLASH_WRITE_BIT) != 0u) &&
 428              		.loc 1 409 0 is_stmt 1 discriminator 1
 429 0070 164B     		ldr	r3, .L21
 430 0072 1B78     		ldrb	r3, [r3]
 431 0074 1A1C     		mov	r2, r3
 432 0076 0223     		mov	r3, #2
 433 0078 1340     		and	r3, r2
 408:.\Generated_Source\PSoC4/BLE.c ****     if( ((apiResult == CYBLE_ERROR_OK) || (isForceWrite != 0u)) && 
 434              		.loc 1 408 0 discriminator 1
 435 007a 20D0     		beq	.L19
 410:.\Generated_Source\PSoC4/BLE.c ****         (cyBle_connHandle.bdHandle <= CYBLE_GAP_MAX_BONDED_DEVICE))
 436              		.loc 1 410 0
 437 007c 144B     		ldr	r3, .L21+4
 438 007e 1B78     		ldrb	r3, [r3]
 409:.\Generated_Source\PSoC4/BLE.c ****         ((cyBle_pendingFlashWrite & CYBLE_PENDING_CCCD_FLASH_WRITE_BIT) != 0u) &&
 439              		.loc 1 409 0
 440 0080 042B     		cmp	r3, #4
 441 0082 1CD8     		bhi	.L19
 411:.\Generated_Source\PSoC4/BLE.c ****     {
 412:.\Generated_Source\PSoC4/BLE.c ****         apiResult = CyBle_StoreAppData(cyBle_attValuesCCCD, cyBle_attValuesCCCDFlashMemory[cyBle_co
ARM GAS  C:\Users\msuro\AppData\Local\Temp\ccOjNMmK.s 			page 16


 442              		.loc 1 412 0
 443 0084 124B     		ldr	r3, .L21+4
 444 0086 1B78     		ldrb	r3, [r3]
 445 0088 5A00     		lsl	r2, r3, #1
 446 008a 124B     		ldr	r3, .L21+8
 447 008c D218     		add	r2, r2, r3
 448 008e 3C1C     		mov	r4, r7
 449 0090 0E34     		add	r4, r4, #14
 450 0092 1149     		ldr	r1, .L21+12
 451 0094 FB1D     		add	r3, r7, #7
 452 0096 1B78     		ldrb	r3, [r3]
 453 0098 081C     		mov	r0, r1
 454 009a 111C     		mov	r1, r2
 455 009c 0222     		mov	r2, #2
 456 009e FFF7FEFF 		bl	CyBle_StoreAppData
 457 00a2 031C     		mov	r3, r0
 458 00a4 2380     		strh	r3, [r4]
 413:.\Generated_Source\PSoC4/BLE.c ****                                        CYBLE_GATT_DB_CCCD_COUNT, isForceWrite);
 414:.\Generated_Source\PSoC4/BLE.c ****         if(apiResult == CYBLE_ERROR_OK)
 459              		.loc 1 414 0
 460 00a6 3B1C     		mov	r3, r7
 461 00a8 0E33     		add	r3, r3, #14
 462 00aa 1B88     		ldrh	r3, [r3]
 463 00ac 002B     		cmp	r3, #0
 464 00ae 06D1     		bne	.L19
 415:.\Generated_Source\PSoC4/BLE.c ****         {
 416:.\Generated_Source\PSoC4/BLE.c ****             cyBle_pendingFlashWrite &= (uint8)~CYBLE_PENDING_CCCD_FLASH_WRITE_BIT;
 465              		.loc 1 416 0
 466 00b0 064B     		ldr	r3, .L21
 467 00b2 1B78     		ldrb	r3, [r3]
 468 00b4 0222     		mov	r2, #2
 469 00b6 9343     		bic	r3, r2
 470 00b8 DAB2     		uxtb	r2, r3
 471 00ba 044B     		ldr	r3, .L21
 472 00bc 1A70     		strb	r2, [r3]
 473              	.L19:
 417:.\Generated_Source\PSoC4/BLE.c ****         }
 418:.\Generated_Source\PSoC4/BLE.c ****     }
 419:.\Generated_Source\PSoC4/BLE.c **** #endif /* CYBLE_GATT_DB_CCCD_COUNT != 0u */
 420:.\Generated_Source\PSoC4/BLE.c ****     return(apiResult);
 474              		.loc 1 420 0
 475 00be 3B1C     		mov	r3, r7
 476 00c0 0E33     		add	r3, r3, #14
 477 00c2 1B88     		ldrh	r3, [r3]
 421:.\Generated_Source\PSoC4/BLE.c **** }
 478              		.loc 1 421 0
 479 00c4 181C     		mov	r0, r3
 480 00c6 BD46     		mov	sp, r7
 481 00c8 05B0     		add	sp, sp, #20
 482              		@ sp needed
 483 00ca 90BD     		pop	{r4, r7, pc}
 484              	.L22:
 485              		.align	2
 486              	.L21:
 487 00cc 00000000 		.word	cyBle_pendingFlashWrite
 488 00d0 00000000 		.word	cyBle_connHandle
 489 00d4 00000000 		.word	cyBle_attValuesCCCDFlashMemory
ARM GAS  C:\Users\msuro\AppData\Local\Temp\ccOjNMmK.s 			page 17


 490 00d8 00000000 		.word	cyBle_attValuesCCCD
 491              		.cfi_endproc
 492              	.LFE6:
 493              		.size	CyBle_StoreBondingData, .-CyBle_StoreBondingData
 494              		.section	.text.CyBle_GapcStartScan,"ax",%progbits
 495              		.align	2
 496              		.global	CyBle_GapcStartScan
 497              		.code	16
 498              		.thumb_func
 499              		.type	CyBle_GapcStartScan, %function
 500              	CyBle_GapcStartScan:
 501              	.LFB7:
 422:.\Generated_Source\PSoC4/BLE.c **** 
 423:.\Generated_Source\PSoC4/BLE.c **** 
 424:.\Generated_Source\PSoC4/BLE.c **** #endif /* (CYBLE_GAP_ROLE_PERIPHERAL || CYBLE_GAP_ROLE_CENTRAL) && (CYBLE_BONDING_REQUIREMENT == CY
 425:.\Generated_Source\PSoC4/BLE.c **** 
 426:.\Generated_Source\PSoC4/BLE.c **** 
 427:.\Generated_Source\PSoC4/BLE.c **** #if(CYBLE_GAP_ROLE_PERIPHERAL || CYBLE_GAP_ROLE_BROADCASTER)
 428:.\Generated_Source\PSoC4/BLE.c **** 
 429:.\Generated_Source\PSoC4/BLE.c ****     /******************************************************************************
 430:.\Generated_Source\PSoC4/BLE.c ****     ##Function Name: CyBle_GappStartAdvertisement
 431:.\Generated_Source\PSoC4/BLE.c ****     *******************************************************************************
 432:.\Generated_Source\PSoC4/BLE.c ****     
 433:.\Generated_Source\PSoC4/BLE.c ****     Summary:
 434:.\Generated_Source\PSoC4/BLE.c ****      This function is used to start the advertisement using the advertisement data 
 435:.\Generated_Source\PSoC4/BLE.c ****      set in the component customizer's GUI. After invoking this API, the device 
 436:.\Generated_Source\PSoC4/BLE.c ****      will be available for connection by the devices configured for GAP central 
 437:.\Generated_Source\PSoC4/BLE.c ****      role. It is only included if the device is configured for GAP Peripheral or 
 438:.\Generated_Source\PSoC4/BLE.c ****      GAP Peripheral + Central role.
 439:.\Generated_Source\PSoC4/BLE.c ****      
 440:.\Generated_Source\PSoC4/BLE.c ****      On start of advertisement, GAP Peripheral receives the
 441:.\Generated_Source\PSoC4/BLE.c ****      CYBLE_EVT_GAPP_ADVERTISEMENT_START_STOP event. The following events are 
 442:.\Generated_Source\PSoC4/BLE.c ****      possible on invoking this function:
 443:.\Generated_Source\PSoC4/BLE.c ****      
 444:.\Generated_Source\PSoC4/BLE.c ****      * CYBLE_EVT_GAP_DEVICE_CONNECTED: If the device connects to remote GAP 
 445:.\Generated_Source\PSoC4/BLE.c ****                                          Central device
 446:.\Generated_Source\PSoC4/BLE.c ****      * CYBLE_EVT_TIMEOUT: If no device in GAP Central mode connects to this 
 447:.\Generated_Source\PSoC4/BLE.c ****                           device within the specified timeout limit. Stack 
 448:.\Generated_Source\PSoC4/BLE.c ****                           automatically initiate stop advertising when Slow 
 449:.\Generated_Source\PSoC4/BLE.c ****                           advertising was initiated, or starts Slow advertising
 450:.\Generated_Source\PSoC4/BLE.c ****                           after Fast advertising timeout occur.
 451:.\Generated_Source\PSoC4/BLE.c ****      * CYBLE_EVT_GAPP_ADVERTISEMENT_START_STOP: If device started or stopped
 452:.\Generated_Source\PSoC4/BLE.c ****                                                   advertising. Use CyBle_GetState()
 453:.\Generated_Source\PSoC4/BLE.c ****                                                   to determine the state. Sequential 
 454:.\Generated_Source\PSoC4/BLE.c ****                                                   advertising could be started when
 455:.\Generated_Source\PSoC4/BLE.c ****                                                   CYBLE_STATE_DISCONNECTED state is
 456:.\Generated_Source\PSoC4/BLE.c ****                                                   returned.
 457:.\Generated_Source\PSoC4/BLE.c **** 
 458:.\Generated_Source\PSoC4/BLE.c ****     Parameters:
 459:.\Generated_Source\PSoC4/BLE.c ****      uint8 advertisingIntervalType: Fast or slow advertising interval with timings
 460:.\Generated_Source\PSoC4/BLE.c ****                                     entered in Advertising settings section of the
 461:.\Generated_Source\PSoC4/BLE.c ****                                     customizer.
 462:.\Generated_Source\PSoC4/BLE.c ****      * CYBLE_ADVERTISING_FAST   0x00u
 463:.\Generated_Source\PSoC4/BLE.c ****      * CYBLE_ADVERTISING_SLOW   0x01u
 464:.\Generated_Source\PSoC4/BLE.c ****      * CYBLE_ADVERTISING_CUSTOM 0x02u
 465:.\Generated_Source\PSoC4/BLE.c ****     
 466:.\Generated_Source\PSoC4/BLE.c ****     Return:
ARM GAS  C:\Users\msuro\AppData\Local\Temp\ccOjNMmK.s 			page 18


 467:.\Generated_Source\PSoC4/BLE.c ****      CYBLE_API_RESULT_T : Return value indicates if the function succeeded or
 468:.\Generated_Source\PSoC4/BLE.c ****      failed. Following are the possible error codes.
 469:.\Generated_Source\PSoC4/BLE.c ****      <table>
 470:.\Generated_Source\PSoC4/BLE.c ****       Errors codes                        Description
 471:.\Generated_Source\PSoC4/BLE.c ****       ------------                        -----------
 472:.\Generated_Source\PSoC4/BLE.c ****       CYBLE_ERROR_OK                      On successful operation.
 473:.\Generated_Source\PSoC4/BLE.c ****       CYBLE_ERROR_INVALID_PARAMETER       On passing an invalid parameter.
 474:.\Generated_Source\PSoC4/BLE.c ****      </table>
 475:.\Generated_Source\PSoC4/BLE.c ****     
 476:.\Generated_Source\PSoC4/BLE.c ****     ******************************************************************************/
 477:.\Generated_Source\PSoC4/BLE.c ****     CYBLE_API_RESULT_T CyBle_GappStartAdvertisement(uint8 advertisingIntervalType)
 478:.\Generated_Source\PSoC4/BLE.c ****     {
 479:.\Generated_Source\PSoC4/BLE.c ****         CYBLE_API_RESULT_T apiResult;
 480:.\Generated_Source\PSoC4/BLE.c ****         
 481:.\Generated_Source\PSoC4/BLE.c ****         if((CYBLE_STATE_DISCONNECTED == CyBle_GetState()) && ((cyBle_eventHandlerFlag & CYBLE_START
 482:.\Generated_Source\PSoC4/BLE.c ****         {   
 483:.\Generated_Source\PSoC4/BLE.c ****             if(advertisingIntervalType == CYBLE_ADVERTISING_FAST)
 484:.\Generated_Source\PSoC4/BLE.c ****             {
 485:.\Generated_Source\PSoC4/BLE.c ****                 cyBle_discoveryModeInfo.advTo = CYBLE_FAST_ADV_TIMEOUT;
 486:.\Generated_Source\PSoC4/BLE.c ****                 cyBle_discoveryModeInfo.advParam->advIntvMin = CYBLE_FAST_ADV_INT_MIN;
 487:.\Generated_Source\PSoC4/BLE.c ****                 cyBle_discoveryModeInfo.advParam->advIntvMax = CYBLE_FAST_ADV_INT_MAX;
 488:.\Generated_Source\PSoC4/BLE.c ****             }
 489:.\Generated_Source\PSoC4/BLE.c ****             else if(advertisingIntervalType == CYBLE_ADVERTISING_SLOW)
 490:.\Generated_Source\PSoC4/BLE.c ****             {
 491:.\Generated_Source\PSoC4/BLE.c ****                 cyBle_discoveryModeInfo.advTo = CYBLE_SLOW_ADV_TIMEOUT;
 492:.\Generated_Source\PSoC4/BLE.c ****                 cyBle_discoveryModeInfo.advParam->advIntvMin = CYBLE_SLOW_ADV_INT_MIN;
 493:.\Generated_Source\PSoC4/BLE.c ****                 cyBle_discoveryModeInfo.advParam->advIntvMax = CYBLE_SLOW_ADV_INT_MAX;
 494:.\Generated_Source\PSoC4/BLE.c ****             }       
 495:.\Generated_Source\PSoC4/BLE.c ****             else /* Do not update advertising intervals */
 496:.\Generated_Source\PSoC4/BLE.c ****             {
 497:.\Generated_Source\PSoC4/BLE.c ****             }
 498:.\Generated_Source\PSoC4/BLE.c ****             cyBle_advertisingIntervalType = advertisingIntervalType;
 499:.\Generated_Source\PSoC4/BLE.c ****             apiResult = CyBle_GappEnterDiscoveryMode(&cyBle_discoveryModeInfo);
 500:.\Generated_Source\PSoC4/BLE.c ****         
 501:.\Generated_Source\PSoC4/BLE.c ****             if(CYBLE_ERROR_OK == apiResult)
 502:.\Generated_Source\PSoC4/BLE.c ****             {
 503:.\Generated_Source\PSoC4/BLE.c ****                 cyBle_eventHandlerFlag |= CYBLE_START_FLAG;
 504:.\Generated_Source\PSoC4/BLE.c ****             }
 505:.\Generated_Source\PSoC4/BLE.c ****         }
 506:.\Generated_Source\PSoC4/BLE.c ****         else
 507:.\Generated_Source\PSoC4/BLE.c ****         {
 508:.\Generated_Source\PSoC4/BLE.c ****             apiResult = CYBLE_ERROR_INVALID_STATE;
 509:.\Generated_Source\PSoC4/BLE.c ****         }
 510:.\Generated_Source\PSoC4/BLE.c **** 
 511:.\Generated_Source\PSoC4/BLE.c ****         return (apiResult);
 512:.\Generated_Source\PSoC4/BLE.c ****     }
 513:.\Generated_Source\PSoC4/BLE.c **** 
 514:.\Generated_Source\PSoC4/BLE.c ****     
 515:.\Generated_Source\PSoC4/BLE.c ****     /******************************************************************************
 516:.\Generated_Source\PSoC4/BLE.c ****     ##Function Name: CyBle_GappStopAdvertisement
 517:.\Generated_Source\PSoC4/BLE.c ****     *******************************************************************************
 518:.\Generated_Source\PSoC4/BLE.c ****     
 519:.\Generated_Source\PSoC4/BLE.c ****      Summary:
 520:.\Generated_Source\PSoC4/BLE.c ****       This function can be used to exit from discovery mode. After the execution 
 521:.\Generated_Source\PSoC4/BLE.c ****       of this function, there will no longer be any advertisements. On stopping 
 522:.\Generated_Source\PSoC4/BLE.c ****       advertising, GAP Peripheral receives CYBLE_EVT_GAPP_ADVERTISEMENT_START_STOP
 523:.\Generated_Source\PSoC4/BLE.c ****       event. It is expected that the application layer tracks the function call 
ARM GAS  C:\Users\msuro\AppData\Local\Temp\ccOjNMmK.s 			page 19


 524:.\Generated_Source\PSoC4/BLE.c ****       performed before occurrence of this event as this event can occur on making 
 525:.\Generated_Source\PSoC4/BLE.c ****       a call to Cy_BleGappStartAdvertisement(), CyBle_GappEnterDiscoveryMode(), 
 526:.\Generated_Source\PSoC4/BLE.c ****       or CyBle_GappStartAdvertisement() functions as well.
 527:.\Generated_Source\PSoC4/BLE.c ****       
 528:.\Generated_Source\PSoC4/BLE.c ****       The following event occurs on invoking this function:
 529:.\Generated_Source\PSoC4/BLE.c ****       * CYBLE_EVT_GAPP_ADVERTISEMENT_START_STOP
 530:.\Generated_Source\PSoC4/BLE.c ****     
 531:.\Generated_Source\PSoC4/BLE.c ****      Parameters:
 532:.\Generated_Source\PSoC4/BLE.c ****       None
 533:.\Generated_Source\PSoC4/BLE.c ****     
 534:.\Generated_Source\PSoC4/BLE.c ****      Return:
 535:.\Generated_Source\PSoC4/BLE.c ****       None
 536:.\Generated_Source\PSoC4/BLE.c ****     
 537:.\Generated_Source\PSoC4/BLE.c ****     ******************************************************************************/
 538:.\Generated_Source\PSoC4/BLE.c ****     void CyBle_GappStopAdvertisement(void)
 539:.\Generated_Source\PSoC4/BLE.c ****     {
 540:.\Generated_Source\PSoC4/BLE.c ****         CyBle_GappExitDiscoveryMode();
 541:.\Generated_Source\PSoC4/BLE.c ****         cyBle_eventHandlerFlag |= CYBLE_STOP_FLAG;
 542:.\Generated_Source\PSoC4/BLE.c ****     }
 543:.\Generated_Source\PSoC4/BLE.c ****     
 544:.\Generated_Source\PSoC4/BLE.c ****     
 545:.\Generated_Source\PSoC4/BLE.c ****     /******************************************************************************
 546:.\Generated_Source\PSoC4/BLE.c ****     ##Function Name: CyBle_ChangeAdDeviceAddress
 547:.\Generated_Source\PSoC4/BLE.c ****     *******************************************************************************
 548:.\Generated_Source\PSoC4/BLE.c **** 
 549:.\Generated_Source\PSoC4/BLE.c ****     Summary:
 550:.\Generated_Source\PSoC4/BLE.c ****      This API is used to set the Bluetooth device address into the advertisement 
 551:.\Generated_Source\PSoC4/BLE.c ****      or scan response data structure.
 552:.\Generated_Source\PSoC4/BLE.c **** 
 553:.\Generated_Source\PSoC4/BLE.c ****     Parameters:
 554:.\Generated_Source\PSoC4/BLE.c ****      bdAddr: Bluetooth Device address. The variable is of type CYBLE_GAP_BD_ADDR_T
 555:.\Generated_Source\PSoC4/BLE.c ****      uint8 dest: 0 - avrevtisement structure, not zero value selects scan response
 556:.\Generated_Source\PSoC4/BLE.c ****                  structure.
 557:.\Generated_Source\PSoC4/BLE.c **** 
 558:.\Generated_Source\PSoC4/BLE.c ****     Return:
 559:.\Generated_Source\PSoC4/BLE.c ****      None
 560:.\Generated_Source\PSoC4/BLE.c ****  
 561:.\Generated_Source\PSoC4/BLE.c ****     ******************************************************************************/
 562:.\Generated_Source\PSoC4/BLE.c ****     void CyBle_ChangeAdDeviceAddress(const CYBLE_GAP_BD_ADDR_T* bdAddr, uint8 dest)
 563:.\Generated_Source\PSoC4/BLE.c ****     {
 564:.\Generated_Source\PSoC4/BLE.c ****         uint8 i;
 565:.\Generated_Source\PSoC4/BLE.c ****         uint8 *destBuffer = NULL;
 566:.\Generated_Source\PSoC4/BLE.c ****         
 567:.\Generated_Source\PSoC4/BLE.c ****         if(dest == 0u)      /* Destination - advertising structure */
 568:.\Generated_Source\PSoC4/BLE.c ****         {
 569:.\Generated_Source\PSoC4/BLE.c ****             #ifdef CYBLE_ADV_PKT_INDEX_BLUETOOTH_DEVICE_ADDRESS
 570:.\Generated_Source\PSoC4/BLE.c ****                 destBuffer = &cyBle_discoveryData.advData[CYBLE_ADV_PKT_INDEX_BLUETOOTH_DEVICE_ADDR
 571:.\Generated_Source\PSoC4/BLE.c ****             #endif /* CYBLE_ADV_PKT_INDEX_BLUETOOTH_DEVICE_ADDRESS */
 572:.\Generated_Source\PSoC4/BLE.c ****         }
 573:.\Generated_Source\PSoC4/BLE.c ****         else                /* Destination - scan response structure */
 574:.\Generated_Source\PSoC4/BLE.c ****         {
 575:.\Generated_Source\PSoC4/BLE.c ****             #ifdef CYBLE_SCN_PKT_INDEX_BLUETOOTH_DEVICE_ADDRESS
 576:.\Generated_Source\PSoC4/BLE.c ****                 destBuffer = &cyBle_scanRspData.scanRspData[CYBLE_SCN_PKT_INDEX_BLUETOOTH_DEVICE_AD
 577:.\Generated_Source\PSoC4/BLE.c ****             #endif /* CYBLE_SCN_PKT_INDEX_BLUETOOTH_DEVICE_ADDRESS */    
 578:.\Generated_Source\PSoC4/BLE.c ****         }
 579:.\Generated_Source\PSoC4/BLE.c ****         
 580:.\Generated_Source\PSoC4/BLE.c ****         if(destBuffer != NULL)
ARM GAS  C:\Users\msuro\AppData\Local\Temp\ccOjNMmK.s 			page 20


 581:.\Generated_Source\PSoC4/BLE.c ****         {
 582:.\Generated_Source\PSoC4/BLE.c ****             /* Update Device Address type */
 583:.\Generated_Source\PSoC4/BLE.c ****             destBuffer[0u] = bdAddr->type;
 584:.\Generated_Source\PSoC4/BLE.c ****             
 585:.\Generated_Source\PSoC4/BLE.c ****             for(i = 0; i < CYBLE_GAP_BD_ADDR_SIZE; i++)
 586:.\Generated_Source\PSoC4/BLE.c ****             {
 587:.\Generated_Source\PSoC4/BLE.c ****                 destBuffer[i + 1u] = bdAddr->bdAddr[i];
 588:.\Generated_Source\PSoC4/BLE.c ****             }
 589:.\Generated_Source\PSoC4/BLE.c ****         }
 590:.\Generated_Source\PSoC4/BLE.c ****     }
 591:.\Generated_Source\PSoC4/BLE.c ****   
 592:.\Generated_Source\PSoC4/BLE.c **** #endif /* CYBLE_GAP_ROLE_PERIPHERAL || CYBLE_GAP_ROLE_BROADCASTER */
 593:.\Generated_Source\PSoC4/BLE.c **** 
 594:.\Generated_Source\PSoC4/BLE.c **** 
 595:.\Generated_Source\PSoC4/BLE.c **** #if(CYBLE_GAP_ROLE_CENTRAL || CYBLE_GAP_ROLE_OBSERVER)
 596:.\Generated_Source\PSoC4/BLE.c **** 
 597:.\Generated_Source\PSoC4/BLE.c ****     /******************************************************************************
 598:.\Generated_Source\PSoC4/BLE.c ****     ##Function Name: CyBle_GapcStartScan
 599:.\Generated_Source\PSoC4/BLE.c ****     *******************************************************************************
 600:.\Generated_Source\PSoC4/BLE.c ****     
 601:.\Generated_Source\PSoC4/BLE.c ****      Summary:
 602:.\Generated_Source\PSoC4/BLE.c ****       This function is used for discovering GAP peripheral devices that are 
 603:.\Generated_Source\PSoC4/BLE.c ****       available for connection. It performs the scanning routine using the 
 604:.\Generated_Source\PSoC4/BLE.c ****       parameters entered in the component's customizer.
 605:.\Generated_Source\PSoC4/BLE.c ****       
 606:.\Generated_Source\PSoC4/BLE.c ****       As soon as the discovery operation starts, CYBLE_EVT_GAPC_SCAN_START_STOP 
 607:.\Generated_Source\PSoC4/BLE.c ****       event is generated. The CYBLE_EVT_GAPC_SCAN_PROGRESS_RESULT event is 
 608:.\Generated_Source\PSoC4/BLE.c ****       generated when a GAP peripheral device is located. There are three discovery
 609:.\Generated_Source\PSoC4/BLE.c ****       procedures can be selected in the customizer's GUI:
 610:.\Generated_Source\PSoC4/BLE.c ****       
 611:.\Generated_Source\PSoC4/BLE.c ****       * Observation procedure: A device performing the observer role receives only
 612:.\Generated_Source\PSoC4/BLE.c ****                                advertisement data from devices irrespective of 
 613:.\Generated_Source\PSoC4/BLE.c ****                                their discoverable mode settings. Advertisement 
 614:.\Generated_Source\PSoC4/BLE.c ****                                data received is provided by the event,      
 615:.\Generated_Source\PSoC4/BLE.c ****                                CYBLE_EVT_GAPC_SCAN_PROGRESS_RESULT. This procedure
 616:.\Generated_Source\PSoC4/BLE.c ****                                requires the scanType sub parameter to be passive
 617:.\Generated_Source\PSoC4/BLE.c ****                                scanning. 
 618:.\Generated_Source\PSoC4/BLE.c ****       
 619:.\Generated_Source\PSoC4/BLE.c ****       * Limited Discovery procedure: A device performing the limited discovery
 620:.\Generated_Source\PSoC4/BLE.c ****                                      procedure receives advertisement data and 
 621:.\Generated_Source\PSoC4/BLE.c ****                                      scan# response data from devices in the 
 622:.\Generated_Source\PSoC4/BLE.c ****                                      limited discoverable mode only. Received data
 623:.\Generated_Source\PSoC4/BLE.c ****                                      is provided by the event, 
 624:.\Generated_Source\PSoC4/BLE.c ****                                      CYBLE_EVT_GAPC_SCAN_PROGRESS_RESULT. This 
 625:.\Generated_Source\PSoC4/BLE.c ****                                      procedure requires the scanType sub-parameter 
 626:.\Generated_Source\PSoC4/BLE.c ****                                      to be active scanning.
 627:.\Generated_Source\PSoC4/BLE.c ****       
 628:.\Generated_Source\PSoC4/BLE.c ****       * General Discovery procedure: A device performing the general discovery 
 629:.\Generated_Source\PSoC4/BLE.c ****                                      procedure receives the advertisement data and
 630:.\Generated_Source\PSoC4/BLE.c ****                                      scan response data from devices in both 
 631:.\Generated_Source\PSoC4/BLE.c ****                                      limited discoverable mode and the general 
 632:.\Generated_Source\PSoC4/BLE.c ****                                      discoverable mode. Received data is provided
 633:.\Generated_Source\PSoC4/BLE.c ****                                      by the event,
 634:.\Generated_Source\PSoC4/BLE.c ****                                      CYBLE_EVT_GAPC_SCAN_PROGRESS_RESULT. This 
 635:.\Generated_Source\PSoC4/BLE.c ****                                      procedure requires the scanType sub-parameter
 636:.\Generated_Source\PSoC4/BLE.c ****                                      to be active scanning.
 637:.\Generated_Source\PSoC4/BLE.c ****       
ARM GAS  C:\Users\msuro\AppData\Local\Temp\ccOjNMmK.s 			page 21


 638:.\Generated_Source\PSoC4/BLE.c ****       Every Advertisement / Scan response packet received results in a new event, 
 639:.\Generated_Source\PSoC4/BLE.c ****       CYBLE_EVT_GAPC_SCAN_PROGRESS_RESULT.
 640:.\Generated_Source\PSoC4/BLE.c ****       If 'scanTo' sub-parameter is a non-zero value, then upon commencement of 
 641:.\Generated_Source\PSoC4/BLE.c ****       discovery procedure and elapsed time = 'scanTo', CYBLE_EVT_TIMEOUT event
 642:.\Generated_Source\PSoC4/BLE.c ****       is generated with the event parameter indicating CYBLE_GAP_SCAN_TO.
 643:.\Generated_Source\PSoC4/BLE.c ****       Possible generated events are:
 644:.\Generated_Source\PSoC4/BLE.c ****       * CYBLE_EVT_GAPC_SCAN_START_STOP: If a device started or stopped scanning. 
 645:.\Generated_Source\PSoC4/BLE.c ****                                         Use CyBle_GetState() to determine the 
 646:.\Generated_Source\PSoC4/BLE.c ****                                         state. Sequential scanning could be 
 647:.\Generated_Source\PSoC4/BLE.c ****                                         started when CYBLE_STATE_DISCONNECTED 
 648:.\Generated_Source\PSoC4/BLE.c ****                                         state is returned. 
 649:.\Generated_Source\PSoC4/BLE.c ****       * CYBLE_EVT_GAPC_SCAN_PROGRESS_RESULT 
 650:.\Generated_Source\PSoC4/BLE.c ****       * CYBLE_EVT_TIMEOUT (CYBLE_GAP_SCAN_TO)
 651:.\Generated_Source\PSoC4/BLE.c ****     
 652:.\Generated_Source\PSoC4/BLE.c ****      Parameters:
 653:.\Generated_Source\PSoC4/BLE.c ****       uint8 scanningIntervalType:  Fast or slow scanning interval with
 654:.\Generated_Source\PSoC4/BLE.c ****           timings entered in Scan settings section of the customiser.
 655:.\Generated_Source\PSoC4/BLE.c ****     	  * CYBLE_SCANNING_FAST   0x00u
 656:.\Generated_Source\PSoC4/BLE.c ****     	  * CYBLE_SCANNING_SLOW   0x01u
 657:.\Generated_Source\PSoC4/BLE.c ****     	  * CYBLE_SCANNING_CUSTOM 0x02u
 658:.\Generated_Source\PSoC4/BLE.c ****     
 659:.\Generated_Source\PSoC4/BLE.c ****     Return:
 660:.\Generated_Source\PSoC4/BLE.c ****      CYBLE_API_RESULT_T : Return value indicates if the function succeeded or
 661:.\Generated_Source\PSoC4/BLE.c ****      failed. Following are the possible error codes.
 662:.\Generated_Source\PSoC4/BLE.c ****      <table>
 663:.\Generated_Source\PSoC4/BLE.c ****       Errors codes                        Values  Description
 664:.\Generated_Source\PSoC4/BLE.c ****       ------------                        ------  -----------
 665:.\Generated_Source\PSoC4/BLE.c ****       CYBLE_ERROR_OK                      0x0000  On successful operation.
 666:.\Generated_Source\PSoC4/BLE.c ****       CYBLE_ERROR_STACK_INTERNAL          0x0003  An error occurred in the 
 667:.\Generated_Source\PSoC4/BLE.c ****                                                    BLE stack.
 668:.\Generated_Source\PSoC4/BLE.c ****      </table>
 669:.\Generated_Source\PSoC4/BLE.c ****      
 670:.\Generated_Source\PSoC4/BLE.c ****     ******************************************************************************/
 671:.\Generated_Source\PSoC4/BLE.c ****     CYBLE_API_RESULT_T CyBle_GapcStartScan(uint8 scanningIntervalType)
 672:.\Generated_Source\PSoC4/BLE.c ****     {
 502              		.loc 1 672 0
 503              		.cfi_startproc
 504 0000 90B5     		push	{r4, r7, lr}
 505              		.cfi_def_cfa_offset 12
 506              		.cfi_offset 4, -12
 507              		.cfi_offset 7, -8
 508              		.cfi_offset 14, -4
 509 0002 85B0     		sub	sp, sp, #20
 510              		.cfi_def_cfa_offset 32
 511 0004 00AF     		add	r7, sp, #0
 512              		.cfi_def_cfa_register 7
 513 0006 021C     		mov	r2, r0
 514 0008 FB1D     		add	r3, r7, #7
 515 000a 1A70     		strb	r2, [r3]
 673:.\Generated_Source\PSoC4/BLE.c ****         CYBLE_API_RESULT_T apiResult;
 674:.\Generated_Source\PSoC4/BLE.c **** 
 675:.\Generated_Source\PSoC4/BLE.c ****         if(scanningIntervalType == CYBLE_SCANNING_FAST)
 516              		.loc 1 675 0
 517 000c FB1D     		add	r3, r7, #7
 518 000e 1B78     		ldrb	r3, [r3]
 519 0010 002B     		cmp	r3, #0
 520 0012 09D1     		bne	.L24
ARM GAS  C:\Users\msuro\AppData\Local\Temp\ccOjNMmK.s 			page 22


 676:.\Generated_Source\PSoC4/BLE.c ****         {
 677:.\Generated_Source\PSoC4/BLE.c ****             cyBle_discoveryInfo.scanTo = CYBLE_FAST_SCAN_TIMEOUT;
 521              		.loc 1 677 0
 522 0014 1C4B     		ldr	r3, .L28
 523 0016 1E22     		mov	r2, #30
 524 0018 1A81     		strh	r2, [r3, #8]
 678:.\Generated_Source\PSoC4/BLE.c ****             cyBle_discoveryInfo.scanIntv = CYBLE_FAST_SCAN_INTERVAL;
 525              		.loc 1 678 0
 526 001a 1B4B     		ldr	r3, .L28
 527 001c 3022     		mov	r2, #48
 528 001e 5A80     		strh	r2, [r3, #2]
 679:.\Generated_Source\PSoC4/BLE.c ****             cyBle_discoveryInfo.scanWindow = CYBLE_FAST_SCAN_WINDOW;
 529              		.loc 1 679 0
 530 0020 194B     		ldr	r3, .L28
 531 0022 3022     		mov	r2, #48
 532 0024 9A80     		strh	r2, [r3, #4]
 533 0026 0EE0     		b	.L25
 534              	.L24:
 680:.\Generated_Source\PSoC4/BLE.c ****         }
 681:.\Generated_Source\PSoC4/BLE.c ****         else if(scanningIntervalType == CYBLE_SCANNING_SLOW)
 535              		.loc 1 681 0
 536 0028 FB1D     		add	r3, r7, #7
 537 002a 1B78     		ldrb	r3, [r3]
 538 002c 012B     		cmp	r3, #1
 539 002e 0AD1     		bne	.L25
 682:.\Generated_Source\PSoC4/BLE.c ****         {
 683:.\Generated_Source\PSoC4/BLE.c ****             cyBle_discoveryInfo.scanTo = CYBLE_SLOW_SCAN_TIMEOUT;
 540              		.loc 1 683 0
 541 0030 154B     		ldr	r3, .L28
 542 0032 9622     		mov	r2, #150
 543 0034 1A81     		strh	r2, [r3, #8]
 684:.\Generated_Source\PSoC4/BLE.c ****             cyBle_discoveryInfo.scanIntv = CYBLE_SLOW_SCAN_INTERVAL;
 544              		.loc 1 684 0
 545 0036 144B     		ldr	r3, .L28
 546 0038 8022     		mov	r2, #128
 547 003a 1201     		lsl	r2, r2, #4
 548 003c 5A80     		strh	r2, [r3, #2]
 685:.\Generated_Source\PSoC4/BLE.c ****             cyBle_discoveryInfo.scanWindow = CYBLE_SLOW_SCAN_WINDOW;
 549              		.loc 1 685 0
 550 003e 124B     		ldr	r3, .L28
 551 0040 E122     		mov	r2, #225
 552 0042 D200     		lsl	r2, r2, #3
 553 0044 9A80     		strh	r2, [r3, #4]
 554              	.L25:
 686:.\Generated_Source\PSoC4/BLE.c ****         }       
 687:.\Generated_Source\PSoC4/BLE.c ****         else /* Do not update scanning intervals */
 688:.\Generated_Source\PSoC4/BLE.c ****         {
 689:.\Generated_Source\PSoC4/BLE.c ****         }
 690:.\Generated_Source\PSoC4/BLE.c ****         
 691:.\Generated_Source\PSoC4/BLE.c ****         cyBle_scanningIntervalType = scanningIntervalType;
 555              		.loc 1 691 0
 556 0046 114B     		ldr	r3, .L28+4
 557 0048 FA1D     		add	r2, r7, #7
 558 004a 1278     		ldrb	r2, [r2]
 559 004c 1A70     		strb	r2, [r3]
 692:.\Generated_Source\PSoC4/BLE.c ****         apiResult = CyBle_GapcStartDiscovery(&cyBle_discoveryInfo);
 560              		.loc 1 692 0
ARM GAS  C:\Users\msuro\AppData\Local\Temp\ccOjNMmK.s 			page 23


 561 004e 3C1C     		mov	r4, r7
 562 0050 0E34     		add	r4, r4, #14
 563 0052 0D4B     		ldr	r3, .L28
 564 0054 181C     		mov	r0, r3
 565 0056 FFF7FEFF 		bl	CyBle_GapcStartDiscovery
 566 005a 031C     		mov	r3, r0
 567 005c 2380     		strh	r3, [r4]
 693:.\Generated_Source\PSoC4/BLE.c ****     
 694:.\Generated_Source\PSoC4/BLE.c ****         if(CYBLE_ERROR_OK == apiResult)
 568              		.loc 1 694 0
 569 005e 3B1C     		mov	r3, r7
 570 0060 0E33     		add	r3, r3, #14
 571 0062 1B88     		ldrh	r3, [r3]
 572 0064 002B     		cmp	r3, #0
 573 0066 07D1     		bne	.L26
 695:.\Generated_Source\PSoC4/BLE.c ****         {
 696:.\Generated_Source\PSoC4/BLE.c ****             cyBle_eventHandlerFlag |= CYBLE_START_FLAG;
 574              		.loc 1 696 0
 575 0068 094B     		ldr	r3, .L28+8
 576 006a 1B78     		ldrb	r3, [r3]
 577 006c DBB2     		uxtb	r3, r3
 578 006e 0422     		mov	r2, #4
 579 0070 1343     		orr	r3, r2
 580 0072 DAB2     		uxtb	r2, r3
 581 0074 064B     		ldr	r3, .L28+8
 582 0076 1A70     		strb	r2, [r3]
 583              	.L26:
 697:.\Generated_Source\PSoC4/BLE.c ****         }
 698:.\Generated_Source\PSoC4/BLE.c ****        
 699:.\Generated_Source\PSoC4/BLE.c ****         return (apiResult);
 584              		.loc 1 699 0
 585 0078 3B1C     		mov	r3, r7
 586 007a 0E33     		add	r3, r3, #14
 587 007c 1B88     		ldrh	r3, [r3]
 700:.\Generated_Source\PSoC4/BLE.c ****     }
 588              		.loc 1 700 0
 589 007e 181C     		mov	r0, r3
 590 0080 BD46     		mov	sp, r7
 591 0082 05B0     		add	sp, sp, #20
 592              		@ sp needed
 593 0084 90BD     		pop	{r4, r7, pc}
 594              	.L29:
 595 0086 C046     		.align	2
 596              	.L28:
 597 0088 00000000 		.word	cyBle_discoveryInfo
 598 008c 00000000 		.word	cyBle_scanningIntervalType
 599 0090 00000000 		.word	cyBle_eventHandlerFlag
 600              		.cfi_endproc
 601              	.LFE7:
 602              		.size	CyBle_GapcStartScan, .-CyBle_GapcStartScan
 603              		.section	.text.CyBle_GapcStopScan,"ax",%progbits
 604              		.align	2
 605              		.global	CyBle_GapcStopScan
 606              		.code	16
 607              		.thumb_func
 608              		.type	CyBle_GapcStopScan, %function
 609              	CyBle_GapcStopScan:
ARM GAS  C:\Users\msuro\AppData\Local\Temp\ccOjNMmK.s 			page 24


 610              	.LFB8:
 701:.\Generated_Source\PSoC4/BLE.c ****     
 702:.\Generated_Source\PSoC4/BLE.c ****     
 703:.\Generated_Source\PSoC4/BLE.c ****     /******************************************************************************
 704:.\Generated_Source\PSoC4/BLE.c ****     ##Function Name: CyBle_GapcStopScan
 705:.\Generated_Source\PSoC4/BLE.c ****     *******************************************************************************
 706:.\Generated_Source\PSoC4/BLE.c ****     
 707:.\Generated_Source\PSoC4/BLE.c ****      Summary:
 708:.\Generated_Source\PSoC4/BLE.c ****       This function used to stop the discovery of devices. On stopping discovery
 709:.\Generated_Source\PSoC4/BLE.c ****       operation, CYBLE_EVT_GAPC_SCAN_START_STOP event is generated. Application
 710:.\Generated_Source\PSoC4/BLE.c ****       layer needs to keep track of the function call made before receiving this
 711:.\Generated_Source\PSoC4/BLE.c ****       event to associate this event with either the start or stop discovery
 712:.\Generated_Source\PSoC4/BLE.c ****       function.
 713:.\Generated_Source\PSoC4/BLE.c ****     
 714:.\Generated_Source\PSoC4/BLE.c ****       Possible events generated are:
 715:.\Generated_Source\PSoC4/BLE.c ****        * CYBLE_EVT_GAPC_SCAN_START_STOP
 716:.\Generated_Source\PSoC4/BLE.c ****     
 717:.\Generated_Source\PSoC4/BLE.c ****      Parameters:
 718:.\Generated_Source\PSoC4/BLE.c ****       None
 719:.\Generated_Source\PSoC4/BLE.c ****     
 720:.\Generated_Source\PSoC4/BLE.c ****      Return:
 721:.\Generated_Source\PSoC4/BLE.c ****       None
 722:.\Generated_Source\PSoC4/BLE.c ****     
 723:.\Generated_Source\PSoC4/BLE.c ****     ******************************************************************************/
 724:.\Generated_Source\PSoC4/BLE.c ****     void CyBle_GapcStopScan(void)
 725:.\Generated_Source\PSoC4/BLE.c ****     {
 611              		.loc 1 725 0
 612              		.cfi_startproc
 613 0000 80B5     		push	{r7, lr}
 614              		.cfi_def_cfa_offset 8
 615              		.cfi_offset 7, -8
 616              		.cfi_offset 14, -4
 617 0002 00AF     		add	r7, sp, #0
 618              		.cfi_def_cfa_register 7
 726:.\Generated_Source\PSoC4/BLE.c ****         CyBle_GapcStopDiscovery();
 619              		.loc 1 726 0
 620 0004 FFF7FEFF 		bl	CyBle_GapcStopDiscovery
 727:.\Generated_Source\PSoC4/BLE.c ****         
 728:.\Generated_Source\PSoC4/BLE.c ****         cyBle_eventHandlerFlag |= CYBLE_STOP_FLAG;
 621              		.loc 1 728 0
 622 0008 044B     		ldr	r3, .L31
 623 000a 1B78     		ldrb	r3, [r3]
 624 000c DBB2     		uxtb	r3, r3
 625 000e 0822     		mov	r2, #8
 626 0010 1343     		orr	r3, r2
 627 0012 DAB2     		uxtb	r2, r3
 628 0014 014B     		ldr	r3, .L31
 629 0016 1A70     		strb	r2, [r3]
 729:.\Generated_Source\PSoC4/BLE.c ****     }
 630              		.loc 1 729 0
 631 0018 BD46     		mov	sp, r7
 632              		@ sp needed
 633 001a 80BD     		pop	{r7, pc}
 634              	.L32:
 635              		.align	2
 636              	.L31:
 637 001c 00000000 		.word	cyBle_eventHandlerFlag
ARM GAS  C:\Users\msuro\AppData\Local\Temp\ccOjNMmK.s 			page 25


 638              		.cfi_endproc
 639              	.LFE8:
 640              		.size	CyBle_GapcStopScan, .-CyBle_GapcStopScan
 641              		.section	.text.CyBle_GapcConnectDevice,"ax",%progbits
 642              		.align	2
 643              		.global	CyBle_GapcConnectDevice
 644              		.code	16
 645              		.thumb_func
 646              		.type	CyBle_GapcConnectDevice, %function
 647              	CyBle_GapcConnectDevice:
 648              	.LFB9:
 730:.\Generated_Source\PSoC4/BLE.c **** 
 731:.\Generated_Source\PSoC4/BLE.c ****     
 732:.\Generated_Source\PSoC4/BLE.c **** #endif /* CYBLE_GAP_ROLE_CENTRAL || CYBLE_GAP_ROLE_OBSERVER */
 733:.\Generated_Source\PSoC4/BLE.c **** 
 734:.\Generated_Source\PSoC4/BLE.c **** 
 735:.\Generated_Source\PSoC4/BLE.c **** #if(CYBLE_GAP_ROLE_CENTRAL)
 736:.\Generated_Source\PSoC4/BLE.c **** 
 737:.\Generated_Source\PSoC4/BLE.c ****     /******************************************************************************
 738:.\Generated_Source\PSoC4/BLE.c ****     ##Function Name: CyBle_GapcConnectDevice
 739:.\Generated_Source\PSoC4/BLE.c ****     *******************************************************************************
 740:.\Generated_Source\PSoC4/BLE.c ****     
 741:.\Generated_Source\PSoC4/BLE.c ****     Summary:
 742:.\Generated_Source\PSoC4/BLE.c ****      This function is used to send a connection request to the remote device with
 743:.\Generated_Source\PSoC4/BLE.c ****      the connection parameters set in the component customizer. This function needs
 744:.\Generated_Source\PSoC4/BLE.c ****      to be called only once after the target device is discovered by 
 745:.\Generated_Source\PSoC4/BLE.c ****      CyBle_GapcStartScan() and further scanning has stopped. Scanning is 
 746:.\Generated_Source\PSoC4/BLE.c ****      successfully stopped on invoking CyBle_GapcStopScan() and then receiving the
 747:.\Generated_Source\PSoC4/BLE.c ****      event CYBLE_EVT_GAPC_SCAN_START_STOP with sub-parameter 'success' = 0x01u.
 748:.\Generated_Source\PSoC4/BLE.c ****      
 749:.\Generated_Source\PSoC4/BLE.c ****      On successful connection, the following events are generated at the GAP 
 750:.\Generated_Source\PSoC4/BLE.c ****      Central device (as well as the GAP Peripheral device), in the following order.
 751:.\Generated_Source\PSoC4/BLE.c ****      * CYBLE_EVT_GATT_CONNECT_IND
 752:.\Generated_Source\PSoC4/BLE.c ****      * CYBLE_EVT_GAP_DEVICE_CONNECTED
 753:.\Generated_Source\PSoC4/BLE.c ****  
 754:.\Generated_Source\PSoC4/BLE.c ****      A procedure is considered to have timed out if a connection response packet is 
 755:.\Generated_Source\PSoC4/BLE.c ****      not received within time set by cyBle_connectingTimeout global variable
 756:.\Generated_Source\PSoC4/BLE.c ****      (30 seconds by default). CYBLE_EVT_TIMEOUT event with CYBLE_GENERIC_TO parameter
 757:.\Generated_Source\PSoC4/BLE.c ****      will indicate about connection procedure timeout. Connection will automatically
 758:.\Generated_Source\PSoC4/BLE.c ****      be cancelled and state will be changed to CYBLE_STATE_DISCONNECTED.
 759:.\Generated_Source\PSoC4/BLE.c ****     
 760:.\Generated_Source\PSoC4/BLE.c ****     Parameters:
 761:.\Generated_Source\PSoC4/BLE.c ****      const CYBLE_GAP_BD_ADDR_T address: The device address of the remote device to 
 762:.\Generated_Source\PSoC4/BLE.c ****                                         connect to. 
 763:.\Generated_Source\PSoC4/BLE.c ****      timeout: Timeout for which timer to be started in seconds.
 764:.\Generated_Source\PSoC4/BLE.c ****  
 765:.\Generated_Source\PSoC4/BLE.c ****     Return:
 766:.\Generated_Source\PSoC4/BLE.c ****      CYBLE_API_RESULT_T : Return value indicates if the function succeeded or 
 767:.\Generated_Source\PSoC4/BLE.c ****      failed. Following are the possible error codes.
 768:.\Generated_Source\PSoC4/BLE.c ****      <table>
 769:.\Generated_Source\PSoC4/BLE.c ****       Errors codes                        Description
 770:.\Generated_Source\PSoC4/BLE.c ****       ------------                        -----------
 771:.\Generated_Source\PSoC4/BLE.c ****       CYBLE_ERROR_OK                      On successful operation.
 772:.\Generated_Source\PSoC4/BLE.c ****       CYBLE_ERROR_STACK_INTERNAL          On error occurred in the 
 773:.\Generated_Source\PSoC4/BLE.c ****                                            BLE stack.
 774:.\Generated_Source\PSoC4/BLE.c ****       CYBLE_ERROR_INVALID_PARAMETER       On specifying NULL as input
 775:.\Generated_Source\PSoC4/BLE.c ****                                            parameter for 'scanInfo' or if
ARM GAS  C:\Users\msuro\AppData\Local\Temp\ccOjNMmK.s 			page 26


 776:.\Generated_Source\PSoC4/BLE.c ****                                            any element with in 'scanInfo'
 777:.\Generated_Source\PSoC4/BLE.c ****                                            has an invalid value.
 778:.\Generated_Source\PSoC4/BLE.c ****      </table>
 779:.\Generated_Source\PSoC4/BLE.c ****  
 780:.\Generated_Source\PSoC4/BLE.c ****     ******************************************************************************/
 781:.\Generated_Source\PSoC4/BLE.c ****     CYBLE_API_RESULT_T CyBle_GapcConnectDevice(const CYBLE_GAP_BD_ADDR_T * address)
 782:.\Generated_Source\PSoC4/BLE.c ****     {
 649              		.loc 1 782 0
 650              		.cfi_startproc
 651 0000 90B5     		push	{r4, r7, lr}
 652              		.cfi_def_cfa_offset 12
 653              		.cfi_offset 4, -12
 654              		.cfi_offset 7, -8
 655              		.cfi_offset 14, -4
 656 0002 85B0     		sub	sp, sp, #20
 657              		.cfi_def_cfa_offset 32
 658 0004 00AF     		add	r7, sp, #0
 659              		.cfi_def_cfa_register 7
 660 0006 7860     		str	r0, [r7, #4]
 783:.\Generated_Source\PSoC4/BLE.c ****         CYBLE_API_RESULT_T apiResult;
 784:.\Generated_Source\PSoC4/BLE.c ****         uint8 i;
 785:.\Generated_Source\PSoC4/BLE.c **** 
 786:.\Generated_Source\PSoC4/BLE.c ****         if(CYBLE_STATE_DISCONNECTED != CyBle_GetState())
 661              		.loc 1 786 0
 662 0008 284B     		ldr	r3, .L40
 663 000a 1B78     		ldrb	r3, [r3]
 664 000c 052B     		cmp	r3, #5
 665 000e 05D0     		beq	.L34
 787:.\Generated_Source\PSoC4/BLE.c ****         {
 788:.\Generated_Source\PSoC4/BLE.c ****             apiResult = CYBLE_ERROR_INVALID_STATE;
 666              		.loc 1 788 0
 667 0010 3B1C     		mov	r3, r7
 668 0012 0E33     		add	r3, r3, #14
 669 0014 8322     		mov	r2, #131
 670 0016 5200     		lsl	r2, r2, #1
 671 0018 1A80     		strh	r2, [r3]
 672 001a 40E0     		b	.L35
 673              	.L34:
 789:.\Generated_Source\PSoC4/BLE.c ****         }
 790:.\Generated_Source\PSoC4/BLE.c ****         else if(address == NULL)
 674              		.loc 1 790 0
 675 001c 7B68     		ldr	r3, [r7, #4]
 676 001e 002B     		cmp	r3, #0
 677 0020 04D1     		bne	.L36
 791:.\Generated_Source\PSoC4/BLE.c ****         {
 792:.\Generated_Source\PSoC4/BLE.c ****             apiResult = CYBLE_ERROR_INVALID_PARAMETER;
 678              		.loc 1 792 0
 679 0022 3B1C     		mov	r3, r7
 680 0024 0E33     		add	r3, r3, #14
 681 0026 0122     		mov	r2, #1
 682 0028 1A80     		strh	r2, [r3]
 683 002a 38E0     		b	.L35
 684              	.L36:
 793:.\Generated_Source\PSoC4/BLE.c ****         }
 794:.\Generated_Source\PSoC4/BLE.c ****         else
 795:.\Generated_Source\PSoC4/BLE.c ****         {
 796:.\Generated_Source\PSoC4/BLE.c ****             for(i = 0u; i < CYBLE_GAP_BD_ADDR_SIZE; i++)
ARM GAS  C:\Users\msuro\AppData\Local\Temp\ccOjNMmK.s 			page 27


 685              		.loc 1 796 0
 686 002c 3B1C     		mov	r3, r7
 687 002e 0D33     		add	r3, r3, #13
 688 0030 0022     		mov	r2, #0
 689 0032 1A70     		strb	r2, [r3]
 690 0034 11E0     		b	.L37
 691              	.L38:
 797:.\Generated_Source\PSoC4/BLE.c ****             {
 798:.\Generated_Source\PSoC4/BLE.c ****                 cyBle_connectionParameters.peerBdAddr[i] = address->bdAddr[i];
 692              		.loc 1 798 0 discriminator 2
 693 0036 3B1C     		mov	r3, r7
 694 0038 0D33     		add	r3, r3, #13
 695 003a 1B78     		ldrb	r3, [r3]
 696 003c 3A1C     		mov	r2, r7
 697 003e 0D32     		add	r2, r2, #13
 698 0040 1278     		ldrb	r2, [r2]
 699 0042 7968     		ldr	r1, [r7, #4]
 700 0044 8A5C     		ldrb	r2, [r1, r2]
 701 0046 1A49     		ldr	r1, .L40+4
 702 0048 CB18     		add	r3, r1, r3
 703 004a 5A71     		strb	r2, [r3, #5]
 796:.\Generated_Source\PSoC4/BLE.c ****             for(i = 0u; i < CYBLE_GAP_BD_ADDR_SIZE; i++)
 704              		.loc 1 796 0 discriminator 2
 705 004c 3B1C     		mov	r3, r7
 706 004e 0D33     		add	r3, r3, #13
 707 0050 1A78     		ldrb	r2, [r3]
 708 0052 3B1C     		mov	r3, r7
 709 0054 0D33     		add	r3, r3, #13
 710 0056 0132     		add	r2, r2, #1
 711 0058 1A70     		strb	r2, [r3]
 712              	.L37:
 796:.\Generated_Source\PSoC4/BLE.c ****             for(i = 0u; i < CYBLE_GAP_BD_ADDR_SIZE; i++)
 713              		.loc 1 796 0 is_stmt 0 discriminator 1
 714 005a 3B1C     		mov	r3, r7
 715 005c 0D33     		add	r3, r3, #13
 716 005e 1B78     		ldrb	r3, [r3]
 717 0060 052B     		cmp	r3, #5
 718 0062 E8D9     		bls	.L38
 799:.\Generated_Source\PSoC4/BLE.c ****             }
 800:.\Generated_Source\PSoC4/BLE.c ****             cyBle_connectionParameters.peerAddrType = address -> type;
 719              		.loc 1 800 0 is_stmt 1
 720 0064 7B68     		ldr	r3, [r7, #4]
 721 0066 9A79     		ldrb	r2, [r3, #6]
 722 0068 114B     		ldr	r3, .L40+4
 723 006a DA72     		strb	r2, [r3, #11]
 801:.\Generated_Source\PSoC4/BLE.c ****             apiResult = CyBle_GapcInitConnection(&cyBle_connectionParameters);
 724              		.loc 1 801 0
 725 006c 3C1C     		mov	r4, r7
 726 006e 0E34     		add	r4, r4, #14
 727 0070 0F4B     		ldr	r3, .L40+4
 728 0072 181C     		mov	r0, r3
 729 0074 FFF7FEFF 		bl	CyBle_GapcInitConnection
 730 0078 031C     		mov	r3, r0
 731 007a 2380     		strh	r3, [r4]
 802:.\Generated_Source\PSoC4/BLE.c ****             
 803:.\Generated_Source\PSoC4/BLE.c ****             if(CYBLE_ERROR_OK == apiResult)
 732              		.loc 1 803 0
ARM GAS  C:\Users\msuro\AppData\Local\Temp\ccOjNMmK.s 			page 28


 733 007c 3B1C     		mov	r3, r7
 734 007e 0E33     		add	r3, r3, #14
 735 0080 1B88     		ldrh	r3, [r3]
 736 0082 002B     		cmp	r3, #0
 737 0084 0BD1     		bne	.L35
 804:.\Generated_Source\PSoC4/BLE.c ****             {
 805:.\Generated_Source\PSoC4/BLE.c ****                 CyBle_SetState(CYBLE_STATE_CONNECTING);
 738              		.loc 1 805 0
 739 0086 094B     		ldr	r3, .L40
 740 0088 0422     		mov	r2, #4
 741 008a 1A70     		strb	r2, [r3]
 806:.\Generated_Source\PSoC4/BLE.c ****                 if(cyBle_connectingTimeout != 0u)
 742              		.loc 1 806 0
 743 008c 094B     		ldr	r3, .L40+8
 744 008e 1B88     		ldrh	r3, [r3]
 745 0090 002B     		cmp	r3, #0
 746 0092 04D0     		beq	.L35
 807:.\Generated_Source\PSoC4/BLE.c ****                 {
 808:.\Generated_Source\PSoC4/BLE.c ****                     (void)CyBle_StartTimer(cyBle_connectingTimeout);
 747              		.loc 1 808 0
 748 0094 074B     		ldr	r3, .L40+8
 749 0096 1B88     		ldrh	r3, [r3]
 750 0098 181C     		mov	r0, r3
 751 009a FFF7FEFF 		bl	CyBle_StartTimer
 752              	.L35:
 809:.\Generated_Source\PSoC4/BLE.c ****                 }
 810:.\Generated_Source\PSoC4/BLE.c ****             }
 811:.\Generated_Source\PSoC4/BLE.c ****         }
 812:.\Generated_Source\PSoC4/BLE.c ****         return (apiResult);
 753              		.loc 1 812 0
 754 009e 3B1C     		mov	r3, r7
 755 00a0 0E33     		add	r3, r3, #14
 756 00a2 1B88     		ldrh	r3, [r3]
 813:.\Generated_Source\PSoC4/BLE.c ****     }
 757              		.loc 1 813 0
 758 00a4 181C     		mov	r0, r3
 759 00a6 BD46     		mov	sp, r7
 760 00a8 05B0     		add	sp, sp, #20
 761              		@ sp needed
 762 00aa 90BD     		pop	{r4, r7, pc}
 763              	.L41:
 764              		.align	2
 765              	.L40:
 766 00ac 00000000 		.word	cyBle_state
 767 00b0 00000000 		.word	cyBle_connectionParameters
 768 00b4 00000000 		.word	cyBle_connectingTimeout
 769              		.cfi_endproc
 770              	.LFE9:
 771              		.size	CyBle_GapcConnectDevice, .-CyBle_GapcConnectDevice
 772              		.section	.text.CyBle_GapcCancelDeviceConnection,"ax",%progbits
 773              		.align	2
 774              		.global	CyBle_GapcCancelDeviceConnection
 775              		.code	16
 776              		.thumb_func
 777              		.type	CyBle_GapcCancelDeviceConnection, %function
 778              	CyBle_GapcCancelDeviceConnection:
 779              	.LFB10:
ARM GAS  C:\Users\msuro\AppData\Local\Temp\ccOjNMmK.s 			page 29


 814:.\Generated_Source\PSoC4/BLE.c ****     
 815:.\Generated_Source\PSoC4/BLE.c **** 
 816:.\Generated_Source\PSoC4/BLE.c ****     /******************************************************************************
 817:.\Generated_Source\PSoC4/BLE.c ****     ##Function Name: CyBle_GapcCancelDeviceConnection
 818:.\Generated_Source\PSoC4/BLE.c ****     *******************************************************************************
 819:.\Generated_Source\PSoC4/BLE.c ****     
 820:.\Generated_Source\PSoC4/BLE.c ****     Summary:
 821:.\Generated_Source\PSoC4/BLE.c ****      This function cancels a previously initiated connection with the remote 
 822:.\Generated_Source\PSoC4/BLE.c ****      device. It is a blocking function. No event is generated on calling this 
 823:.\Generated_Source\PSoC4/BLE.c ****      function. If the devices are already connected then this function should not
 824:.\Generated_Source\PSoC4/BLE.c ****      be used. If you intend to disconnect from an existing connection, the function
 825:.\Generated_Source\PSoC4/BLE.c ****      CyBle_GapDisconnect() should be used.
 826:.\Generated_Source\PSoC4/BLE.c **** 
 827:.\Generated_Source\PSoC4/BLE.c ****     Parameters:
 828:.\Generated_Source\PSoC4/BLE.c ****      None
 829:.\Generated_Source\PSoC4/BLE.c **** 
 830:.\Generated_Source\PSoC4/BLE.c ****     Return:
 831:.\Generated_Source\PSoC4/BLE.c ****      CYBLE_API_RESULT_T : Return value indicates if the function succeeded or 
 832:.\Generated_Source\PSoC4/BLE.c ****      failed. Following are the possible error codes.
 833:.\Generated_Source\PSoC4/BLE.c ****      <table>
 834:.\Generated_Source\PSoC4/BLE.c ****       Errors codes                        Description
 835:.\Generated_Source\PSoC4/BLE.c ****       ------------                        -----------
 836:.\Generated_Source\PSoC4/BLE.c ****       CYBLE_ERROR_OK                      On successful operation.
 837:.\Generated_Source\PSoC4/BLE.c ****       CYBLE_ERROR_STACK_INTERNAL          An error occurred in the 
 838:.\Generated_Source\PSoC4/BLE.c ****                                            BLE stack.
 839:.\Generated_Source\PSoC4/BLE.c ****       CYBLE_ERROR_INVALID_OPERATION       Device is already connected.
 840:.\Generated_Source\PSoC4/BLE.c ****      </table>
 841:.\Generated_Source\PSoC4/BLE.c ****  
 842:.\Generated_Source\PSoC4/BLE.c ****     ******************************************************************************/
 843:.\Generated_Source\PSoC4/BLE.c ****     CYBLE_API_RESULT_T CyBle_GapcCancelDeviceConnection(void)
 844:.\Generated_Source\PSoC4/BLE.c ****     {
 780              		.loc 1 844 0
 781              		.cfi_startproc
 782 0000 90B5     		push	{r4, r7, lr}
 783              		.cfi_def_cfa_offset 12
 784              		.cfi_offset 4, -12
 785              		.cfi_offset 7, -8
 786              		.cfi_offset 14, -4
 787 0002 83B0     		sub	sp, sp, #12
 788              		.cfi_def_cfa_offset 24
 789 0004 00AF     		add	r7, sp, #0
 790              		.cfi_def_cfa_register 7
 845:.\Generated_Source\PSoC4/BLE.c ****         CYBLE_API_RESULT_T apiResult;
 846:.\Generated_Source\PSoC4/BLE.c ****         
 847:.\Generated_Source\PSoC4/BLE.c ****         apiResult = CyBle_GapcCancelConnection();
 791              		.loc 1 847 0
 792 0006 BC1D     		add	r4, r7, #6
 793 0008 FFF7FEFF 		bl	CyBle_GapcCancelConnection
 794 000c 031C     		mov	r3, r0
 795 000e 2380     		strh	r3, [r4]
 848:.\Generated_Source\PSoC4/BLE.c ****             
 849:.\Generated_Source\PSoC4/BLE.c ****         if(cyBle_connectingTimeout != 0u)
 796              		.loc 1 849 0
 797 0010 094B     		ldr	r3, .L46
 798 0012 1B88     		ldrh	r3, [r3]
 799 0014 002B     		cmp	r3, #0
 800 0016 01D0     		beq	.L43
ARM GAS  C:\Users\msuro\AppData\Local\Temp\ccOjNMmK.s 			page 30


 850:.\Generated_Source\PSoC4/BLE.c ****         {
 851:.\Generated_Source\PSoC4/BLE.c ****             (void)CyBle_StopTimer();
 801              		.loc 1 851 0
 802 0018 FFF7FEFF 		bl	CyBle_StopTimer
 803              	.L43:
 852:.\Generated_Source\PSoC4/BLE.c ****         }
 853:.\Generated_Source\PSoC4/BLE.c **** 
 854:.\Generated_Source\PSoC4/BLE.c ****         if(CYBLE_ERROR_OK == apiResult)
 804              		.loc 1 854 0
 805 001c BB1D     		add	r3, r7, #6
 806 001e 1B88     		ldrh	r3, [r3]
 807 0020 002B     		cmp	r3, #0
 808 0022 02D1     		bne	.L44
 855:.\Generated_Source\PSoC4/BLE.c ****         {
 856:.\Generated_Source\PSoC4/BLE.c ****             CyBle_SetState(CYBLE_STATE_DISCONNECTED);
 809              		.loc 1 856 0
 810 0024 054B     		ldr	r3, .L46+4
 811 0026 0522     		mov	r2, #5
 812 0028 1A70     		strb	r2, [r3]
 813              	.L44:
 857:.\Generated_Source\PSoC4/BLE.c ****         }
 858:.\Generated_Source\PSoC4/BLE.c ****         return (apiResult);
 814              		.loc 1 858 0
 815 002a BB1D     		add	r3, r7, #6
 816 002c 1B88     		ldrh	r3, [r3]
 859:.\Generated_Source\PSoC4/BLE.c ****     }    
 817              		.loc 1 859 0
 818 002e 181C     		mov	r0, r3
 819 0030 BD46     		mov	sp, r7
 820 0032 03B0     		add	sp, sp, #12
 821              		@ sp needed
 822 0034 90BD     		pop	{r4, r7, pc}
 823              	.L47:
 824 0036 C046     		.align	2
 825              	.L46:
 826 0038 00000000 		.word	cyBle_connectingTimeout
 827 003c 00000000 		.word	cyBle_state
 828              		.cfi_endproc
 829              	.LFE10:
 830              		.size	CyBle_GapcCancelDeviceConnection, .-CyBle_GapcCancelDeviceConnection
 831              		.section	.text.CyBle_GapSetLocalName,"ax",%progbits
 832              		.align	2
 833              		.global	CyBle_GapSetLocalName
 834              		.code	16
 835              		.thumb_func
 836              		.type	CyBle_GapSetLocalName, %function
 837              	CyBle_GapSetLocalName:
 838              	.LFB11:
 860:.\Generated_Source\PSoC4/BLE.c **** 
 861:.\Generated_Source\PSoC4/BLE.c ****     
 862:.\Generated_Source\PSoC4/BLE.c **** #endif /* CYBLE_GAP_ROLE_CENTRAL */
 863:.\Generated_Source\PSoC4/BLE.c **** 
 864:.\Generated_Source\PSoC4/BLE.c **** 
 865:.\Generated_Source\PSoC4/BLE.c **** #if(CYBLE_GATT_ROLE_SERVER)
 866:.\Generated_Source\PSoC4/BLE.c **** 
 867:.\Generated_Source\PSoC4/BLE.c **** #if(CYBLE_GAP_ROLE_PERIPHERAL)
 868:.\Generated_Source\PSoC4/BLE.c **** 
ARM GAS  C:\Users\msuro\AppData\Local\Temp\ccOjNMmK.s 			page 31


 869:.\Generated_Source\PSoC4/BLE.c ****         /******************************************************************************
 870:.\Generated_Source\PSoC4/BLE.c ****         ##Function Name: CyBle_ChangeAdLocalName
 871:.\Generated_Source\PSoC4/BLE.c ****         *******************************************************************************
 872:.\Generated_Source\PSoC4/BLE.c ****         Summary:
 873:.\Generated_Source\PSoC4/BLE.c ****          This API is used to set the local device name in the advertisement or scan 
 874:.\Generated_Source\PSoC4/BLE.c ****          response data structure.
 875:.\Generated_Source\PSoC4/BLE.c **** 
 876:.\Generated_Source\PSoC4/BLE.c ****         Parameters:
 877:.\Generated_Source\PSoC4/BLE.c ****          char8 name: The local device name string to be set in advertisement data 
 878:.\Generated_Source\PSoC4/BLE.c ****                    structure.
 879:.\Generated_Source\PSoC4/BLE.c ****          uint8 dest: 0 - avrevtisement structure, not zero value selects scan response
 880:.\Generated_Source\PSoC4/BLE.c ****                      structure.
 881:.\Generated_Source\PSoC4/BLE.c **** 
 882:.\Generated_Source\PSoC4/BLE.c ****         Return:
 883:.\Generated_Source\PSoC4/BLE.c ****          None
 884:.\Generated_Source\PSoC4/BLE.c ****      
 885:.\Generated_Source\PSoC4/BLE.c ****         ******************************************************************************/
 886:.\Generated_Source\PSoC4/BLE.c ****         static void CyBle_ChangeAdLocalName(const char8 name[], uint8 dest)
 887:.\Generated_Source\PSoC4/BLE.c ****         {
 888:.\Generated_Source\PSoC4/BLE.c ****             uint8 i;
 889:.\Generated_Source\PSoC4/BLE.c ****             uint8 flag = 0u;
 890:.\Generated_Source\PSoC4/BLE.c ****             uint8 adLength = 0u;
 891:.\Generated_Source\PSoC4/BLE.c ****             uint8 byteCounter = 0u;
 892:.\Generated_Source\PSoC4/BLE.c ****             uint8 *destBuffer;
 893:.\Generated_Source\PSoC4/BLE.c ****             uint8 maxLength;
 894:.\Generated_Source\PSoC4/BLE.c ****             
 895:.\Generated_Source\PSoC4/BLE.c ****             if(dest == 0u)      /* Destination - advertising structure */
 896:.\Generated_Source\PSoC4/BLE.c ****             {
 897:.\Generated_Source\PSoC4/BLE.c ****                 destBuffer = cyBle_discoveryData.advData;
 898:.\Generated_Source\PSoC4/BLE.c ****                 maxLength = cyBle_discoveryData.advDataLen;
 899:.\Generated_Source\PSoC4/BLE.c ****             }
 900:.\Generated_Source\PSoC4/BLE.c ****             else                /* Destination - scan response structure */
 901:.\Generated_Source\PSoC4/BLE.c ****             {
 902:.\Generated_Source\PSoC4/BLE.c ****                 destBuffer = cyBle_scanRspData.scanRspData;
 903:.\Generated_Source\PSoC4/BLE.c ****                 maxLength = cyBle_scanRspData.scanRspDataLen;
 904:.\Generated_Source\PSoC4/BLE.c ****             }
 905:.\Generated_Source\PSoC4/BLE.c ****             
 906:.\Generated_Source\PSoC4/BLE.c ****             while((byteCounter < maxLength) && (0u == flag))
 907:.\Generated_Source\PSoC4/BLE.c ****             {
 908:.\Generated_Source\PSoC4/BLE.c ****                 adLength = destBuffer[byteCounter];
 909:.\Generated_Source\PSoC4/BLE.c ****                 
 910:.\Generated_Source\PSoC4/BLE.c ****                 if(0u != adLength)
 911:.\Generated_Source\PSoC4/BLE.c ****                 {
 912:.\Generated_Source\PSoC4/BLE.c ****                     /* Increment byte counter so it can point to AD type */
 913:.\Generated_Source\PSoC4/BLE.c ****                     byteCounter++;
 914:.\Generated_Source\PSoC4/BLE.c ****                     
 915:.\Generated_Source\PSoC4/BLE.c ****                     if((CYBLE_SHORT_LOCAL_NAME == destBuffer[byteCounter]) || 
 916:.\Generated_Source\PSoC4/BLE.c ****                         (CYBLE_COMPLETE_LOCAL_NAME == destBuffer[byteCounter]))
 917:.\Generated_Source\PSoC4/BLE.c ****                     {
 918:.\Generated_Source\PSoC4/BLE.c ****                         /* Start of the Local Name AD type was fount. Set flag and exit the loop. *
 919:.\Generated_Source\PSoC4/BLE.c ****                         flag = 1u;
 920:.\Generated_Source\PSoC4/BLE.c ****                     }
 921:.\Generated_Source\PSoC4/BLE.c ****                     else
 922:.\Generated_Source\PSoC4/BLE.c ****                     {
 923:.\Generated_Source\PSoC4/BLE.c ****                         byteCounter += adLength;
 924:.\Generated_Source\PSoC4/BLE.c ****                     }
 925:.\Generated_Source\PSoC4/BLE.c ****                 }
ARM GAS  C:\Users\msuro\AppData\Local\Temp\ccOjNMmK.s 			page 32


 926:.\Generated_Source\PSoC4/BLE.c ****                 else
 927:.\Generated_Source\PSoC4/BLE.c ****                 {
 928:.\Generated_Source\PSoC4/BLE.c ****                     /* The end of advertisement data structure was encountered though exit the 
 929:.\Generated_Source\PSoC4/BLE.c ****                       loop. */
 930:.\Generated_Source\PSoC4/BLE.c ****                     break;
 931:.\Generated_Source\PSoC4/BLE.c ****                 }
 932:.\Generated_Source\PSoC4/BLE.c ****             }
 933:.\Generated_Source\PSoC4/BLE.c ****             
 934:.\Generated_Source\PSoC4/BLE.c ****             if(0u != flag)
 935:.\Generated_Source\PSoC4/BLE.c ****             {
 936:.\Generated_Source\PSoC4/BLE.c ****                 /* Reuse "adLength" to hold location of the last character of local name in 
 937:.\Generated_Source\PSoC4/BLE.c ****                    AD structure. */
 938:.\Generated_Source\PSoC4/BLE.c ****                 adLength += byteCounter;
 939:.\Generated_Source\PSoC4/BLE.c ****                 
 940:.\Generated_Source\PSoC4/BLE.c ****                 /* Increment byte counter to point to start of the local Name string */
 941:.\Generated_Source\PSoC4/BLE.c ****                 byteCounter++;
 942:.\Generated_Source\PSoC4/BLE.c ****                 
 943:.\Generated_Source\PSoC4/BLE.c ****                 for(i = byteCounter; ((i < (adLength)) && (CYBLE_NULL_CHARCTER != name[i - byteCoun
 944:.\Generated_Source\PSoC4/BLE.c ****                 {
 945:.\Generated_Source\PSoC4/BLE.c ****                     destBuffer[i] = (uint8)name[i - byteCounter];
 946:.\Generated_Source\PSoC4/BLE.c ****                 }
 947:.\Generated_Source\PSoC4/BLE.c ****                 
 948:.\Generated_Source\PSoC4/BLE.c ****                 /* This loop handles the case when new local name is shorted than old one.
 949:.\Generated_Source\PSoC4/BLE.c ****                    In this case all remaining characters should be null characters. */
 950:.\Generated_Source\PSoC4/BLE.c ****                 while(adLength > i)
 951:.\Generated_Source\PSoC4/BLE.c ****                 {
 952:.\Generated_Source\PSoC4/BLE.c ****                     /* Terminate string */
 953:.\Generated_Source\PSoC4/BLE.c ****                     destBuffer[i] = (uint8)CYBLE_NULL_CHARCTER;
 954:.\Generated_Source\PSoC4/BLE.c ****                     i++;
 955:.\Generated_Source\PSoC4/BLE.c ****                 }
 956:.\Generated_Source\PSoC4/BLE.c ****             }
 957:.\Generated_Source\PSoC4/BLE.c ****         }
 958:.\Generated_Source\PSoC4/BLE.c ****         
 959:.\Generated_Source\PSoC4/BLE.c **** #endif /* (CYBLE_GAP_ROLE_PERIPHERAL) */  
 960:.\Generated_Source\PSoC4/BLE.c ****     
 961:.\Generated_Source\PSoC4/BLE.c ****     
 962:.\Generated_Source\PSoC4/BLE.c ****     /******************************************************************************
 963:.\Generated_Source\PSoC4/BLE.c ****     ##Function Name: CyBle_GapSetLocalName
 964:.\Generated_Source\PSoC4/BLE.c ****     *******************************************************************************
 965:.\Generated_Source\PSoC4/BLE.c ****     Summary:
 966:.\Generated_Source\PSoC4/BLE.c ****      This API is used to set the local device name - a Characteristic of the 
 967:.\Generated_Source\PSoC4/BLE.c ****      GAP Service. If the characteristic length entered in the component customizer
 968:.\Generated_Source\PSoC4/BLE.c ****      is shorter than the string specified by the "name" parameter, the local device
 969:.\Generated_Source\PSoC4/BLE.c ****      name will be cut to the length specified in the customizer.
 970:.\Generated_Source\PSoC4/BLE.c **** 
 971:.\Generated_Source\PSoC4/BLE.c ****     Parameters:
 972:.\Generated_Source\PSoC4/BLE.c ****      char8 name: The local device name string. The name string to be written as
 973:.\Generated_Source\PSoC4/BLE.c ****                  the local device name. It represents a UTF-8 encoded User
 974:.\Generated_Source\PSoC4/BLE.c ****                  Friendly Descriptive Name for the device. The length of the local
 975:.\Generated_Source\PSoC4/BLE.c ****                  device string is entered into the component customizer and it can
 976:.\Generated_Source\PSoC4/BLE.c ****                  be set to a value from 0 to 248 bytes. If the name contained in
 977:.\Generated_Source\PSoC4/BLE.c ****                  the parameter is shorter than the length from the customizer, the
 978:.\Generated_Source\PSoC4/BLE.c ****                  end of the name is indicated by a NULL octet (0x00).
 979:.\Generated_Source\PSoC4/BLE.c **** 
 980:.\Generated_Source\PSoC4/BLE.c ****     Return:
 981:.\Generated_Source\PSoC4/BLE.c ****      CYBLE_API_RESULT_T : Return value indicates if the function succeeded or 
 982:.\Generated_Source\PSoC4/BLE.c ****      failed. Following are the possible error codes.
ARM GAS  C:\Users\msuro\AppData\Local\Temp\ccOjNMmK.s 			page 33


 983:.\Generated_Source\PSoC4/BLE.c ****      <table>
 984:.\Generated_Source\PSoC4/BLE.c ****       Errors codes                        Description
 985:.\Generated_Source\PSoC4/BLE.c ****       ------------                        -----------
 986:.\Generated_Source\PSoC4/BLE.c ****       CYBLE_ERROR_OK                      Function completed successfully.
 987:.\Generated_Source\PSoC4/BLE.c ****       CYBLE_ERROR_INVALID_PARAMETER       On specifying NULL as input parameter
 988:.\Generated_Source\PSoC4/BLE.c ****      </table>
 989:.\Generated_Source\PSoC4/BLE.c ****  
 990:.\Generated_Source\PSoC4/BLE.c ****     ******************************************************************************/
 991:.\Generated_Source\PSoC4/BLE.c ****     CYBLE_API_RESULT_T CyBle_GapSetLocalName(const char8 name[])
 992:.\Generated_Source\PSoC4/BLE.c ****     {
 839              		.loc 1 992 0
 840              		.cfi_startproc
 841 0000 80B5     		push	{r7, lr}
 842              		.cfi_def_cfa_offset 8
 843              		.cfi_offset 7, -8
 844              		.cfi_offset 14, -4
 845 0002 86B0     		sub	sp, sp, #24
 846              		.cfi_def_cfa_offset 32
 847 0004 00AF     		add	r7, sp, #0
 848              		.cfi_def_cfa_register 7
 849 0006 7860     		str	r0, [r7, #4]
 993:.\Generated_Source\PSoC4/BLE.c ****         CYBLE_API_RESULT_T apiResult = CYBLE_ERROR_OK;
 850              		.loc 1 993 0
 851 0008 3B1C     		mov	r3, r7
 852 000a 1633     		add	r3, r3, #22
 853 000c 0022     		mov	r2, #0
 854 000e 1A80     		strh	r2, [r3]
 994:.\Generated_Source\PSoC4/BLE.c ****         uint8 i;
 995:.\Generated_Source\PSoC4/BLE.c ****         char8 *ptr;
 996:.\Generated_Source\PSoC4/BLE.c ****         uint8 charLen;
 997:.\Generated_Source\PSoC4/BLE.c **** 
 998:.\Generated_Source\PSoC4/BLE.c ****         if(NULL != name)
 855              		.loc 1 998 0
 856 0010 7B68     		ldr	r3, [r7, #4]
 857 0012 002B     		cmp	r3, #0
 858 0014 38D0     		beq	.L49
 999:.\Generated_Source\PSoC4/BLE.c ****         {
1000:.\Generated_Source\PSoC4/BLE.c ****             /* Get the pointer to the Device Name characteristic  */
1001:.\Generated_Source\PSoC4/BLE.c ****             ptr = (char8 *)
 859              		.loc 1 1001 0
 860 0016 224B     		ldr	r3, .L55
 861 0018 9B6B     		ldr	r3, [r3, #56]
 862 001a 3B61     		str	r3, [r7, #16]
1002:.\Generated_Source\PSoC4/BLE.c ****                 cyBle_gattDB[CYBLE_GAP_DEVICE_NAME_INDEX].attValue.attFormatValue.attGenericVal;
1003:.\Generated_Source\PSoC4/BLE.c **** 
1004:.\Generated_Source\PSoC4/BLE.c ****             /* First need to get the length of the characteristic data in the GATT
1005:.\Generated_Source\PSoC4/BLE.c ****                 database to make sure there is enough place for the data. The length
1006:.\Generated_Source\PSoC4/BLE.c ****                 can't be longer than 248, so only the LSB of 16 bit of length is to
1007:.\Generated_Source\PSoC4/BLE.c ****                 be used. */
1008:.\Generated_Source\PSoC4/BLE.c ****             charLen = (uint8) cyBle_gattDB[CYBLE_GAP_DEVICE_NAME_INDEX].attValue.attFormatValue.len
 863              		.loc 1 1008 0
 864 001c 204B     		ldr	r3, .L55
 865 001e 9A8E     		ldrh	r2, [r3, #52]
 866 0020 3B1C     		mov	r3, r7
 867 0022 0F33     		add	r3, r3, #15
 868 0024 1A70     		strb	r2, [r3]
1009:.\Generated_Source\PSoC4/BLE.c **** 
ARM GAS  C:\Users\msuro\AppData\Local\Temp\ccOjNMmK.s 			page 34


1010:.\Generated_Source\PSoC4/BLE.c ****             /* Copy name into characteristic */
1011:.\Generated_Source\PSoC4/BLE.c ****             for(i = 0u; ((i < (charLen - 1u)) && (CYBLE_NULL_CHARCTER != name[i])); i++)
 869              		.loc 1 1011 0
 870 0026 3B1C     		mov	r3, r7
 871 0028 1533     		add	r3, r3, #21
 872 002a 0022     		mov	r2, #0
 873 002c 1A70     		strb	r2, [r3]
 874 002e 12E0     		b	.L50
 875              	.L52:
1012:.\Generated_Source\PSoC4/BLE.c ****             {
1013:.\Generated_Source\PSoC4/BLE.c ****                 ptr[i] = name[i];
 876              		.loc 1 1013 0 discriminator 1
 877 0030 3B1C     		mov	r3, r7
 878 0032 1533     		add	r3, r3, #21
 879 0034 1B78     		ldrb	r3, [r3]
 880 0036 3A69     		ldr	r2, [r7, #16]
 881 0038 D318     		add	r3, r2, r3
 882 003a 3A1C     		mov	r2, r7
 883 003c 1532     		add	r2, r2, #21
 884 003e 1278     		ldrb	r2, [r2]
 885 0040 7968     		ldr	r1, [r7, #4]
 886 0042 8A18     		add	r2, r1, r2
 887 0044 1278     		ldrb	r2, [r2]
 888 0046 1A70     		strb	r2, [r3]
1011:.\Generated_Source\PSoC4/BLE.c ****             for(i = 0u; ((i < (charLen - 1u)) && (CYBLE_NULL_CHARCTER != name[i])); i++)
 889              		.loc 1 1011 0 discriminator 1
 890 0048 3B1C     		mov	r3, r7
 891 004a 1533     		add	r3, r3, #21
 892 004c 1A78     		ldrb	r2, [r3]
 893 004e 3B1C     		mov	r3, r7
 894 0050 1533     		add	r3, r3, #21
 895 0052 0132     		add	r2, r2, #1
 896 0054 1A70     		strb	r2, [r3]
 897              	.L50:
 898 0056 3B1C     		mov	r3, r7
 899 0058 1533     		add	r3, r3, #21
 900 005a 1A78     		ldrb	r2, [r3]
 901 005c 3B1C     		mov	r3, r7
 902 005e 0F33     		add	r3, r3, #15
 903 0060 1B78     		ldrb	r3, [r3]
 904 0062 013B     		sub	r3, r3, #1
 905 0064 9A42     		cmp	r2, r3
 906 0066 07D2     		bcs	.L51
1011:.\Generated_Source\PSoC4/BLE.c ****             for(i = 0u; ((i < (charLen - 1u)) && (CYBLE_NULL_CHARCTER != name[i])); i++)
 907              		.loc 1 1011 0 is_stmt 0 discriminator 2
 908 0068 3B1C     		mov	r3, r7
 909 006a 1533     		add	r3, r3, #21
 910 006c 1B78     		ldrb	r3, [r3]
 911 006e 7A68     		ldr	r2, [r7, #4]
 912 0070 D318     		add	r3, r2, r3
 913 0072 1B78     		ldrb	r3, [r3]
 914 0074 002B     		cmp	r3, #0
 915 0076 DBD1     		bne	.L52
 916              	.L51:
1014:.\Generated_Source\PSoC4/BLE.c ****             }
1015:.\Generated_Source\PSoC4/BLE.c **** 
1016:.\Generated_Source\PSoC4/BLE.c ****             /* Terminate string */
ARM GAS  C:\Users\msuro\AppData\Local\Temp\ccOjNMmK.s 			page 35


1017:.\Generated_Source\PSoC4/BLE.c ****             ptr[i] = CYBLE_NULL_CHARCTER;
 917              		.loc 1 1017 0 is_stmt 1
 918 0078 3B1C     		mov	r3, r7
 919 007a 1533     		add	r3, r3, #21
 920 007c 1B78     		ldrb	r3, [r3]
 921 007e 3A69     		ldr	r2, [r7, #16]
 922 0080 D318     		add	r3, r2, r3
 923 0082 0022     		mov	r2, #0
 924 0084 1A70     		strb	r2, [r3]
 925 0086 03E0     		b	.L53
 926              	.L49:
1018:.\Generated_Source\PSoC4/BLE.c ****             
1019:.\Generated_Source\PSoC4/BLE.c ****             /* Update device name in advertising and scan response structure */
1020:.\Generated_Source\PSoC4/BLE.c ****             #if(CYBLE_GAP_ROLE_PERIPHERAL)
1021:.\Generated_Source\PSoC4/BLE.c ****                 CyBle_ChangeAdLocalName(name, 0u);
1022:.\Generated_Source\PSoC4/BLE.c ****                 CyBle_ChangeAdLocalName(name, 1u);
1023:.\Generated_Source\PSoC4/BLE.c ****             #endif /* (CYBLE_GAP_ROLE_PERIPHERAL) */
1024:.\Generated_Source\PSoC4/BLE.c ****         }
1025:.\Generated_Source\PSoC4/BLE.c ****         else
1026:.\Generated_Source\PSoC4/BLE.c ****         {
1027:.\Generated_Source\PSoC4/BLE.c ****             apiResult = CYBLE_ERROR_INVALID_PARAMETER;
 927              		.loc 1 1027 0
 928 0088 3B1C     		mov	r3, r7
 929 008a 1633     		add	r3, r3, #22
 930 008c 0122     		mov	r2, #1
 931 008e 1A80     		strh	r2, [r3]
 932              	.L53:
1028:.\Generated_Source\PSoC4/BLE.c ****         }
1029:.\Generated_Source\PSoC4/BLE.c ****         
1030:.\Generated_Source\PSoC4/BLE.c ****         return(apiResult);
 933              		.loc 1 1030 0
 934 0090 3B1C     		mov	r3, r7
 935 0092 1633     		add	r3, r3, #22
 936 0094 1B88     		ldrh	r3, [r3]
1031:.\Generated_Source\PSoC4/BLE.c ****     }
 937              		.loc 1 1031 0
 938 0096 181C     		mov	r0, r3
 939 0098 BD46     		mov	sp, r7
 940 009a 06B0     		add	sp, sp, #24
 941              		@ sp needed
 942 009c 80BD     		pop	{r7, pc}
 943              	.L56:
 944 009e C046     		.align	2
 945              	.L55:
 946 00a0 00000000 		.word	cyBle_gattDB
 947              		.cfi_endproc
 948              	.LFE11:
 949              		.size	CyBle_GapSetLocalName, .-CyBle_GapSetLocalName
 950              		.section	.text.CyBle_GapGetLocalName,"ax",%progbits
 951              		.align	2
 952              		.global	CyBle_GapGetLocalName
 953              		.code	16
 954              		.thumb_func
 955              		.type	CyBle_GapGetLocalName, %function
 956              	CyBle_GapGetLocalName:
 957              	.LFB12:
1032:.\Generated_Source\PSoC4/BLE.c **** 
ARM GAS  C:\Users\msuro\AppData\Local\Temp\ccOjNMmK.s 			page 36


1033:.\Generated_Source\PSoC4/BLE.c **** 
1034:.\Generated_Source\PSoC4/BLE.c ****     /******************************************************************************
1035:.\Generated_Source\PSoC4/BLE.c ****     ##Function Name: CyBle_GapGetLocalName
1036:.\Generated_Source\PSoC4/BLE.c ****     *******************************************************************************
1037:.\Generated_Source\PSoC4/BLE.c ****  
1038:.\Generated_Source\PSoC4/BLE.c ****     Summary:
1039:.\Generated_Source\PSoC4/BLE.c ****      This API is used to read the local device name - a Characteristic of the 
1040:.\Generated_Source\PSoC4/BLE.c ****      GAP Service.
1041:.\Generated_Source\PSoC4/BLE.c **** 
1042:.\Generated_Source\PSoC4/BLE.c ****     Parameters:
1043:.\Generated_Source\PSoC4/BLE.c ****     char8 name: The local device name string. Used to read the local name to the
1044:.\Generated_Source\PSoC4/BLE.c ****                 given string array. It represents a UTF-8 encoded User Friendly 
1045:.\Generated_Source\PSoC4/BLE.c ****                 Descriptive Name for the device. The length of the local device
1046:.\Generated_Source\PSoC4/BLE.c ****                 string is entered into the component customizer and it can be set
1047:.\Generated_Source\PSoC4/BLE.c ****                 to a value from 0 to 248 bytes. If the name contained in the
1048:.\Generated_Source\PSoC4/BLE.c ****                 parameter is shorter than the length from the customizer, the end
1049:.\Generated_Source\PSoC4/BLE.c ****                 of the name is indicated by a NULL octet (0x00).
1050:.\Generated_Source\PSoC4/BLE.c **** 
1051:.\Generated_Source\PSoC4/BLE.c ****     Return:
1052:.\Generated_Source\PSoC4/BLE.c ****      CYBLE_API_RESULT_T : Return value indicates if the function succeeded or 
1053:.\Generated_Source\PSoC4/BLE.c ****      failed. Following are the possible error codes.
1054:.\Generated_Source\PSoC4/BLE.c ****      <table>
1055:.\Generated_Source\PSoC4/BLE.c ****       Errors codes                        Description
1056:.\Generated_Source\PSoC4/BLE.c ****       ------------                        -----------
1057:.\Generated_Source\PSoC4/BLE.c ****       CYBLE_ERROR_OK                      Function completed successfully.
1058:.\Generated_Source\PSoC4/BLE.c ****       CYBLE_ERROR_INVALID_PARAMETER       On specifying NULL as input parameter
1059:.\Generated_Source\PSoC4/BLE.c ****      </table>
1060:.\Generated_Source\PSoC4/BLE.c **** 
1061:.\Generated_Source\PSoC4/BLE.c ****     ******************************************************************************/
1062:.\Generated_Source\PSoC4/BLE.c ****     CYBLE_API_RESULT_T CyBle_GapGetLocalName(char8 name[])
1063:.\Generated_Source\PSoC4/BLE.c ****     {
 958              		.loc 1 1063 0
 959              		.cfi_startproc
 960 0000 80B5     		push	{r7, lr}
 961              		.cfi_def_cfa_offset 8
 962              		.cfi_offset 7, -8
 963              		.cfi_offset 14, -4
 964 0002 86B0     		sub	sp, sp, #24
 965              		.cfi_def_cfa_offset 32
 966 0004 00AF     		add	r7, sp, #0
 967              		.cfi_def_cfa_register 7
 968 0006 7860     		str	r0, [r7, #4]
1064:.\Generated_Source\PSoC4/BLE.c ****         CYBLE_API_RESULT_T apiResult = CYBLE_ERROR_OK;
 969              		.loc 1 1064 0
 970 0008 3B1C     		mov	r3, r7
 971 000a 1633     		add	r3, r3, #22
 972 000c 0022     		mov	r2, #0
 973 000e 1A80     		strh	r2, [r3]
1065:.\Generated_Source\PSoC4/BLE.c ****         uint8 charLen;
1066:.\Generated_Source\PSoC4/BLE.c ****         uint8 i;
1067:.\Generated_Source\PSoC4/BLE.c ****         char8 *ptr;
1068:.\Generated_Source\PSoC4/BLE.c **** 
1069:.\Generated_Source\PSoC4/BLE.c ****         if(NULL != name)
 974              		.loc 1 1069 0
 975 0010 7B68     		ldr	r3, [r7, #4]
 976 0012 002B     		cmp	r3, #0
 977 0014 38D0     		beq	.L58
ARM GAS  C:\Users\msuro\AppData\Local\Temp\ccOjNMmK.s 			page 37


1070:.\Generated_Source\PSoC4/BLE.c ****         {
1071:.\Generated_Source\PSoC4/BLE.c ****             /* Get the pointer to the Device Name characteristic  */
1072:.\Generated_Source\PSoC4/BLE.c ****             ptr = (char8 *) cyBle_gattDB[CYBLE_GAP_DEVICE_NAME_INDEX].attValue.attFormatValue.attGe
 978              		.loc 1 1072 0
 979 0016 224B     		ldr	r3, .L64
 980 0018 9B6B     		ldr	r3, [r3, #56]
 981 001a 3B61     		str	r3, [r7, #16]
1073:.\Generated_Source\PSoC4/BLE.c **** 
1074:.\Generated_Source\PSoC4/BLE.c ****             /* First need to get the length of the characteristic data in the GATT
1075:.\Generated_Source\PSoC4/BLE.c ****                 database to make sure there is enough place for the data. The length
1076:.\Generated_Source\PSoC4/BLE.c ****                 can't be longer than 248, so only the LSB of 16 bit of length is to
1077:.\Generated_Source\PSoC4/BLE.c ****                 be used. */
1078:.\Generated_Source\PSoC4/BLE.c ****             charLen = (uint8)cyBle_gattDB[CYBLE_GAP_DEVICE_NAME_INDEX].attValue.attFormatValue.leng
 982              		.loc 1 1078 0
 983 001c 204B     		ldr	r3, .L64
 984 001e 9A8E     		ldrh	r2, [r3, #52]
 985 0020 3B1C     		mov	r3, r7
 986 0022 0F33     		add	r3, r3, #15
 987 0024 1A70     		strb	r2, [r3]
1079:.\Generated_Source\PSoC4/BLE.c **** 
1080:.\Generated_Source\PSoC4/BLE.c ****             /* Copy name from characteristic */
1081:.\Generated_Source\PSoC4/BLE.c ****             for(i = 0u; ((i < (charLen - 1u)) && (CYBLE_NULL_CHARCTER != ptr[i])); i++)
 988              		.loc 1 1081 0
 989 0026 3B1C     		mov	r3, r7
 990 0028 1533     		add	r3, r3, #21
 991 002a 0022     		mov	r2, #0
 992 002c 1A70     		strb	r2, [r3]
 993 002e 12E0     		b	.L59
 994              	.L61:
1082:.\Generated_Source\PSoC4/BLE.c ****             {
1083:.\Generated_Source\PSoC4/BLE.c ****                 name[i] = ptr[i];
 995              		.loc 1 1083 0 discriminator 1
 996 0030 3B1C     		mov	r3, r7
 997 0032 1533     		add	r3, r3, #21
 998 0034 1B78     		ldrb	r3, [r3]
 999 0036 7A68     		ldr	r2, [r7, #4]
 1000 0038 D318     		add	r3, r2, r3
 1001 003a 3A1C     		mov	r2, r7
 1002 003c 1532     		add	r2, r2, #21
 1003 003e 1278     		ldrb	r2, [r2]
 1004 0040 3969     		ldr	r1, [r7, #16]
 1005 0042 8A18     		add	r2, r1, r2
 1006 0044 1278     		ldrb	r2, [r2]
 1007 0046 1A70     		strb	r2, [r3]
1081:.\Generated_Source\PSoC4/BLE.c ****             for(i = 0u; ((i < (charLen - 1u)) && (CYBLE_NULL_CHARCTER != ptr[i])); i++)
 1008              		.loc 1 1081 0 discriminator 1
 1009 0048 3B1C     		mov	r3, r7
 1010 004a 1533     		add	r3, r3, #21
 1011 004c 1A78     		ldrb	r2, [r3]
 1012 004e 3B1C     		mov	r3, r7
 1013 0050 1533     		add	r3, r3, #21
 1014 0052 0132     		add	r2, r2, #1
 1015 0054 1A70     		strb	r2, [r3]
 1016              	.L59:
 1017 0056 3B1C     		mov	r3, r7
 1018 0058 1533     		add	r3, r3, #21
 1019 005a 1A78     		ldrb	r2, [r3]
ARM GAS  C:\Users\msuro\AppData\Local\Temp\ccOjNMmK.s 			page 38


 1020 005c 3B1C     		mov	r3, r7
 1021 005e 0F33     		add	r3, r3, #15
 1022 0060 1B78     		ldrb	r3, [r3]
 1023 0062 013B     		sub	r3, r3, #1
 1024 0064 9A42     		cmp	r2, r3
 1025 0066 07D2     		bcs	.L60
1081:.\Generated_Source\PSoC4/BLE.c ****             for(i = 0u; ((i < (charLen - 1u)) && (CYBLE_NULL_CHARCTER != ptr[i])); i++)
 1026              		.loc 1 1081 0 is_stmt 0 discriminator 2
 1027 0068 3B1C     		mov	r3, r7
 1028 006a 1533     		add	r3, r3, #21
 1029 006c 1B78     		ldrb	r3, [r3]
 1030 006e 3A69     		ldr	r2, [r7, #16]
 1031 0070 D318     		add	r3, r2, r3
 1032 0072 1B78     		ldrb	r3, [r3]
 1033 0074 002B     		cmp	r3, #0
 1034 0076 DBD1     		bne	.L61
 1035              	.L60:
1084:.\Generated_Source\PSoC4/BLE.c ****             }
1085:.\Generated_Source\PSoC4/BLE.c **** 
1086:.\Generated_Source\PSoC4/BLE.c ****             /* Terminate string */
1087:.\Generated_Source\PSoC4/BLE.c ****             name[i] = CYBLE_NULL_CHARCTER;
 1036              		.loc 1 1087 0 is_stmt 1
 1037 0078 3B1C     		mov	r3, r7
 1038 007a 1533     		add	r3, r3, #21
 1039 007c 1B78     		ldrb	r3, [r3]
 1040 007e 7A68     		ldr	r2, [r7, #4]
 1041 0080 D318     		add	r3, r2, r3
 1042 0082 0022     		mov	r2, #0
 1043 0084 1A70     		strb	r2, [r3]
 1044 0086 03E0     		b	.L62
 1045              	.L58:
1088:.\Generated_Source\PSoC4/BLE.c ****         }
1089:.\Generated_Source\PSoC4/BLE.c ****         else
1090:.\Generated_Source\PSoC4/BLE.c ****         {
1091:.\Generated_Source\PSoC4/BLE.c ****             apiResult = CYBLE_ERROR_INVALID_PARAMETER;
 1046              		.loc 1 1091 0
 1047 0088 3B1C     		mov	r3, r7
 1048 008a 1633     		add	r3, r3, #22
 1049 008c 0122     		mov	r2, #1
 1050 008e 1A80     		strh	r2, [r3]
 1051              	.L62:
1092:.\Generated_Source\PSoC4/BLE.c ****         }
1093:.\Generated_Source\PSoC4/BLE.c ****         
1094:.\Generated_Source\PSoC4/BLE.c ****         return(apiResult);
 1052              		.loc 1 1094 0
 1053 0090 3B1C     		mov	r3, r7
 1054 0092 1633     		add	r3, r3, #22
 1055 0094 1B88     		ldrh	r3, [r3]
1095:.\Generated_Source\PSoC4/BLE.c ****     }
 1056              		.loc 1 1095 0
 1057 0096 181C     		mov	r0, r3
 1058 0098 BD46     		mov	sp, r7
 1059 009a 06B0     		add	sp, sp, #24
 1060              		@ sp needed
 1061 009c 80BD     		pop	{r7, pc}
 1062              	.L65:
 1063 009e C046     		.align	2
ARM GAS  C:\Users\msuro\AppData\Local\Temp\ccOjNMmK.s 			page 39


 1064              	.L64:
 1065 00a0 00000000 		.word	cyBle_gattDB
 1066              		.cfi_endproc
 1067              	.LFE12:
 1068              		.size	CyBle_GapGetLocalName, .-CyBle_GapGetLocalName
 1069              		.section	.text.CyBle_Get16ByPtr,"ax",%progbits
 1070              		.align	2
 1071              		.global	CyBle_Get16ByPtr
 1072              		.code	16
 1073              		.thumb_func
 1074              		.type	CyBle_Get16ByPtr, %function
 1075              	CyBle_Get16ByPtr:
 1076              	.LFB13:
1096:.\Generated_Source\PSoC4/BLE.c **** 
1097:.\Generated_Source\PSoC4/BLE.c **** #endif /* (CYBLE_GATT_ROLE_SERVER) */
1098:.\Generated_Source\PSoC4/BLE.c **** 
1099:.\Generated_Source\PSoC4/BLE.c **** 
1100:.\Generated_Source\PSoC4/BLE.c **** /******************************************************************************
1101:.\Generated_Source\PSoC4/BLE.c **** ##Function Name: CyBle_Get16ByPtr
1102:.\Generated_Source\PSoC4/BLE.c **** *******************************************************************************
1103:.\Generated_Source\PSoC4/BLE.c **** 
1104:.\Generated_Source\PSoC4/BLE.c **** Summary:
1105:.\Generated_Source\PSoC4/BLE.c ****  Returns the two-bytes value by using a pointer to the LSB.
1106:.\Generated_Source\PSoC4/BLE.c **** 
1107:.\Generated_Source\PSoC4/BLE.c **** Parameters:
1108:.\Generated_Source\PSoC4/BLE.c ****  uint8 * ptr: Pointer to the LSB of two-bytes data (little endian).
1109:.\Generated_Source\PSoC4/BLE.c **** 
1110:.\Generated_Source\PSoC4/BLE.c **** Return:
1111:.\Generated_Source\PSoC4/BLE.c ****  uint16 value: Two-bytes data.
1112:.\Generated_Source\PSoC4/BLE.c **** 
1113:.\Generated_Source\PSoC4/BLE.c **** ******************************************************************************/
1114:.\Generated_Source\PSoC4/BLE.c **** uint16 CyBle_Get16ByPtr(const uint8 ptr[])
1115:.\Generated_Source\PSoC4/BLE.c **** {
 1077              		.loc 1 1115 0
 1078              		.cfi_startproc
 1079 0000 80B5     		push	{r7, lr}
 1080              		.cfi_def_cfa_offset 8
 1081              		.cfi_offset 7, -8
 1082              		.cfi_offset 14, -4
 1083 0002 82B0     		sub	sp, sp, #8
 1084              		.cfi_def_cfa_offset 16
 1085 0004 00AF     		add	r7, sp, #0
 1086              		.cfi_def_cfa_register 7
 1087 0006 7860     		str	r0, [r7, #4]
1116:.\Generated_Source\PSoC4/BLE.c ****     return ((uint16) ptr[0u] | ((uint16) (((uint16) ptr[1u]) << 8u)));
 1088              		.loc 1 1116 0
 1089 0008 7B68     		ldr	r3, [r7, #4]
 1090 000a 1B78     		ldrb	r3, [r3]
 1091 000c 1A1C     		mov	r2, r3
 1092 000e 7B68     		ldr	r3, [r7, #4]
 1093 0010 0133     		add	r3, r3, #1
 1094 0012 1B78     		ldrb	r3, [r3]
 1095 0014 1B02     		lsl	r3, r3, #8
 1096 0016 9BB2     		uxth	r3, r3
 1097 0018 1343     		orr	r3, r2
 1098 001a 9BB2     		uxth	r3, r3
1117:.\Generated_Source\PSoC4/BLE.c **** }
ARM GAS  C:\Users\msuro\AppData\Local\Temp\ccOjNMmK.s 			page 40


 1099              		.loc 1 1117 0
 1100 001c 181C     		mov	r0, r3
 1101 001e BD46     		mov	sp, r7
 1102 0020 02B0     		add	sp, sp, #8
 1103              		@ sp needed
 1104 0022 80BD     		pop	{r7, pc}
 1105              		.cfi_endproc
 1106              	.LFE13:
 1107              		.size	CyBle_Get16ByPtr, .-CyBle_Get16ByPtr
 1108              		.section	.text.CyBle_Set16ByPtr,"ax",%progbits
 1109              		.align	2
 1110              		.global	CyBle_Set16ByPtr
 1111              		.code	16
 1112              		.thumb_func
 1113              		.type	CyBle_Set16ByPtr, %function
 1114              	CyBle_Set16ByPtr:
 1115              	.LFB14:
1118:.\Generated_Source\PSoC4/BLE.c **** 
1119:.\Generated_Source\PSoC4/BLE.c **** 
1120:.\Generated_Source\PSoC4/BLE.c **** /******************************************************************************
1121:.\Generated_Source\PSoC4/BLE.c **** ##Function Name: CyBle_Set16ByPtr
1122:.\Generated_Source\PSoC4/BLE.c **** *******************************************************************************
1123:.\Generated_Source\PSoC4/BLE.c **** 
1124:.\Generated_Source\PSoC4/BLE.c **** Summary:
1125:.\Generated_Source\PSoC4/BLE.c ****  Sets the two-bytes value by using a pointer to the LSB.
1126:.\Generated_Source\PSoC4/BLE.c **** 
1127:.\Generated_Source\PSoC4/BLE.c **** Parameters:
1128:.\Generated_Source\PSoC4/BLE.c ****  uint8 * ptr:   Pointer to the LSB of two-bytes data (little endian).
1129:.\Generated_Source\PSoC4/BLE.c ****  uint16 value:  Two-bytes data to be written.
1130:.\Generated_Source\PSoC4/BLE.c **** 
1131:.\Generated_Source\PSoC4/BLE.c **** Return:
1132:.\Generated_Source\PSoC4/BLE.c ****  None
1133:.\Generated_Source\PSoC4/BLE.c **** 
1134:.\Generated_Source\PSoC4/BLE.c **** ******************************************************************************/
1135:.\Generated_Source\PSoC4/BLE.c **** void CyBle_Set16ByPtr(uint8 ptr[], uint16 value)
1136:.\Generated_Source\PSoC4/BLE.c **** {
 1116              		.loc 1 1136 0
 1117              		.cfi_startproc
 1118 0000 80B5     		push	{r7, lr}
 1119              		.cfi_def_cfa_offset 8
 1120              		.cfi_offset 7, -8
 1121              		.cfi_offset 14, -4
 1122 0002 82B0     		sub	sp, sp, #8
 1123              		.cfi_def_cfa_offset 16
 1124 0004 00AF     		add	r7, sp, #0
 1125              		.cfi_def_cfa_register 7
 1126 0006 7860     		str	r0, [r7, #4]
 1127 0008 0A1C     		mov	r2, r1
 1128 000a BB1C     		add	r3, r7, #2
 1129 000c 1A80     		strh	r2, [r3]
1137:.\Generated_Source\PSoC4/BLE.c ****     ptr[0u] = (uint8) value;
 1130              		.loc 1 1137 0
 1131 000e BB1C     		add	r3, r7, #2
 1132 0010 1B88     		ldrh	r3, [r3]
 1133 0012 DAB2     		uxtb	r2, r3
 1134 0014 7B68     		ldr	r3, [r7, #4]
 1135 0016 1A70     		strb	r2, [r3]
ARM GAS  C:\Users\msuro\AppData\Local\Temp\ccOjNMmK.s 			page 41


1138:.\Generated_Source\PSoC4/BLE.c ****     ptr[1u] = (uint8) (value >> 8u);
 1136              		.loc 1 1138 0
 1137 0018 7B68     		ldr	r3, [r7, #4]
 1138 001a 0133     		add	r3, r3, #1
 1139 001c BA1C     		add	r2, r7, #2
 1140 001e 1288     		ldrh	r2, [r2]
 1141 0020 120A     		lsr	r2, r2, #8
 1142 0022 92B2     		uxth	r2, r2
 1143 0024 D2B2     		uxtb	r2, r2
 1144 0026 1A70     		strb	r2, [r3]
1139:.\Generated_Source\PSoC4/BLE.c **** }
 1145              		.loc 1 1139 0
 1146 0028 BD46     		mov	sp, r7
 1147 002a 02B0     		add	sp, sp, #8
 1148              		@ sp needed
 1149 002c 80BD     		pop	{r7, pc}
 1150              		.cfi_endproc
 1151              	.LFE14:
 1152              		.size	CyBle_Set16ByPtr, .-CyBle_Set16ByPtr
 1153 002e C046     		.bss
 1154 0001 00000000 		.align	3
 1154      000000
 1155              	cyBle_stackMemoryRam.6119:
 1156 0008 00000000 		.space	4204
 1156      00000000 
 1156      00000000 
 1156      00000000 
 1156      00000000 
 1157 1074 00000000 		.text
 1158              	.Letext0:
 1159              		.file 2 ".\\Generated_Source\\PSoC4\\cytypes.h"
 1160              		.file 3 ".\\Generated_Source\\PSoC4\\BLE_Stack.h"
 1161              		.file 4 ".\\Generated_Source\\PSoC4\\BLE_StackGap.h"
 1162              		.file 5 ".\\Generated_Source\\PSoC4\\BLE_StackGatt.h"
 1163              		.file 6 ".\\Generated_Source\\PSoC4\\BLE_StackGattDb.h"
 1164              		.file 7 ".\\Generated_Source\\PSoC4\\BLE.h"
 1165              		.file 8 ".\\Generated_Source\\PSoC4\\BLE_gatt.h"
 1166              		.file 9 ".\\Generated_Source\\PSoC4\\BLE_dis.h"
 1167              		.file 10 ".\\Generated_Source\\PSoC4\\BLE_eventHandler.h"