ARM GAS  C:\Users\msuro\AppData\Local\Temp\ccG5pvI8.s 			page 1


   1              		.cpu cortex-m0
   2              		.fpu softvfp
   3              		.eabi_attribute 20, 1
   4              		.eabi_attribute 21, 1
   5              		.eabi_attribute 23, 3
   6              		.eabi_attribute 24, 1
   7              		.eabi_attribute 25, 1
   8              		.eabi_attribute 26, 1
   9              		.eabi_attribute 30, 6
  10              		.eabi_attribute 34, 0
  11              		.eabi_attribute 18, 4
  12              		.code	16
  13              		.file	"BLE_eventHandler.c"
  14              		.text
  15              	.Ltext0:
  16              		.cfi_sections	.debug_frame
  17              		.comm	cyBle_connHandle,2,4
  18              		.comm	cyBle_eventHandlerFlag,1,1
  19              		.comm	cyBle_busyStatus,1,1
  20              		.comm	cyBle_scanningIntervalType,1,1
  21              		.comm	cyBle_disCount,1,1
  22              		.bss
  23              		.align	1
  24              	cyBle_charEndHandle:
  25 0000 0000     		.space	2
  26              		.global	cyBle_serverInfo
  27              		.data
  28              		.align	2
  29              		.type	cyBle_serverInfo, %object
  30              		.size	cyBle_serverInfo, 18
  31              	cyBle_serverInfo:
  32 0000 0000     		.short	0
  33 0002 0000     		.short	0
  34 0004 0018     		.short	6144
  35 0006 0000     		.short	0
  36 0008 0000     		.short	0
  37 000a 0118     		.short	6145
  38 000c 0000     		.short	0
  39 000e 0000     		.short	0
  40 0010 0418     		.short	6148
  41              		.comm	cyBle_gapc,10,4
  42              		.global	cyBle_authInfo
  43 0012 0000     		.align	2
  44              		.type	cyBle_authInfo, %object
  45              		.size	cyBle_authInfo, 4
  46              	cyBle_authInfo:
  47 0014 10       		.byte	16
  48 0015 01       		.byte	1
  49 0016 10       		.byte	16
  50 0017 00       		.byte	0
  51              		.section	.text.CyBle_WriteReqHandler,"ax",%progbits
  52              		.align	2
  53              		.code	16
  54              		.thumb_func
  55              		.type	CyBle_WriteReqHandler, %function
  56              	CyBle_WriteReqHandler:
  57              	.LFB2:
ARM GAS  C:\Users\msuro\AppData\Local\Temp\ccG5pvI8.s 			page 2


  58              		.file 1 ".\\Generated_Source\\PSoC4\\BLE_eventHandler.c"
   1:.\Generated_Source\PSoC4/BLE_eventHandler.c **** /*******************************************************************************
   2:.\Generated_Source\PSoC4/BLE_eventHandler.c **** File Name: CYBLE_eventHandler.c
   3:.\Generated_Source\PSoC4/BLE_eventHandler.c **** Version 1.20
   4:.\Generated_Source\PSoC4/BLE_eventHandler.c **** 
   5:.\Generated_Source\PSoC4/BLE_eventHandler.c **** Description:
   6:.\Generated_Source\PSoC4/BLE_eventHandler.c ****  This file contains the source code for the Event Handler State Machine
   7:.\Generated_Source\PSoC4/BLE_eventHandler.c ****  of the BLE Component.
   8:.\Generated_Source\PSoC4/BLE_eventHandler.c **** 
   9:.\Generated_Source\PSoC4/BLE_eventHandler.c **** ********************************************************************************
  10:.\Generated_Source\PSoC4/BLE_eventHandler.c **** Copyright 2014-2015, Cypress Semiconductor Corporation.  All rights reserved.
  11:.\Generated_Source\PSoC4/BLE_eventHandler.c **** You may use this file only in accordance with the license, terms, conditions,
  12:.\Generated_Source\PSoC4/BLE_eventHandler.c **** disclaimers, and limitations in the end user license agreement accompanying
  13:.\Generated_Source\PSoC4/BLE_eventHandler.c **** the software package with which this file was provided.
  14:.\Generated_Source\PSoC4/BLE_eventHandler.c **** *******************************************************************************/
  15:.\Generated_Source\PSoC4/BLE_eventHandler.c **** 
  16:.\Generated_Source\PSoC4/BLE_eventHandler.c **** #include "BLE_eventHandler.h"
  17:.\Generated_Source\PSoC4/BLE_eventHandler.c **** 
  18:.\Generated_Source\PSoC4/BLE_eventHandler.c **** 
  19:.\Generated_Source\PSoC4/BLE_eventHandler.c **** /***************************************
  20:.\Generated_Source\PSoC4/BLE_eventHandler.c **** ##Private Function Prototypes
  21:.\Generated_Source\PSoC4/BLE_eventHandler.c **** ***************************************/
  22:.\Generated_Source\PSoC4/BLE_eventHandler.c **** 
  23:.\Generated_Source\PSoC4/BLE_eventHandler.c **** #if (CYBLE_GATT_ROLE_SERVER || CYBLE_GATT_ROLE_CLIENT)
  24:.\Generated_Source\PSoC4/BLE_eventHandler.c **** 
  25:.\Generated_Source\PSoC4/BLE_eventHandler.c **** static uint8 CyBle_IsDeviceAddressValid(const CYBLE_GAP_BD_ADDR_T *sflashDeviceAddress);
  26:.\Generated_Source\PSoC4/BLE_eventHandler.c **** 
  27:.\Generated_Source\PSoC4/BLE_eventHandler.c **** #endif /* CYBLE_GATT_ROLE_SERVER || CYBLE_GATT_ROLE_CLIENT */
  28:.\Generated_Source\PSoC4/BLE_eventHandler.c **** 
  29:.\Generated_Source\PSoC4/BLE_eventHandler.c **** static void CyBle_GattDisconnectEventHandler(void);
  30:.\Generated_Source\PSoC4/BLE_eventHandler.c **** static void CyBle_TimeOutEventHandler(const CYBLE_TO_REASON_CODE_T *eventParam);
  31:.\Generated_Source\PSoC4/BLE_eventHandler.c **** static void CyBle_GattConnectReqHandler(void);
  32:.\Generated_Source\PSoC4/BLE_eventHandler.c **** static void CyBle_L2Cap_ConnParamUpdateRspEventHandler(uint16 response);
  33:.\Generated_Source\PSoC4/BLE_eventHandler.c **** static void CyBle_GapConnUpdateCompleteEventHandler(const CYBLE_GAP_CONN_PARAM_UPDATED_IN_CONTROLLE
  34:.\Generated_Source\PSoC4/BLE_eventHandler.c **** 
  35:.\Generated_Source\PSoC4/BLE_eventHandler.c **** 
  36:.\Generated_Source\PSoC4/BLE_eventHandler.c **** #if (CYBLE_GATT_ROLE_SERVER)
  37:.\Generated_Source\PSoC4/BLE_eventHandler.c **** 
  38:.\Generated_Source\PSoC4/BLE_eventHandler.c **** static void CyBle_WriteReqHandler(CYBLE_GATTS_WRITE_REQ_PARAM_T *eventParam);
  39:.\Generated_Source\PSoC4/BLE_eventHandler.c **** static void CyBle_ValueConfirmation(const CYBLE_CONN_HANDLE_T *eventParam);
  40:.\Generated_Source\PSoC4/BLE_eventHandler.c **** 
  41:.\Generated_Source\PSoC4/BLE_eventHandler.c **** #endif /* CYBLE_GATT_ROLE_SERVER */
  42:.\Generated_Source\PSoC4/BLE_eventHandler.c **** 
  43:.\Generated_Source\PSoC4/BLE_eventHandler.c **** #if (CYBLE_GATT_ROLE_CLIENT)
  44:.\Generated_Source\PSoC4/BLE_eventHandler.c **** 
  45:.\Generated_Source\PSoC4/BLE_eventHandler.c **** static void CyBle_GapcDiscoverCharacteristicsEventHandler(CYBLE_DISC_CHAR_INFO_T *discCharInfo);
  46:.\Generated_Source\PSoC4/BLE_eventHandler.c **** static CYBLE_GATT_ATTR_HANDLE_RANGE_T CyBle_GetCharRange(void);
  47:.\Generated_Source\PSoC4/BLE_eventHandler.c **** static void CyBle_GattcWriteResponseEventHandler(const CYBLE_CONN_HANDLE_T *eventParam);
  48:.\Generated_Source\PSoC4/BLE_eventHandler.c **** static void CyBle_NotificationEventHandler(CYBLE_GATTC_HANDLE_VALUE_NTF_PARAM_T *eventParam);
  49:.\Generated_Source\PSoC4/BLE_eventHandler.c **** static void CyBle_IndicationEventHandler(CYBLE_GATTC_HANDLE_VALUE_IND_PARAM_T *eventParam);
  50:.\Generated_Source\PSoC4/BLE_eventHandler.c **** static void CyBle_ReadResponseEventHandler(CYBLE_GATTC_READ_RSP_PARAM_T *eventParam);
  51:.\Generated_Source\PSoC4/BLE_eventHandler.c **** 
  52:.\Generated_Source\PSoC4/BLE_eventHandler.c **** #endif /* CYBLE_GATT_ROLE_CLIENT */
  53:.\Generated_Source\PSoC4/BLE_eventHandler.c **** 
  54:.\Generated_Source\PSoC4/BLE_eventHandler.c **** 
  55:.\Generated_Source\PSoC4/BLE_eventHandler.c **** /***************************************
  56:.\Generated_Source\PSoC4/BLE_eventHandler.c **** ##Global Variables
ARM GAS  C:\Users\msuro\AppData\Local\Temp\ccG5pvI8.s 			page 3


  57:.\Generated_Source\PSoC4/BLE_eventHandler.c **** ***************************************/
  58:.\Generated_Source\PSoC4/BLE_eventHandler.c **** 
  59:.\Generated_Source\PSoC4/BLE_eventHandler.c **** /* This global variable is initialized after connection with peer device, 
  60:.\Generated_Source\PSoC4/BLE_eventHandler.c ****    after CYBLE_EVT_GATT_CONNECT_IND event, and could be used by application code
  61:.\Generated_Source\PSoC4/BLE_eventHandler.c ****    to send data to peer device. 
  62:.\Generated_Source\PSoC4/BLE_eventHandler.c **** */
  63:.\Generated_Source\PSoC4/BLE_eventHandler.c **** CYBLE_CONN_HANDLE_T cyBle_connHandle;
  64:.\Generated_Source\PSoC4/BLE_eventHandler.c **** 
  65:.\Generated_Source\PSoC4/BLE_eventHandler.c **** volatile uint8 cyBle_eventHandlerFlag;
  66:.\Generated_Source\PSoC4/BLE_eventHandler.c **** volatile uint8 cyBle_busyStatus;
  67:.\Generated_Source\PSoC4/BLE_eventHandler.c **** 
  68:.\Generated_Source\PSoC4/BLE_eventHandler.c **** #if(CYBLE_GAP_ROLE_PERIPHERAL || CYBLE_GAP_ROLE_BROADCASTER) 
  69:.\Generated_Source\PSoC4/BLE_eventHandler.c ****     uint8 cyBle_advertisingIntervalType;
  70:.\Generated_Source\PSoC4/BLE_eventHandler.c **** #endif /* CYBLE_GAP_ROLE_PERIPHERAL || CYBLE_GAP_ROLE_BROADCASTER) */
  71:.\Generated_Source\PSoC4/BLE_eventHandler.c **** 
  72:.\Generated_Source\PSoC4/BLE_eventHandler.c **** #if(CYBLE_GAP_ROLE_CENTRAL || CYBLE_GAP_ROLE_OBSERVER) 
  73:.\Generated_Source\PSoC4/BLE_eventHandler.c ****     uint8 cyBle_scanningIntervalType;
  74:.\Generated_Source\PSoC4/BLE_eventHandler.c **** #endif /* CYBLE_GAP_ROLE_CENTRAL || CYBLE_GAP_ROLE_OBSERVER */
  75:.\Generated_Source\PSoC4/BLE_eventHandler.c **** 
  76:.\Generated_Source\PSoC4/BLE_eventHandler.c **** #if(CYBLE_GATT_ROLE_CLIENT)
  77:.\Generated_Source\PSoC4/BLE_eventHandler.c **** uint8 cyBle_disCount; /* Counter for discovery procedures */
  78:.\Generated_Source\PSoC4/BLE_eventHandler.c **** static CYBLE_GATT_DB_ATTR_HANDLE_T cyBle_charEndHandle;
  79:.\Generated_Source\PSoC4/BLE_eventHandler.c **** #ifdef CYBLE_HIDS_CLIENT
  80:.\Generated_Source\PSoC4/BLE_eventHandler.c ****     static uint8 disServiceIndex;      /* To discovery descriptors for multiple HID service instanc
  81:.\Generated_Source\PSoC4/BLE_eventHandler.c **** #endif /* CYBLE_HIDS_CLIENT */
  82:.\Generated_Source\PSoC4/BLE_eventHandler.c **** 
  83:.\Generated_Source\PSoC4/BLE_eventHandler.c **** CYBLE_DISC_SRVC_INFO_T cyBle_serverInfo[CYBLE_SRVI_COUNT] = /*6*/
  84:.\Generated_Source\PSoC4/BLE_eventHandler.c **** {
  85:.\Generated_Source\PSoC4/BLE_eventHandler.c ****     {{CYBLE_GATT_INVALID_ATTR_HANDLE_VALUE, CYBLE_GATT_INVALID_ATTR_HANDLE_VALUE}, CYBLE_UUID_GAP_S
  86:.\Generated_Source\PSoC4/BLE_eventHandler.c ****     {{CYBLE_GATT_INVALID_ATTR_HANDLE_VALUE, CYBLE_GATT_INVALID_ATTR_HANDLE_VALUE}, CYBLE_UUID_GATT_
  87:.\Generated_Source\PSoC4/BLE_eventHandler.c **** #ifdef CYBLE_ANS_CLIENT
  88:.\Generated_Source\PSoC4/BLE_eventHandler.c ****     {{CYBLE_GATT_INVALID_ATTR_HANDLE_VALUE, CYBLE_GATT_INVALID_ATTR_HANDLE_VALUE}, CYBLE_UUID_ALERT
  89:.\Generated_Source\PSoC4/BLE_eventHandler.c **** #endif /* CYBLE_ANS_CLIENT */
  90:.\Generated_Source\PSoC4/BLE_eventHandler.c **** #ifdef CYBLE_BAS_CLIENT
  91:.\Generated_Source\PSoC4/BLE_eventHandler.c ****     {{CYBLE_GATT_INVALID_ATTR_HANDLE_VALUE, CYBLE_GATT_INVALID_ATTR_HANDLE_VALUE}, CYBLE_UUID_BAS_S
  92:.\Generated_Source\PSoC4/BLE_eventHandler.c ****     #if(CYBLE_BASC_SERVICE_COUNT > 1u) /* Generate it by GUI */
  93:.\Generated_Source\PSoC4/BLE_eventHandler.c ****         
  94:.\Generated_Source\PSoC4/BLE_eventHandler.c ****     #endif /* CYBLE_BASC_SERVICE_COUNT > 1u */
  95:.\Generated_Source\PSoC4/BLE_eventHandler.c **** #endif /* CYBLE_BAS_CLIENT */
  96:.\Generated_Source\PSoC4/BLE_eventHandler.c **** #ifdef CYBLE_BLS_CLIENT
  97:.\Generated_Source\PSoC4/BLE_eventHandler.c ****     {{CYBLE_GATT_INVALID_ATTR_HANDLE_VALUE, CYBLE_GATT_INVALID_ATTR_HANDLE_VALUE}, CYBLE_UUID_BLOOD
  98:.\Generated_Source\PSoC4/BLE_eventHandler.c **** #endif /* CYBLE_BLS_CLIENT */
  99:.\Generated_Source\PSoC4/BLE_eventHandler.c **** #ifdef CYBLE_CGMS_CLIENT
 100:.\Generated_Source\PSoC4/BLE_eventHandler.c ****     {{CYBLE_GATT_INVALID_ATTR_HANDLE_VALUE, CYBLE_GATT_INVALID_ATTR_HANDLE_VALUE}, CYBLE_UUID_CGM_S
 101:.\Generated_Source\PSoC4/BLE_eventHandler.c **** #endif /* CYBLE_CGMS_CLIENT */
 102:.\Generated_Source\PSoC4/BLE_eventHandler.c **** #ifdef CYBLE_CPS_CLIENT
 103:.\Generated_Source\PSoC4/BLE_eventHandler.c ****     {{CYBLE_GATT_INVALID_ATTR_HANDLE_VALUE, CYBLE_GATT_INVALID_ATTR_HANDLE_VALUE}, CYBLE_UUID_CPS_S
 104:.\Generated_Source\PSoC4/BLE_eventHandler.c **** #endif /* CYBLE_CPS_CLIENT */
 105:.\Generated_Source\PSoC4/BLE_eventHandler.c **** #ifdef CYBLE_CSCS_CLIENT
 106:.\Generated_Source\PSoC4/BLE_eventHandler.c ****     {{CYBLE_GATT_INVALID_ATTR_HANDLE_VALUE, CYBLE_GATT_INVALID_ATTR_HANDLE_VALUE}, CYBLE_UUID_CYCLI
 107:.\Generated_Source\PSoC4/BLE_eventHandler.c **** #endif /* CYBLE_CSCS_CLIENT */
 108:.\Generated_Source\PSoC4/BLE_eventHandler.c **** #ifdef CYBLE_CTS_CLIENT
 109:.\Generated_Source\PSoC4/BLE_eventHandler.c ****     {{CYBLE_GATT_INVALID_ATTR_HANDLE_VALUE, CYBLE_GATT_INVALID_ATTR_HANDLE_VALUE}, CYBLE_UUID_CURRE
 110:.\Generated_Source\PSoC4/BLE_eventHandler.c **** #endif /* CYBLE_CTS_CLIENT */
 111:.\Generated_Source\PSoC4/BLE_eventHandler.c **** #ifdef CYBLE_DIS_CLIENT
 112:.\Generated_Source\PSoC4/BLE_eventHandler.c ****     {{CYBLE_GATT_INVALID_ATTR_HANDLE_VALUE, CYBLE_GATT_INVALID_ATTR_HANDLE_VALUE}, CYBLE_UUID_DEVIC
 113:.\Generated_Source\PSoC4/BLE_eventHandler.c **** #endif /* CYBLE_DIS_CLIENT */
ARM GAS  C:\Users\msuro\AppData\Local\Temp\ccG5pvI8.s 			page 4


 114:.\Generated_Source\PSoC4/BLE_eventHandler.c **** #ifdef CYBLE_GLS_CLIENT
 115:.\Generated_Source\PSoC4/BLE_eventHandler.c ****     {{CYBLE_GATT_INVALID_ATTR_HANDLE_VALUE, CYBLE_GATT_INVALID_ATTR_HANDLE_VALUE}, CYBLE_UUID_GLUCO
 116:.\Generated_Source\PSoC4/BLE_eventHandler.c **** #endif /* CYBLE_GLS_CLIENT */
 117:.\Generated_Source\PSoC4/BLE_eventHandler.c **** #ifdef CYBLE_HIDS_CLIENT
 118:.\Generated_Source\PSoC4/BLE_eventHandler.c ****     {{CYBLE_GATT_INVALID_ATTR_HANDLE_VALUE, CYBLE_GATT_INVALID_ATTR_HANDLE_VALUE}, CYBLE_UUID_HIDS_
 119:.\Generated_Source\PSoC4/BLE_eventHandler.c ****     #if(CYBLE_HIDSC_SERVICE_COUNT > 1u) /* Generate it by GUI */
 120:.\Generated_Source\PSoC4/BLE_eventHandler.c ****         
 121:.\Generated_Source\PSoC4/BLE_eventHandler.c ****     #endif /* CYBLE_HIDSC_SERVICE_COUNT > 1u */
 122:.\Generated_Source\PSoC4/BLE_eventHandler.c **** #endif /* CYBLE_HIDS_CLIENT */
 123:.\Generated_Source\PSoC4/BLE_eventHandler.c **** #ifdef CYBLE_HRS_CLIENT
 124:.\Generated_Source\PSoC4/BLE_eventHandler.c ****     {{CYBLE_GATT_INVALID_ATTR_HANDLE_VALUE, CYBLE_GATT_INVALID_ATTR_HANDLE_VALUE}, CYBLE_UUID_HEART
 125:.\Generated_Source\PSoC4/BLE_eventHandler.c **** #endif /* CYBLE_HRS_CLIENT */
 126:.\Generated_Source\PSoC4/BLE_eventHandler.c **** #ifdef CYBLE_HTS_CLIENT
 127:.\Generated_Source\PSoC4/BLE_eventHandler.c ****     {{CYBLE_GATT_INVALID_ATTR_HANDLE_VALUE, CYBLE_GATT_INVALID_ATTR_HANDLE_VALUE}, CYBLE_UUID_HEALT
 128:.\Generated_Source\PSoC4/BLE_eventHandler.c **** #endif /* CYBLE_HTS_CLIENT */
 129:.\Generated_Source\PSoC4/BLE_eventHandler.c **** #ifdef CYBLE_IAS_CLIENT
 130:.\Generated_Source\PSoC4/BLE_eventHandler.c ****     {{CYBLE_GATT_INVALID_ATTR_HANDLE_VALUE, CYBLE_GATT_INVALID_ATTR_HANDLE_VALUE}, CYBLE_UUID_IMMED
 131:.\Generated_Source\PSoC4/BLE_eventHandler.c **** #endif /* CYBLE_IAS_CLIENT */
 132:.\Generated_Source\PSoC4/BLE_eventHandler.c **** #ifdef CYBLE_LLS_CLIENT
 133:.\Generated_Source\PSoC4/BLE_eventHandler.c ****     {{CYBLE_GATT_INVALID_ATTR_HANDLE_VALUE, CYBLE_GATT_INVALID_ATTR_HANDLE_VALUE}, CYBLE_UUID_LINK_
 134:.\Generated_Source\PSoC4/BLE_eventHandler.c **** #endif /* CYBLE_LLS_CLIENT */
 135:.\Generated_Source\PSoC4/BLE_eventHandler.c **** #ifdef CYBLE_LNS_CLIENT
 136:.\Generated_Source\PSoC4/BLE_eventHandler.c ****     {{CYBLE_GATT_INVALID_ATTR_HANDLE_VALUE, CYBLE_GATT_INVALID_ATTR_HANDLE_VALUE}, CYBLE_UUID_LOCAT
 137:.\Generated_Source\PSoC4/BLE_eventHandler.c **** #endif /* CYBLE_LNS_CLIENT */
 138:.\Generated_Source\PSoC4/BLE_eventHandler.c **** #ifdef CYBLE_NDCS_CLIENT
 139:.\Generated_Source\PSoC4/BLE_eventHandler.c ****     {{CYBLE_GATT_INVALID_ATTR_HANDLE_VALUE, CYBLE_GATT_INVALID_ATTR_HANDLE_VALUE}, CYBLE_UUID_NEXT_
 140:.\Generated_Source\PSoC4/BLE_eventHandler.c **** #endif /* CYBLE_NDCS_CLIENT */
 141:.\Generated_Source\PSoC4/BLE_eventHandler.c **** #ifdef CYBLE_PASS_CLIENT
 142:.\Generated_Source\PSoC4/BLE_eventHandler.c ****     {{CYBLE_GATT_INVALID_ATTR_HANDLE_VALUE, CYBLE_GATT_INVALID_ATTR_HANDLE_VALUE}, CYBLE_UUID_PHONE
 143:.\Generated_Source\PSoC4/BLE_eventHandler.c **** #endif /* CYBLE_PASS_CLIENT */
 144:.\Generated_Source\PSoC4/BLE_eventHandler.c **** #ifdef CYBLE_RSCS_CLIENT
 145:.\Generated_Source\PSoC4/BLE_eventHandler.c ****     {{CYBLE_GATT_INVALID_ATTR_HANDLE_VALUE, CYBLE_GATT_INVALID_ATTR_HANDLE_VALUE}, CYBLE_UUID_RUNNI
 146:.\Generated_Source\PSoC4/BLE_eventHandler.c **** #endif /* CYBLE_RSCS_CLIENT */
 147:.\Generated_Source\PSoC4/BLE_eventHandler.c **** #ifdef CYBLE_RTUS_CLIENT
 148:.\Generated_Source\PSoC4/BLE_eventHandler.c ****     {{CYBLE_GATT_INVALID_ATTR_HANDLE_VALUE, CYBLE_GATT_INVALID_ATTR_HANDLE_VALUE}, CYBLE_UUID_REF_T
 149:.\Generated_Source\PSoC4/BLE_eventHandler.c **** #endif /* CYBLE_RTUS_CLIENT */
 150:.\Generated_Source\PSoC4/BLE_eventHandler.c **** #ifdef CYBLE_SCPS_CLIENT
 151:.\Generated_Source\PSoC4/BLE_eventHandler.c ****     {{CYBLE_GATT_INVALID_ATTR_HANDLE_VALUE, CYBLE_GATT_INVALID_ATTR_HANDLE_VALUE}, CYBLE_UUID_SCAN_
 152:.\Generated_Source\PSoC4/BLE_eventHandler.c **** #endif /* CYBLE_SCPS_CLIENT */
 153:.\Generated_Source\PSoC4/BLE_eventHandler.c **** #ifdef CYBLE_TPS_CLIENT
 154:.\Generated_Source\PSoC4/BLE_eventHandler.c ****     {{CYBLE_GATT_INVALID_ATTR_HANDLE_VALUE, CYBLE_GATT_INVALID_ATTR_HANDLE_VALUE}, CYBLE_UUID_TX_PO
 155:.\Generated_Source\PSoC4/BLE_eventHandler.c **** #endif /* CYBLE_TPS_CLIENT */
 156:.\Generated_Source\PSoC4/BLE_eventHandler.c **** #ifdef CYBLE_UDS_CLIENT
 157:.\Generated_Source\PSoC4/BLE_eventHandler.c ****     {{CYBLE_GATT_INVALID_ATTR_HANDLE_VALUE, CYBLE_GATT_INVALID_ATTR_HANDLE_VALUE}, CYBLE_UUID_USER_
 158:.\Generated_Source\PSoC4/BLE_eventHandler.c **** #endif /* CYBLE_UDS_CLIENT */
 159:.\Generated_Source\PSoC4/BLE_eventHandler.c **** 
 160:.\Generated_Source\PSoC4/BLE_eventHandler.c **** };
 161:.\Generated_Source\PSoC4/BLE_eventHandler.c **** 
 162:.\Generated_Source\PSoC4/BLE_eventHandler.c **** CYBLE_GAPC_T cyBle_gapc;
 163:.\Generated_Source\PSoC4/BLE_eventHandler.c **** 
 164:.\Generated_Source\PSoC4/BLE_eventHandler.c **** #endif /* CYBLE_GATT_ROLE_CLIENT */
 165:.\Generated_Source\PSoC4/BLE_eventHandler.c **** 
 166:.\Generated_Source\PSoC4/BLE_eventHandler.c **** /* Default device security */
 167:.\Generated_Source\PSoC4/BLE_eventHandler.c **** CYBLE_GAP_AUTH_INFO_T cyBle_authInfo =
 168:.\Generated_Source\PSoC4/BLE_eventHandler.c **** {
 169:.\Generated_Source\PSoC4/BLE_eventHandler.c ****     (CYBLE_GAP_SEC_MODE_1 | CYBLE_GAP_SEC_LEVEL_1 ), /* uint8 security */
 170:.\Generated_Source\PSoC4/BLE_eventHandler.c ****     CYBLE_GAP_BONDING, /* uint8 bonding */
ARM GAS  C:\Users\msuro\AppData\Local\Temp\ccG5pvI8.s 			page 5


 171:.\Generated_Source\PSoC4/BLE_eventHandler.c ****     0x10u,      /* uint8 ekeySize */
 172:.\Generated_Source\PSoC4/BLE_eventHandler.c ****     CYBLE_GAP_AUTH_ERROR_NONE, /* CYBLE_AUTH_FAILED_REASON_T authErr */
 173:.\Generated_Source\PSoC4/BLE_eventHandler.c **** };
 174:.\Generated_Source\PSoC4/BLE_eventHandler.c **** 
 175:.\Generated_Source\PSoC4/BLE_eventHandler.c **** #if(CYBLE_GATT_ROLE_SERVER)
 176:.\Generated_Source\PSoC4/BLE_eventHandler.c **** 
 177:.\Generated_Source\PSoC4/BLE_eventHandler.c **** 
 178:.\Generated_Source\PSoC4/BLE_eventHandler.c **** /******************************************************************************    
 179:.\Generated_Source\PSoC4/BLE_eventHandler.c **** ##Function Name: CyBle_WriteReqHandler
 180:.\Generated_Source\PSoC4/BLE_eventHandler.c **** *******************************************************************************
 181:.\Generated_Source\PSoC4/BLE_eventHandler.c **** 
 182:.\Generated_Source\PSoC4/BLE_eventHandler.c **** Summary:
 183:.\Generated_Source\PSoC4/BLE_eventHandler.c ****  Handles the Write Request event from BLE stack.
 184:.\Generated_Source\PSoC4/BLE_eventHandler.c **** 
 185:.\Generated_Source\PSoC4/BLE_eventHandler.c **** Parameters:
 186:.\Generated_Source\PSoC4/BLE_eventHandler.c ****  CYBLE_GATTS_WRITE_REQ_PARAM_T * eventParam - event parameter
 187:.\Generated_Source\PSoC4/BLE_eventHandler.c **** 
 188:.\Generated_Source\PSoC4/BLE_eventHandler.c **** Return:
 189:.\Generated_Source\PSoC4/BLE_eventHandler.c ****  None
 190:.\Generated_Source\PSoC4/BLE_eventHandler.c **** 
 191:.\Generated_Source\PSoC4/BLE_eventHandler.c **** ******************************************************************************/
 192:.\Generated_Source\PSoC4/BLE_eventHandler.c **** static void CyBle_WriteReqHandler(CYBLE_GATTS_WRITE_REQ_PARAM_T *eventParam)
 193:.\Generated_Source\PSoC4/BLE_eventHandler.c **** {
  59              		.loc 1 193 0
  60              		.cfi_startproc
  61 0000 90B5     		push	{r4, r7, lr}
  62              		.cfi_def_cfa_offset 12
  63              		.cfi_offset 4, -12
  64              		.cfi_offset 7, -8
  65              		.cfi_offset 14, -4
  66 0002 85B0     		sub	sp, sp, #20
  67              		.cfi_def_cfa_offset 32
  68 0004 00AF     		add	r7, sp, #0
  69              		.cfi_def_cfa_register 7
  70 0006 7860     		str	r0, [r7, #4]
 194:.\Generated_Source\PSoC4/BLE_eventHandler.c ****     CYBLE_GATT_ERR_CODE_T gattErr;
 195:.\Generated_Source\PSoC4/BLE_eventHandler.c ****     
 196:.\Generated_Source\PSoC4/BLE_eventHandler.c ****     gattErr = CyBle_GattsWriteEventHandler(eventParam);
  71              		.loc 1 196 0
  72 0008 3C1C     		mov	r4, r7
  73 000a 0F34     		add	r4, r4, #15
  74 000c 7B68     		ldr	r3, [r7, #4]
  75 000e 181C     		mov	r0, r3
  76 0010 FFF7FEFF 		bl	CyBle_GattsWriteEventHandler
  77 0014 031C     		mov	r3, r0
  78 0016 2370     		strb	r3, [r4]
 197:.\Generated_Source\PSoC4/BLE_eventHandler.c **** #ifdef CYBLE_ANS_SERVER
 198:.\Generated_Source\PSoC4/BLE_eventHandler.c ****     if((CYBLE_GATT_ERR_NONE == gattErr) && ((cyBle_eventHandlerFlag & CYBLE_CALLBACK) != 0u))
 199:.\Generated_Source\PSoC4/BLE_eventHandler.c ****     {
 200:.\Generated_Source\PSoC4/BLE_eventHandler.c ****         gattErr = CyBle_AnssWriteEventHandler(eventParam);
 201:.\Generated_Source\PSoC4/BLE_eventHandler.c ****     }
 202:.\Generated_Source\PSoC4/BLE_eventHandler.c **** #endif /* CYBLE_ANS_SERVER */
 203:.\Generated_Source\PSoC4/BLE_eventHandler.c **** #ifdef CYBLE_BAS_SERVER
 204:.\Generated_Source\PSoC4/BLE_eventHandler.c ****     if((CYBLE_GATT_ERR_NONE == gattErr) && ((cyBle_eventHandlerFlag & CYBLE_CALLBACK) != 0u))
 205:.\Generated_Source\PSoC4/BLE_eventHandler.c ****     {
 206:.\Generated_Source\PSoC4/BLE_eventHandler.c ****         gattErr = CyBle_BassWriteEventHandler(eventParam);
 207:.\Generated_Source\PSoC4/BLE_eventHandler.c ****     }
ARM GAS  C:\Users\msuro\AppData\Local\Temp\ccG5pvI8.s 			page 6


 208:.\Generated_Source\PSoC4/BLE_eventHandler.c **** #endif /* CYBLE_BAS_SERVER */
 209:.\Generated_Source\PSoC4/BLE_eventHandler.c **** #ifdef CYBLE_BLS_SERVER
 210:.\Generated_Source\PSoC4/BLE_eventHandler.c ****     if((CYBLE_GATT_ERR_NONE == gattErr) && ((cyBle_eventHandlerFlag & CYBLE_CALLBACK) != 0u))
 211:.\Generated_Source\PSoC4/BLE_eventHandler.c ****     {
 212:.\Generated_Source\PSoC4/BLE_eventHandler.c ****         gattErr = CyBle_BlssWriteEventHandler(eventParam);
 213:.\Generated_Source\PSoC4/BLE_eventHandler.c ****     }
 214:.\Generated_Source\PSoC4/BLE_eventHandler.c **** #endif /* CYBLE_BLS_SERVER */
 215:.\Generated_Source\PSoC4/BLE_eventHandler.c **** #ifdef CYBLE_CPS_SERVER
 216:.\Generated_Source\PSoC4/BLE_eventHandler.c ****     if((CYBLE_GATT_ERR_NONE == gattErr) && ((cyBle_eventHandlerFlag & CYBLE_CALLBACK) != 0u))
 217:.\Generated_Source\PSoC4/BLE_eventHandler.c ****     {
 218:.\Generated_Source\PSoC4/BLE_eventHandler.c ****         gattErr = CyBle_CpssWriteEventHandler(eventParam);
 219:.\Generated_Source\PSoC4/BLE_eventHandler.c ****     }
 220:.\Generated_Source\PSoC4/BLE_eventHandler.c **** #endif /* CYBLE_CPS_SERVER */
 221:.\Generated_Source\PSoC4/BLE_eventHandler.c **** #ifdef CYBLE_CSCS_SERVER
 222:.\Generated_Source\PSoC4/BLE_eventHandler.c ****     if((CYBLE_GATT_ERR_NONE == gattErr) && ((cyBle_eventHandlerFlag & CYBLE_CALLBACK) != 0u))
 223:.\Generated_Source\PSoC4/BLE_eventHandler.c ****     {
 224:.\Generated_Source\PSoC4/BLE_eventHandler.c ****         gattErr = CyBle_CscssWriteEventHandler(eventParam);
 225:.\Generated_Source\PSoC4/BLE_eventHandler.c ****     }
 226:.\Generated_Source\PSoC4/BLE_eventHandler.c **** #endif /* CYBLE_CSCS_SERVER */
 227:.\Generated_Source\PSoC4/BLE_eventHandler.c **** #ifdef CYBLE_CTS_SERVER
 228:.\Generated_Source\PSoC4/BLE_eventHandler.c ****     if((CYBLE_GATT_ERR_NONE == gattErr) && ((cyBle_eventHandlerFlag & CYBLE_CALLBACK) != 0u))
 229:.\Generated_Source\PSoC4/BLE_eventHandler.c ****     {
 230:.\Generated_Source\PSoC4/BLE_eventHandler.c ****         gattErr = CyBle_CtssWriteEventHandler(eventParam);
 231:.\Generated_Source\PSoC4/BLE_eventHandler.c ****     }
 232:.\Generated_Source\PSoC4/BLE_eventHandler.c **** #endif /* CYBLE_CTS_SERVER */
 233:.\Generated_Source\PSoC4/BLE_eventHandler.c **** #ifdef CYBLE_GLS_SERVER
 234:.\Generated_Source\PSoC4/BLE_eventHandler.c ****     if((CYBLE_GATT_ERR_NONE == gattErr) && ((cyBle_eventHandlerFlag & CYBLE_CALLBACK) != 0u))
 235:.\Generated_Source\PSoC4/BLE_eventHandler.c ****     {
 236:.\Generated_Source\PSoC4/BLE_eventHandler.c ****         gattErr = CyBle_GlssWriteEventHandler(eventParam);
 237:.\Generated_Source\PSoC4/BLE_eventHandler.c ****     }
 238:.\Generated_Source\PSoC4/BLE_eventHandler.c **** #endif /* CYBLE_GLS_SERVER */
 239:.\Generated_Source\PSoC4/BLE_eventHandler.c **** #ifdef CYBLE_HIDS_SERVER
 240:.\Generated_Source\PSoC4/BLE_eventHandler.c ****     if((CYBLE_GATT_ERR_NONE == gattErr) && ((cyBle_eventHandlerFlag & CYBLE_CALLBACK) != 0u))
 241:.\Generated_Source\PSoC4/BLE_eventHandler.c ****     {
 242:.\Generated_Source\PSoC4/BLE_eventHandler.c ****         gattErr = CyBle_HidssWriteEventHandler(eventParam);
 243:.\Generated_Source\PSoC4/BLE_eventHandler.c ****     }
 244:.\Generated_Source\PSoC4/BLE_eventHandler.c **** #endif /* CYBLE_HIDS_SERVER */
 245:.\Generated_Source\PSoC4/BLE_eventHandler.c **** #ifdef CYBLE_HRS_SERVER
 246:.\Generated_Source\PSoC4/BLE_eventHandler.c ****     if((CYBLE_GATT_ERR_NONE == gattErr) && ((cyBle_eventHandlerFlag & CYBLE_CALLBACK) != 0u))
 247:.\Generated_Source\PSoC4/BLE_eventHandler.c ****     {
 248:.\Generated_Source\PSoC4/BLE_eventHandler.c ****         gattErr = CyBle_HrssWriteEventHandler(eventParam);
 249:.\Generated_Source\PSoC4/BLE_eventHandler.c ****     }
 250:.\Generated_Source\PSoC4/BLE_eventHandler.c **** #endif /* CYBLE_HRS_SERVER */
 251:.\Generated_Source\PSoC4/BLE_eventHandler.c **** #ifdef CYBLE_HTS_SERVER
 252:.\Generated_Source\PSoC4/BLE_eventHandler.c ****     if((CYBLE_GATT_ERR_NONE == gattErr) && ((cyBle_eventHandlerFlag & CYBLE_CALLBACK) != 0u))
 253:.\Generated_Source\PSoC4/BLE_eventHandler.c ****     {
 254:.\Generated_Source\PSoC4/BLE_eventHandler.c ****         gattErr = CyBle_HtssWriteEventHandler(eventParam);
 255:.\Generated_Source\PSoC4/BLE_eventHandler.c ****     }
 256:.\Generated_Source\PSoC4/BLE_eventHandler.c **** #endif /* CYBLE_HTS_SERVER */
 257:.\Generated_Source\PSoC4/BLE_eventHandler.c **** #ifdef CYBLE_LLS_SERVER
 258:.\Generated_Source\PSoC4/BLE_eventHandler.c ****     if((CYBLE_GATT_ERR_NONE == gattErr) && ((cyBle_eventHandlerFlag & CYBLE_CALLBACK) != 0u))
 259:.\Generated_Source\PSoC4/BLE_eventHandler.c ****     {
 260:.\Generated_Source\PSoC4/BLE_eventHandler.c ****         gattErr = CyBle_LlssWriteEventHandler(eventParam);
 261:.\Generated_Source\PSoC4/BLE_eventHandler.c ****     }
 262:.\Generated_Source\PSoC4/BLE_eventHandler.c **** #endif /* CYBLE_LLS_SERVER */
 263:.\Generated_Source\PSoC4/BLE_eventHandler.c **** #ifdef CYBLE_LNS_SERVER
 264:.\Generated_Source\PSoC4/BLE_eventHandler.c ****     if((CYBLE_GATT_ERR_NONE == gattErr) && ((cyBle_eventHandlerFlag & CYBLE_CALLBACK) != 0u))
ARM GAS  C:\Users\msuro\AppData\Local\Temp\ccG5pvI8.s 			page 7


 265:.\Generated_Source\PSoC4/BLE_eventHandler.c ****     {
 266:.\Generated_Source\PSoC4/BLE_eventHandler.c ****         gattErr = CyBle_LnssWriteEventHandler(eventParam);
 267:.\Generated_Source\PSoC4/BLE_eventHandler.c ****     }
 268:.\Generated_Source\PSoC4/BLE_eventHandler.c **** #endif /* CYBLE_LNS_SERVER */
 269:.\Generated_Source\PSoC4/BLE_eventHandler.c **** #ifdef CYBLE_PASS_SERVER
 270:.\Generated_Source\PSoC4/BLE_eventHandler.c ****     if((CYBLE_GATT_ERR_NONE == gattErr) && ((cyBle_eventHandlerFlag & CYBLE_CALLBACK) != 0u))
 271:.\Generated_Source\PSoC4/BLE_eventHandler.c ****     {
 272:.\Generated_Source\PSoC4/BLE_eventHandler.c ****         gattErr = CyBle_PasssWriteEventHandler(eventParam);
 273:.\Generated_Source\PSoC4/BLE_eventHandler.c ****     }
 274:.\Generated_Source\PSoC4/BLE_eventHandler.c **** #endif /* CYBLE_PASS_SERVER */
 275:.\Generated_Source\PSoC4/BLE_eventHandler.c **** #ifdef CYBLE_RSCS_SERVER
 276:.\Generated_Source\PSoC4/BLE_eventHandler.c ****     if((CYBLE_GATT_ERR_NONE == gattErr) && ((cyBle_eventHandlerFlag & CYBLE_CALLBACK) != 0u))
 277:.\Generated_Source\PSoC4/BLE_eventHandler.c ****     {
 278:.\Generated_Source\PSoC4/BLE_eventHandler.c ****         gattErr = CyBle_RscssWriteEventHandler(eventParam);
 279:.\Generated_Source\PSoC4/BLE_eventHandler.c ****     }
 280:.\Generated_Source\PSoC4/BLE_eventHandler.c **** #endif /* CYBLE_RSCS_SERVER */
 281:.\Generated_Source\PSoC4/BLE_eventHandler.c **** #ifdef CYBLE_SCPS_SERVER
 282:.\Generated_Source\PSoC4/BLE_eventHandler.c ****     if((CYBLE_GATT_ERR_NONE == gattErr) && ((cyBle_eventHandlerFlag & CYBLE_CALLBACK) != 0u))
 283:.\Generated_Source\PSoC4/BLE_eventHandler.c ****     {
 284:.\Generated_Source\PSoC4/BLE_eventHandler.c ****         gattErr = CyBle_ScpssWriteEventHandler(eventParam);
 285:.\Generated_Source\PSoC4/BLE_eventHandler.c ****     }
 286:.\Generated_Source\PSoC4/BLE_eventHandler.c **** #endif /* CYBLE_SCPS_SERVER */
 287:.\Generated_Source\PSoC4/BLE_eventHandler.c **** #ifdef CYBLE_TPS_SERVER
 288:.\Generated_Source\PSoC4/BLE_eventHandler.c ****     if((CYBLE_GATT_ERR_NONE == gattErr) && ((cyBle_eventHandlerFlag & CYBLE_CALLBACK) != 0u))
 289:.\Generated_Source\PSoC4/BLE_eventHandler.c ****     {
 290:.\Generated_Source\PSoC4/BLE_eventHandler.c ****         gattErr = CyBle_TpssWriteEventHandler(eventParam);
 291:.\Generated_Source\PSoC4/BLE_eventHandler.c ****     }
 292:.\Generated_Source\PSoC4/BLE_eventHandler.c **** #endif /* CYBLE_TPS_SERVER */
 293:.\Generated_Source\PSoC4/BLE_eventHandler.c **** #ifdef CYBLE_UDS_SERVER
 294:.\Generated_Source\PSoC4/BLE_eventHandler.c ****     if((CYBLE_GATT_ERR_NONE == gattErr) && ((cyBle_eventHandlerFlag & CYBLE_CALLBACK) != 0u))
 295:.\Generated_Source\PSoC4/BLE_eventHandler.c ****     {
 296:.\Generated_Source\PSoC4/BLE_eventHandler.c ****         gattErr = CyBle_UdssWriteEventHandler(eventParam);
 297:.\Generated_Source\PSoC4/BLE_eventHandler.c ****     }
 298:.\Generated_Source\PSoC4/BLE_eventHandler.c **** #endif /* CYBLE_UDS_SERVER */
 299:.\Generated_Source\PSoC4/BLE_eventHandler.c **** 
 300:.\Generated_Source\PSoC4/BLE_eventHandler.c ****     /* Send response when event was handled by service */
 301:.\Generated_Source\PSoC4/BLE_eventHandler.c ****     if((cyBle_eventHandlerFlag & CYBLE_CALLBACK) == 0u)
  79              		.loc 1 301 0
  80 0018 144B     		ldr	r3, .L4
  81 001a 1B78     		ldrb	r3, [r3]
  82 001c DBB2     		uxtb	r3, r3
  83 001e 1A1C     		mov	r2, r3
  84 0020 0123     		mov	r3, #1
  85 0022 1340     		and	r3, r2
  86 0024 1FD1     		bne	.L1
 302:.\Generated_Source\PSoC4/BLE_eventHandler.c ****     {
 303:.\Generated_Source\PSoC4/BLE_eventHandler.c ****         if(CYBLE_GATT_ERR_NONE != gattErr)
  87              		.loc 1 303 0
  88 0026 3B1C     		mov	r3, r7
  89 0028 0F33     		add	r3, r3, #15
  90 002a 1B78     		ldrb	r3, [r3]
  91 002c 002B     		cmp	r3, #0
  92 002e 16D0     		beq	.L3
  93              	.LBB2:
 304:.\Generated_Source\PSoC4/BLE_eventHandler.c ****         {
 305:.\Generated_Source\PSoC4/BLE_eventHandler.c ****             CYBLE_GATTS_ERR_PARAM_T err_param;
 306:.\Generated_Source\PSoC4/BLE_eventHandler.c ****             
ARM GAS  C:\Users\msuro\AppData\Local\Temp\ccG5pvI8.s 			page 8


 307:.\Generated_Source\PSoC4/BLE_eventHandler.c ****             err_param.opcode = (uint8) CYBLE_GATT_WRITE_REQ;
  94              		.loc 1 307 0
  95 0030 3B1C     		mov	r3, r7
  96 0032 0833     		add	r3, r3, #8
  97 0034 1222     		mov	r2, #18
  98 0036 9A70     		strb	r2, [r3, #2]
 308:.\Generated_Source\PSoC4/BLE_eventHandler.c ****             err_param.attrHandle = eventParam->handleValPair.attrHandle;
  99              		.loc 1 308 0
 100 0038 7B68     		ldr	r3, [r7, #4]
 101 003a 9A89     		ldrh	r2, [r3, #12]
 102 003c 3B1C     		mov	r3, r7
 103 003e 0833     		add	r3, r3, #8
 104 0040 1A80     		strh	r2, [r3]
 309:.\Generated_Source\PSoC4/BLE_eventHandler.c ****             err_param.errorCode = gattErr;
 105              		.loc 1 309 0
 106 0042 3B1C     		mov	r3, r7
 107 0044 0833     		add	r3, r3, #8
 108 0046 3A1C     		mov	r2, r7
 109 0048 0F32     		add	r2, r2, #15
 110 004a 1278     		ldrb	r2, [r2]
 111 004c DA70     		strb	r2, [r3, #3]
 310:.\Generated_Source\PSoC4/BLE_eventHandler.c **** 
 311:.\Generated_Source\PSoC4/BLE_eventHandler.c ****             /* Send Error Response */
 312:.\Generated_Source\PSoC4/BLE_eventHandler.c ****             (void)CyBle_GattsErrorRsp(eventParam->connHandle, &err_param);
 112              		.loc 1 312 0
 113 004e 7B68     		ldr	r3, [r7, #4]
 114 0050 3A1C     		mov	r2, r7
 115 0052 0832     		add	r2, r2, #8
 116 0054 1868     		ldr	r0, [r3]
 117 0056 111C     		mov	r1, r2
 118 0058 FFF7FEFF 		bl	CyBle_GattsErrorRsp
 119              	.LBE2:
 120 005c 03E0     		b	.L1
 121              	.L3:
 313:.\Generated_Source\PSoC4/BLE_eventHandler.c ****         }
 314:.\Generated_Source\PSoC4/BLE_eventHandler.c ****         else
 315:.\Generated_Source\PSoC4/BLE_eventHandler.c ****         {
 316:.\Generated_Source\PSoC4/BLE_eventHandler.c ****             (void)CyBle_GattsWriteRsp(eventParam->connHandle);
 122              		.loc 1 316 0
 123 005e 7B68     		ldr	r3, [r7, #4]
 124 0060 1868     		ldr	r0, [r3]
 125 0062 FFF7FEFF 		bl	CyBle_GattsWriteRsp
 126              	.L1:
 317:.\Generated_Source\PSoC4/BLE_eventHandler.c ****         }
 318:.\Generated_Source\PSoC4/BLE_eventHandler.c ****     }
 319:.\Generated_Source\PSoC4/BLE_eventHandler.c **** }
 127              		.loc 1 319 0
 128 0066 BD46     		mov	sp, r7
 129 0068 05B0     		add	sp, sp, #20
 130              		@ sp needed
 131 006a 90BD     		pop	{r4, r7, pc}
 132              	.L5:
 133              		.align	2
 134              	.L4:
 135 006c 00000000 		.word	cyBle_eventHandlerFlag
 136              		.cfi_endproc
 137              	.LFE2:
ARM GAS  C:\Users\msuro\AppData\Local\Temp\ccG5pvI8.s 			page 9


 138              		.size	CyBle_WriteReqHandler, .-CyBle_WriteReqHandler
 139              		.section	.text.CyBle_ValueConfirmation,"ax",%progbits
 140              		.align	2
 141              		.code	16
 142              		.thumb_func
 143              		.type	CyBle_ValueConfirmation, %function
 144              	CyBle_ValueConfirmation:
 145              	.LFB3:
 320:.\Generated_Source\PSoC4/BLE_eventHandler.c **** 
 321:.\Generated_Source\PSoC4/BLE_eventHandler.c **** 
 322:.\Generated_Source\PSoC4/BLE_eventHandler.c **** /****************************************************************************** 
 323:.\Generated_Source\PSoC4/BLE_eventHandler.c **** ##Function Name: CyBle_ValueConfirmation
 324:.\Generated_Source\PSoC4/BLE_eventHandler.c **** *******************************************************************************
 325:.\Generated_Source\PSoC4/BLE_eventHandler.c **** 
 326:.\Generated_Source\PSoC4/BLE_eventHandler.c **** Summary:
 327:.\Generated_Source\PSoC4/BLE_eventHandler.c ****  Handles the Value Confirmation request event from the BLE stack.
 328:.\Generated_Source\PSoC4/BLE_eventHandler.c **** 
 329:.\Generated_Source\PSoC4/BLE_eventHandler.c **** Parameters:
 330:.\Generated_Source\PSoC4/BLE_eventHandler.c ****  CYBLE_CONN_HANDLE_T *eventParam - Pointer to a structure
 331:.\Generated_Source\PSoC4/BLE_eventHandler.c ****     of type 'CYBLE_CONN_HANDLE_T'
 332:.\Generated_Source\PSoC4/BLE_eventHandler.c **** 
 333:.\Generated_Source\PSoC4/BLE_eventHandler.c **** Return:
 334:.\Generated_Source\PSoC4/BLE_eventHandler.c ****  None
 335:.\Generated_Source\PSoC4/BLE_eventHandler.c **** 
 336:.\Generated_Source\PSoC4/BLE_eventHandler.c **** ******************************************************************************/
 337:.\Generated_Source\PSoC4/BLE_eventHandler.c **** static void CyBle_ValueConfirmation(const CYBLE_CONN_HANDLE_T *eventParam)
 338:.\Generated_Source\PSoC4/BLE_eventHandler.c **** {
 146              		.loc 1 338 0
 147              		.cfi_startproc
 148 0000 80B5     		push	{r7, lr}
 149              		.cfi_def_cfa_offset 8
 150              		.cfi_offset 7, -8
 151              		.cfi_offset 14, -4
 152 0002 82B0     		sub	sp, sp, #8
 153              		.cfi_def_cfa_offset 16
 154 0004 00AF     		add	r7, sp, #0
 155              		.cfi_def_cfa_register 7
 156 0006 7860     		str	r0, [r7, #4]
 339:.\Generated_Source\PSoC4/BLE_eventHandler.c ****     if(eventParam != NULL)
 340:.\Generated_Source\PSoC4/BLE_eventHandler.c ****     {
 341:.\Generated_Source\PSoC4/BLE_eventHandler.c ****     #ifdef CYBLE_BLS_SERVER
 342:.\Generated_Source\PSoC4/BLE_eventHandler.c ****         CyBle_BlssConfirmationEventHandler(eventParam);
 343:.\Generated_Source\PSoC4/BLE_eventHandler.c ****     #endif /* CYBLE_BLS_SERVER */
 344:.\Generated_Source\PSoC4/BLE_eventHandler.c ****     
 345:.\Generated_Source\PSoC4/BLE_eventHandler.c ****     #ifdef CYBLE_CPS_SERVER
 346:.\Generated_Source\PSoC4/BLE_eventHandler.c ****         if((cyBle_eventHandlerFlag & CYBLE_CALLBACK) != 0u)
 347:.\Generated_Source\PSoC4/BLE_eventHandler.c ****         {
 348:.\Generated_Source\PSoC4/BLE_eventHandler.c ****             CyBle_CpssConfirmationEventHandler(eventParam);
 349:.\Generated_Source\PSoC4/BLE_eventHandler.c ****         }
 350:.\Generated_Source\PSoC4/BLE_eventHandler.c ****     #endif /* CYBLE_CPS_SERVER */
 351:.\Generated_Source\PSoC4/BLE_eventHandler.c ****     
 352:.\Generated_Source\PSoC4/BLE_eventHandler.c ****     #ifdef CYBLE_CSCS_SERVER
 353:.\Generated_Source\PSoC4/BLE_eventHandler.c ****         if((cyBle_eventHandlerFlag & CYBLE_CALLBACK) != 0u)
 354:.\Generated_Source\PSoC4/BLE_eventHandler.c ****         {
 355:.\Generated_Source\PSoC4/BLE_eventHandler.c ****             CyBle_CscssConfirmationEventHandler(eventParam);
 356:.\Generated_Source\PSoC4/BLE_eventHandler.c ****         }
 357:.\Generated_Source\PSoC4/BLE_eventHandler.c ****     #endif /* CYBLE_CSCS_SERVER */
ARM GAS  C:\Users\msuro\AppData\Local\Temp\ccG5pvI8.s 			page 10


 358:.\Generated_Source\PSoC4/BLE_eventHandler.c ****     
 359:.\Generated_Source\PSoC4/BLE_eventHandler.c ****     #ifdef CYBLE_GLS_SERVER
 360:.\Generated_Source\PSoC4/BLE_eventHandler.c ****         if((cyBle_eventHandlerFlag & CYBLE_CALLBACK) != 0u)
 361:.\Generated_Source\PSoC4/BLE_eventHandler.c ****         {
 362:.\Generated_Source\PSoC4/BLE_eventHandler.c ****             CyBle_GlssConfirmationEventHandler(eventParam);
 363:.\Generated_Source\PSoC4/BLE_eventHandler.c ****         }
 364:.\Generated_Source\PSoC4/BLE_eventHandler.c ****     #endif /* CYBLE_GLS_SERVER */
 365:.\Generated_Source\PSoC4/BLE_eventHandler.c ****     
 366:.\Generated_Source\PSoC4/BLE_eventHandler.c ****     #ifdef CYBLE_HTS_SERVER
 367:.\Generated_Source\PSoC4/BLE_eventHandler.c ****         if((cyBle_eventHandlerFlag & CYBLE_CALLBACK) != 0u)
 368:.\Generated_Source\PSoC4/BLE_eventHandler.c ****         {
 369:.\Generated_Source\PSoC4/BLE_eventHandler.c ****             CyBle_HtssConfirmationEventHandler(eventParam);
 370:.\Generated_Source\PSoC4/BLE_eventHandler.c ****         }
 371:.\Generated_Source\PSoC4/BLE_eventHandler.c ****     #endif /* CYBLE_HTS_SERVER */
 372:.\Generated_Source\PSoC4/BLE_eventHandler.c **** 
 373:.\Generated_Source\PSoC4/BLE_eventHandler.c ****     #ifdef CYBLE_LNS_SERVER
 374:.\Generated_Source\PSoC4/BLE_eventHandler.c ****         if((cyBle_eventHandlerFlag & CYBLE_CALLBACK) != 0u)
 375:.\Generated_Source\PSoC4/BLE_eventHandler.c ****         {
 376:.\Generated_Source\PSoC4/BLE_eventHandler.c ****             CyBle_LnssConfirmationEventHandler(eventParam);
 377:.\Generated_Source\PSoC4/BLE_eventHandler.c ****         }
 378:.\Generated_Source\PSoC4/BLE_eventHandler.c ****     #endif /* CYBLE_LNS_SERVER */
 379:.\Generated_Source\PSoC4/BLE_eventHandler.c ****     
 380:.\Generated_Source\PSoC4/BLE_eventHandler.c ****     #ifdef CYBLE_RSCS_SERVER
 381:.\Generated_Source\PSoC4/BLE_eventHandler.c ****         if((cyBle_eventHandlerFlag & CYBLE_CALLBACK) != 0u)
 382:.\Generated_Source\PSoC4/BLE_eventHandler.c ****         {
 383:.\Generated_Source\PSoC4/BLE_eventHandler.c ****             CyBle_RscssConfirmationEventHandler(eventParam);
 384:.\Generated_Source\PSoC4/BLE_eventHandler.c ****         }
 385:.\Generated_Source\PSoC4/BLE_eventHandler.c ****     #endif /* CYBLE_RSCS_SERVER */
 386:.\Generated_Source\PSoC4/BLE_eventHandler.c ****     
 387:.\Generated_Source\PSoC4/BLE_eventHandler.c ****     #ifdef CYBLE_UDS_SERVER
 388:.\Generated_Source\PSoC4/BLE_eventHandler.c ****         if((cyBle_eventHandlerFlag & CYBLE_CALLBACK) != 0u)
 389:.\Generated_Source\PSoC4/BLE_eventHandler.c ****         {
 390:.\Generated_Source\PSoC4/BLE_eventHandler.c ****             CyBle_UdssConfirmationEventHandler(eventParam);
 391:.\Generated_Source\PSoC4/BLE_eventHandler.c ****         }
 392:.\Generated_Source\PSoC4/BLE_eventHandler.c ****     #endif /* CYBLE_UDS_SERVER */
 393:.\Generated_Source\PSoC4/BLE_eventHandler.c ****     }
 394:.\Generated_Source\PSoC4/BLE_eventHandler.c **** }
 157              		.loc 1 394 0
 158 0008 BD46     		mov	sp, r7
 159 000a 02B0     		add	sp, sp, #8
 160              		@ sp needed
 161 000c 80BD     		pop	{r7, pc}
 162              		.cfi_endproc
 163              	.LFE3:
 164              		.size	CyBle_ValueConfirmation, .-CyBle_ValueConfirmation
 165              		.section	.text.CyBle_GattcWriteResponseEventHandler,"ax",%progbits
 166              		.align	2
 167              		.code	16
 168              		.thumb_func
 169              		.type	CyBle_GattcWriteResponseEventHandler, %function
 170              	CyBle_GattcWriteResponseEventHandler:
 171              	.LFB4:
 395:.\Generated_Source\PSoC4/BLE_eventHandler.c **** 
 396:.\Generated_Source\PSoC4/BLE_eventHandler.c **** #endif /* CYBLE_GATT_ROLE_SERVER */
 397:.\Generated_Source\PSoC4/BLE_eventHandler.c **** 
 398:.\Generated_Source\PSoC4/BLE_eventHandler.c **** 
 399:.\Generated_Source\PSoC4/BLE_eventHandler.c **** #if (CYBLE_GATT_ROLE_CLIENT)
ARM GAS  C:\Users\msuro\AppData\Local\Temp\ccG5pvI8.s 			page 11


 400:.\Generated_Source\PSoC4/BLE_eventHandler.c **** 
 401:.\Generated_Source\PSoC4/BLE_eventHandler.c **** /****************************************************************************** 
 402:.\Generated_Source\PSoC4/BLE_eventHandler.c **** ##Function Name: CyBle_GattcWriteResponseEventHandler
 403:.\Generated_Source\PSoC4/BLE_eventHandler.c **** *******************************************************************************
 404:.\Generated_Source\PSoC4/BLE_eventHandler.c **** 
 405:.\Generated_Source\PSoC4/BLE_eventHandler.c **** Summary:
 406:.\Generated_Source\PSoC4/BLE_eventHandler.c ****  Handles the Write response event from the BLE stack.
 407:.\Generated_Source\PSoC4/BLE_eventHandler.c **** 
 408:.\Generated_Source\PSoC4/BLE_eventHandler.c **** Parameters:
 409:.\Generated_Source\PSoC4/BLE_eventHandler.c ****  CYBLE_CONN_HANDLE_T *eventParam - Pointer to a structure
 410:.\Generated_Source\PSoC4/BLE_eventHandler.c ****     of type 'CYBLE_CONN_HANDLE_T'
 411:.\Generated_Source\PSoC4/BLE_eventHandler.c **** 
 412:.\Generated_Source\PSoC4/BLE_eventHandler.c **** Return:
 413:.\Generated_Source\PSoC4/BLE_eventHandler.c ****  None
 414:.\Generated_Source\PSoC4/BLE_eventHandler.c **** 
 415:.\Generated_Source\PSoC4/BLE_eventHandler.c **** ******************************************************************************/
 416:.\Generated_Source\PSoC4/BLE_eventHandler.c **** static void CyBle_GattcWriteResponseEventHandler(const CYBLE_CONN_HANDLE_T *eventParam)
 417:.\Generated_Source\PSoC4/BLE_eventHandler.c **** {
 172              		.loc 1 417 0
 173              		.cfi_startproc
 174 0000 80B5     		push	{r7, lr}
 175              		.cfi_def_cfa_offset 8
 176              		.cfi_offset 7, -8
 177              		.cfi_offset 14, -4
 178 0002 82B0     		sub	sp, sp, #8
 179              		.cfi_def_cfa_offset 16
 180 0004 00AF     		add	r7, sp, #0
 181              		.cfi_def_cfa_register 7
 182 0006 7860     		str	r0, [r7, #4]
 418:.\Generated_Source\PSoC4/BLE_eventHandler.c **** #ifdef CYBLE_ANS_CLIENT
 419:.\Generated_Source\PSoC4/BLE_eventHandler.c ****     CyBle_AnscWriteResponseEventHandler(eventParam);
 420:.\Generated_Source\PSoC4/BLE_eventHandler.c **** #endif /* CYBLE_ANS_CLIENT */
 421:.\Generated_Source\PSoC4/BLE_eventHandler.c **** 
 422:.\Generated_Source\PSoC4/BLE_eventHandler.c **** #ifdef CYBLE_BAS_CLIENT
 423:.\Generated_Source\PSoC4/BLE_eventHandler.c ****     if((cyBle_eventHandlerFlag & CYBLE_CALLBACK) != 0u)
 424:.\Generated_Source\PSoC4/BLE_eventHandler.c ****     {
 425:.\Generated_Source\PSoC4/BLE_eventHandler.c ****         CyBle_BascWriteResponseEventHandler(eventParam);
 426:.\Generated_Source\PSoC4/BLE_eventHandler.c ****     }
 427:.\Generated_Source\PSoC4/BLE_eventHandler.c **** #endif /* CYBLE_BAS_CLIENT */
 428:.\Generated_Source\PSoC4/BLE_eventHandler.c **** 
 429:.\Generated_Source\PSoC4/BLE_eventHandler.c **** #ifdef CYBLE_BLS_CLIENT
 430:.\Generated_Source\PSoC4/BLE_eventHandler.c ****     if((cyBle_eventHandlerFlag & CYBLE_CALLBACK) != 0u)
 431:.\Generated_Source\PSoC4/BLE_eventHandler.c ****     {
 432:.\Generated_Source\PSoC4/BLE_eventHandler.c ****         CyBle_BlscWriteResponseEventHandler(eventParam);
 433:.\Generated_Source\PSoC4/BLE_eventHandler.c ****     }
 434:.\Generated_Source\PSoC4/BLE_eventHandler.c **** #endif /* CYBLE_BLS_CLIENT */
 435:.\Generated_Source\PSoC4/BLE_eventHandler.c **** 
 436:.\Generated_Source\PSoC4/BLE_eventHandler.c **** #ifdef CYBLE_CGMS_CLIENT
 437:.\Generated_Source\PSoC4/BLE_eventHandler.c ****     if((cyBle_eventHandlerFlag & CYBLE_CALLBACK) != 0u)
 438:.\Generated_Source\PSoC4/BLE_eventHandler.c ****     {
 439:.\Generated_Source\PSoC4/BLE_eventHandler.c ****         CyBle_CgmscWriteResponseEventHandler(eventParam);
 440:.\Generated_Source\PSoC4/BLE_eventHandler.c ****     }
 441:.\Generated_Source\PSoC4/BLE_eventHandler.c **** #endif /* CYBLE_CGMS_CLIENT */
 442:.\Generated_Source\PSoC4/BLE_eventHandler.c **** 
 443:.\Generated_Source\PSoC4/BLE_eventHandler.c **** #ifdef CYBLE_CPS_CLIENT
 444:.\Generated_Source\PSoC4/BLE_eventHandler.c ****     if((cyBle_eventHandlerFlag & CYBLE_CALLBACK) != 0u)
 445:.\Generated_Source\PSoC4/BLE_eventHandler.c ****     {
ARM GAS  C:\Users\msuro\AppData\Local\Temp\ccG5pvI8.s 			page 12


 446:.\Generated_Source\PSoC4/BLE_eventHandler.c ****         CyBle_CpscWriteResponseEventHandler(eventParam);
 447:.\Generated_Source\PSoC4/BLE_eventHandler.c ****     }
 448:.\Generated_Source\PSoC4/BLE_eventHandler.c **** #endif /* CYBLE_CPS_CLIENT */
 449:.\Generated_Source\PSoC4/BLE_eventHandler.c **** 
 450:.\Generated_Source\PSoC4/BLE_eventHandler.c **** #ifdef CYBLE_CSCS_CLIENT
 451:.\Generated_Source\PSoC4/BLE_eventHandler.c ****     if((cyBle_eventHandlerFlag & CYBLE_CALLBACK) != 0u)
 452:.\Generated_Source\PSoC4/BLE_eventHandler.c ****     {
 453:.\Generated_Source\PSoC4/BLE_eventHandler.c ****         CyBle_CscscWriteResponseEventHandler(eventParam);
 454:.\Generated_Source\PSoC4/BLE_eventHandler.c ****     }
 455:.\Generated_Source\PSoC4/BLE_eventHandler.c **** #endif /* CYBLE_CSCS_CLIENT */
 456:.\Generated_Source\PSoC4/BLE_eventHandler.c **** 
 457:.\Generated_Source\PSoC4/BLE_eventHandler.c **** #ifdef CYBLE_CTS_CLIENT
 458:.\Generated_Source\PSoC4/BLE_eventHandler.c ****     if((cyBle_eventHandlerFlag & CYBLE_CALLBACK) != 0u)
 459:.\Generated_Source\PSoC4/BLE_eventHandler.c ****     {
 460:.\Generated_Source\PSoC4/BLE_eventHandler.c ****         CyBle_CtscWriteResponseEventHandler(eventParam);
 461:.\Generated_Source\PSoC4/BLE_eventHandler.c ****     }
 462:.\Generated_Source\PSoC4/BLE_eventHandler.c **** #endif /* CYBLE_CTS_CLIENT */
 463:.\Generated_Source\PSoC4/BLE_eventHandler.c **** 
 464:.\Generated_Source\PSoC4/BLE_eventHandler.c **** #ifdef CYBLE_GLS_CLIENT
 465:.\Generated_Source\PSoC4/BLE_eventHandler.c ****     if((cyBle_eventHandlerFlag & CYBLE_CALLBACK) != 0u)
 466:.\Generated_Source\PSoC4/BLE_eventHandler.c ****     {
 467:.\Generated_Source\PSoC4/BLE_eventHandler.c ****         CyBle_GlscWriteResponseEventHandler(eventParam);
 468:.\Generated_Source\PSoC4/BLE_eventHandler.c ****     }
 469:.\Generated_Source\PSoC4/BLE_eventHandler.c **** #endif /* CYBLE_GLS_CLIENT */
 470:.\Generated_Source\PSoC4/BLE_eventHandler.c **** 
 471:.\Generated_Source\PSoC4/BLE_eventHandler.c **** #ifdef CYBLE_HIDS_CLIENT
 472:.\Generated_Source\PSoC4/BLE_eventHandler.c ****     if((cyBle_eventHandlerFlag & CYBLE_CALLBACK) != 0u)
 473:.\Generated_Source\PSoC4/BLE_eventHandler.c ****     {
 474:.\Generated_Source\PSoC4/BLE_eventHandler.c ****         CyBle_HidscWriteResponseEventHandler(eventParam);
 475:.\Generated_Source\PSoC4/BLE_eventHandler.c ****     }
 476:.\Generated_Source\PSoC4/BLE_eventHandler.c **** #endif /* CYBLE_HIDS_CLIENT */
 477:.\Generated_Source\PSoC4/BLE_eventHandler.c **** 
 478:.\Generated_Source\PSoC4/BLE_eventHandler.c **** #ifdef CYBLE_HRS_CLIENT
 479:.\Generated_Source\PSoC4/BLE_eventHandler.c ****     if((cyBle_eventHandlerFlag & CYBLE_CALLBACK) != 0u)
 480:.\Generated_Source\PSoC4/BLE_eventHandler.c ****     {
 481:.\Generated_Source\PSoC4/BLE_eventHandler.c ****         CyBle_HrscWriteResponseEventHandler(eventParam);
 482:.\Generated_Source\PSoC4/BLE_eventHandler.c ****     }
 483:.\Generated_Source\PSoC4/BLE_eventHandler.c **** #endif /* CYBLE_HRS_CLIENT */
 484:.\Generated_Source\PSoC4/BLE_eventHandler.c **** 
 485:.\Generated_Source\PSoC4/BLE_eventHandler.c **** #ifdef CYBLE_HTS_CLIENT
 486:.\Generated_Source\PSoC4/BLE_eventHandler.c ****     if((cyBle_eventHandlerFlag & CYBLE_CALLBACK) != 0u)
 487:.\Generated_Source\PSoC4/BLE_eventHandler.c ****     {
 488:.\Generated_Source\PSoC4/BLE_eventHandler.c ****         CyBle_HtscWriteResponseEventHandler(eventParam);
 489:.\Generated_Source\PSoC4/BLE_eventHandler.c ****     }
 490:.\Generated_Source\PSoC4/BLE_eventHandler.c **** #endif /* CYBLE_HTS_CLIENT */
 491:.\Generated_Source\PSoC4/BLE_eventHandler.c **** 
 492:.\Generated_Source\PSoC4/BLE_eventHandler.c **** #ifdef CYBLE_LLS_CLIENT
 493:.\Generated_Source\PSoC4/BLE_eventHandler.c ****     if((cyBle_eventHandlerFlag & CYBLE_CALLBACK) != 0u)
 494:.\Generated_Source\PSoC4/BLE_eventHandler.c ****     {
 495:.\Generated_Source\PSoC4/BLE_eventHandler.c ****         CyBle_LlscWriteResponseEventHandler(eventParam);
 496:.\Generated_Source\PSoC4/BLE_eventHandler.c ****     }
 497:.\Generated_Source\PSoC4/BLE_eventHandler.c **** #endif /* CYBLE_LLS_CLIENT */
 498:.\Generated_Source\PSoC4/BLE_eventHandler.c **** 
 499:.\Generated_Source\PSoC4/BLE_eventHandler.c **** #ifdef CYBLE_LNS_CLIENT
 500:.\Generated_Source\PSoC4/BLE_eventHandler.c ****     if((cyBle_eventHandlerFlag & CYBLE_CALLBACK) != 0u)
 501:.\Generated_Source\PSoC4/BLE_eventHandler.c ****     {
 502:.\Generated_Source\PSoC4/BLE_eventHandler.c ****         CyBle_LnscWriteResponseEventHandler(eventParam);
ARM GAS  C:\Users\msuro\AppData\Local\Temp\ccG5pvI8.s 			page 13


 503:.\Generated_Source\PSoC4/BLE_eventHandler.c ****     }
 504:.\Generated_Source\PSoC4/BLE_eventHandler.c **** #endif /* CYBLE_LNS_CLIENT */
 505:.\Generated_Source\PSoC4/BLE_eventHandler.c **** 
 506:.\Generated_Source\PSoC4/BLE_eventHandler.c **** #ifdef CYBLE_PASS_CLIENT
 507:.\Generated_Source\PSoC4/BLE_eventHandler.c ****     if((cyBle_eventHandlerFlag & CYBLE_CALLBACK) != 0u)
 508:.\Generated_Source\PSoC4/BLE_eventHandler.c ****     {
 509:.\Generated_Source\PSoC4/BLE_eventHandler.c ****         CyBle_PasscWriteResponseEventHandler(eventParam);
 510:.\Generated_Source\PSoC4/BLE_eventHandler.c ****     }
 511:.\Generated_Source\PSoC4/BLE_eventHandler.c **** #endif /* CYBLE_PASS_CLIENT */
 512:.\Generated_Source\PSoC4/BLE_eventHandler.c **** 
 513:.\Generated_Source\PSoC4/BLE_eventHandler.c **** #ifdef CYBLE_RSCS_CLIENT
 514:.\Generated_Source\PSoC4/BLE_eventHandler.c ****     if((cyBle_eventHandlerFlag & CYBLE_CALLBACK) != 0u)
 515:.\Generated_Source\PSoC4/BLE_eventHandler.c ****     {
 516:.\Generated_Source\PSoC4/BLE_eventHandler.c ****         CyBle_RscscWriteResponseEventHandler(eventParam);
 517:.\Generated_Source\PSoC4/BLE_eventHandler.c ****     }
 518:.\Generated_Source\PSoC4/BLE_eventHandler.c **** #endif /* CYBLE_RSCS_CLIENT */
 519:.\Generated_Source\PSoC4/BLE_eventHandler.c **** 
 520:.\Generated_Source\PSoC4/BLE_eventHandler.c **** #ifdef CYBLE_SCPS_CLIENT
 521:.\Generated_Source\PSoC4/BLE_eventHandler.c ****     if((cyBle_eventHandlerFlag & CYBLE_CALLBACK) != 0u)
 522:.\Generated_Source\PSoC4/BLE_eventHandler.c ****     {
 523:.\Generated_Source\PSoC4/BLE_eventHandler.c ****         CyBle_ScpscWriteResponseEventHandler(eventParam);
 524:.\Generated_Source\PSoC4/BLE_eventHandler.c ****     }
 525:.\Generated_Source\PSoC4/BLE_eventHandler.c **** #endif /* CYBLE_SCPS_CLIENT */
 526:.\Generated_Source\PSoC4/BLE_eventHandler.c **** 
 527:.\Generated_Source\PSoC4/BLE_eventHandler.c **** #ifdef CYBLE_TPS_CLIENT
 528:.\Generated_Source\PSoC4/BLE_eventHandler.c ****     if((cyBle_eventHandlerFlag & CYBLE_CALLBACK) != 0u)
 183              		.loc 1 528 0
 184 0008 064B     		ldr	r3, .L9
 185 000a 1B78     		ldrb	r3, [r3]
 186 000c DBB2     		uxtb	r3, r3
 187 000e 1A1C     		mov	r2, r3
 188 0010 0123     		mov	r3, #1
 189 0012 1340     		and	r3, r2
 190 0014 03D0     		beq	.L7
 529:.\Generated_Source\PSoC4/BLE_eventHandler.c ****     {
 530:.\Generated_Source\PSoC4/BLE_eventHandler.c ****         CyBle_TpscWriteResponseEventHandler(eventParam);
 191              		.loc 1 530 0
 192 0016 7B68     		ldr	r3, [r7, #4]
 193 0018 181C     		mov	r0, r3
 194 001a FFF7FEFF 		bl	CyBle_TpscWriteResponseEventHandler
 195              	.L7:
 531:.\Generated_Source\PSoC4/BLE_eventHandler.c ****     }
 532:.\Generated_Source\PSoC4/BLE_eventHandler.c **** #endif /* CYBLE_TPS_CLIENT */
 533:.\Generated_Source\PSoC4/BLE_eventHandler.c **** 
 534:.\Generated_Source\PSoC4/BLE_eventHandler.c **** #ifdef CYBLE_UDS_CLIENT
 535:.\Generated_Source\PSoC4/BLE_eventHandler.c ****     if((cyBle_eventHandlerFlag & CYBLE_CALLBACK) != 0u)
 536:.\Generated_Source\PSoC4/BLE_eventHandler.c ****     {
 537:.\Generated_Source\PSoC4/BLE_eventHandler.c ****         CyBle_UdscWriteResponseEventHandler(eventParam);
 538:.\Generated_Source\PSoC4/BLE_eventHandler.c ****     }
 539:.\Generated_Source\PSoC4/BLE_eventHandler.c **** #endif /* CYBLE_UDS_CLIENT */
 540:.\Generated_Source\PSoC4/BLE_eventHandler.c **** }
 196              		.loc 1 540 0
 197 001e BD46     		mov	sp, r7
 198 0020 02B0     		add	sp, sp, #8
 199              		@ sp needed
 200 0022 80BD     		pop	{r7, pc}
 201              	.L10:
ARM GAS  C:\Users\msuro\AppData\Local\Temp\ccG5pvI8.s 			page 14


 202              		.align	2
 203              	.L9:
 204 0024 00000000 		.word	cyBle_eventHandlerFlag
 205              		.cfi_endproc
 206              	.LFE4:
 207              		.size	CyBle_GattcWriteResponseEventHandler, .-CyBle_GattcWriteResponseEventHandler
 208              		.section	.text.CyBle_NotificationEventHandler,"ax",%progbits
 209              		.align	2
 210              		.code	16
 211              		.thumb_func
 212              		.type	CyBle_NotificationEventHandler, %function
 213              	CyBle_NotificationEventHandler:
 214              	.LFB5:
 541:.\Generated_Source\PSoC4/BLE_eventHandler.c **** 
 542:.\Generated_Source\PSoC4/BLE_eventHandler.c **** 
 543:.\Generated_Source\PSoC4/BLE_eventHandler.c **** /******************************************************************************    
 544:.\Generated_Source\PSoC4/BLE_eventHandler.c **** ##Function Name: CyBle_NotificationEventHandler
 545:.\Generated_Source\PSoC4/BLE_eventHandler.c **** *******************************************************************************
 546:.\Generated_Source\PSoC4/BLE_eventHandler.c **** 
 547:.\Generated_Source\PSoC4/BLE_eventHandler.c **** Summary:
 548:.\Generated_Source\PSoC4/BLE_eventHandler.c ****  Handles the Notification event from BLE stack.
 549:.\Generated_Source\PSoC4/BLE_eventHandler.c **** 
 550:.\Generated_Source\PSoC4/BLE_eventHandler.c **** Parameters:
 551:.\Generated_Source\PSoC4/BLE_eventHandler.c ****  CYBLE_GATTC_HANDLE_VALUE_NTF_PARAM_T * eventParam - event parameter
 552:.\Generated_Source\PSoC4/BLE_eventHandler.c **** 
 553:.\Generated_Source\PSoC4/BLE_eventHandler.c **** Return:
 554:.\Generated_Source\PSoC4/BLE_eventHandler.c ****  None
 555:.\Generated_Source\PSoC4/BLE_eventHandler.c **** 
 556:.\Generated_Source\PSoC4/BLE_eventHandler.c **** ******************************************************************************/
 557:.\Generated_Source\PSoC4/BLE_eventHandler.c **** static void CyBle_NotificationEventHandler(CYBLE_GATTC_HANDLE_VALUE_NTF_PARAM_T *eventParam)
 558:.\Generated_Source\PSoC4/BLE_eventHandler.c **** {
 215              		.loc 1 558 0
 216              		.cfi_startproc
 217 0000 80B5     		push	{r7, lr}
 218              		.cfi_def_cfa_offset 8
 219              		.cfi_offset 7, -8
 220              		.cfi_offset 14, -4
 221 0002 82B0     		sub	sp, sp, #8
 222              		.cfi_def_cfa_offset 16
 223 0004 00AF     		add	r7, sp, #0
 224              		.cfi_def_cfa_register 7
 225 0006 7860     		str	r0, [r7, #4]
 559:.\Generated_Source\PSoC4/BLE_eventHandler.c **** #ifdef CYBLE_ANS_CLIENT
 560:.\Generated_Source\PSoC4/BLE_eventHandler.c ****     CyBle_AnscNotificationEventHandler(eventParam);
 561:.\Generated_Source\PSoC4/BLE_eventHandler.c **** #endif /* CYBLE_ANS_CLIENT */
 562:.\Generated_Source\PSoC4/BLE_eventHandler.c **** #ifdef CYBLE_BAS_CLIENT
 563:.\Generated_Source\PSoC4/BLE_eventHandler.c ****     if((cyBle_eventHandlerFlag & CYBLE_CALLBACK) != 0u)
 564:.\Generated_Source\PSoC4/BLE_eventHandler.c ****     {
 565:.\Generated_Source\PSoC4/BLE_eventHandler.c ****         CyBle_BascNotificationEventHandler(eventParam);
 566:.\Generated_Source\PSoC4/BLE_eventHandler.c ****     }
 567:.\Generated_Source\PSoC4/BLE_eventHandler.c **** #endif /* CYBLE_BAS_CLIENT */
 568:.\Generated_Source\PSoC4/BLE_eventHandler.c **** #ifdef CYBLE_BLS_CLIENT
 569:.\Generated_Source\PSoC4/BLE_eventHandler.c ****     if((cyBle_eventHandlerFlag & CYBLE_CALLBACK) != 0u)
 570:.\Generated_Source\PSoC4/BLE_eventHandler.c ****     {
 571:.\Generated_Source\PSoC4/BLE_eventHandler.c ****         CyBle_BlscNotificationEventHandler(eventParam);
 572:.\Generated_Source\PSoC4/BLE_eventHandler.c ****     }
 573:.\Generated_Source\PSoC4/BLE_eventHandler.c **** #endif /* CYBLE_BLS_CLIENT */
ARM GAS  C:\Users\msuro\AppData\Local\Temp\ccG5pvI8.s 			page 15


 574:.\Generated_Source\PSoC4/BLE_eventHandler.c **** #ifdef CYBLE_CGMS_CLIENT
 575:.\Generated_Source\PSoC4/BLE_eventHandler.c ****     if((cyBle_eventHandlerFlag & CYBLE_CALLBACK) != 0u)
 576:.\Generated_Source\PSoC4/BLE_eventHandler.c ****     {
 577:.\Generated_Source\PSoC4/BLE_eventHandler.c ****         CyBle_CgmscNotificationEventHandler(eventParam);
 578:.\Generated_Source\PSoC4/BLE_eventHandler.c ****     }
 579:.\Generated_Source\PSoC4/BLE_eventHandler.c **** #endif /* CYBLE_CGMS_CLIENT */
 580:.\Generated_Source\PSoC4/BLE_eventHandler.c **** #ifdef CYBLE_CPS_CLIENT
 581:.\Generated_Source\PSoC4/BLE_eventHandler.c ****     if((cyBle_eventHandlerFlag & CYBLE_CALLBACK) != 0u)
 582:.\Generated_Source\PSoC4/BLE_eventHandler.c ****     {
 583:.\Generated_Source\PSoC4/BLE_eventHandler.c ****         CyBle_CpscNotificationEventHandler(eventParam);
 584:.\Generated_Source\PSoC4/BLE_eventHandler.c ****     }
 585:.\Generated_Source\PSoC4/BLE_eventHandler.c **** #endif /* CYBLE_CPS_CLIENT */
 586:.\Generated_Source\PSoC4/BLE_eventHandler.c **** #ifdef CYBLE_CSCS_CLIENT
 587:.\Generated_Source\PSoC4/BLE_eventHandler.c ****     if((cyBle_eventHandlerFlag & CYBLE_CALLBACK) != 0u)
 588:.\Generated_Source\PSoC4/BLE_eventHandler.c ****     {
 589:.\Generated_Source\PSoC4/BLE_eventHandler.c ****         CyBle_CscscNotificationEventHandler(eventParam);
 590:.\Generated_Source\PSoC4/BLE_eventHandler.c ****     }
 591:.\Generated_Source\PSoC4/BLE_eventHandler.c **** #endif /* CYBLE_CSCS_CLIENT */
 592:.\Generated_Source\PSoC4/BLE_eventHandler.c **** #ifdef CYBLE_CTS_CLIENT
 593:.\Generated_Source\PSoC4/BLE_eventHandler.c ****     if((cyBle_eventHandlerFlag & CYBLE_CALLBACK) != 0u)
 594:.\Generated_Source\PSoC4/BLE_eventHandler.c ****     {
 595:.\Generated_Source\PSoC4/BLE_eventHandler.c ****         CyBle_CtscNotificationEventHandler(eventParam);
 596:.\Generated_Source\PSoC4/BLE_eventHandler.c ****     }
 597:.\Generated_Source\PSoC4/BLE_eventHandler.c **** #endif /* CYBLE_CTS_CLIENT */
 598:.\Generated_Source\PSoC4/BLE_eventHandler.c **** #ifdef CYBLE_GLS_CLIENT
 599:.\Generated_Source\PSoC4/BLE_eventHandler.c ****     if((cyBle_eventHandlerFlag & CYBLE_CALLBACK) != 0u)
 600:.\Generated_Source\PSoC4/BLE_eventHandler.c ****     {
 601:.\Generated_Source\PSoC4/BLE_eventHandler.c ****         CyBle_GlscNotificationEventHandler(eventParam);
 602:.\Generated_Source\PSoC4/BLE_eventHandler.c ****     }
 603:.\Generated_Source\PSoC4/BLE_eventHandler.c **** #endif /* CYBLE_GLS_CLIENT */
 604:.\Generated_Source\PSoC4/BLE_eventHandler.c **** #ifdef CYBLE_HIDS_CLIENT
 605:.\Generated_Source\PSoC4/BLE_eventHandler.c ****     if((cyBle_eventHandlerFlag & CYBLE_CALLBACK) != 0u)
 606:.\Generated_Source\PSoC4/BLE_eventHandler.c ****     {
 607:.\Generated_Source\PSoC4/BLE_eventHandler.c ****         CyBle_HidscNotificationEventHandler(eventParam);
 608:.\Generated_Source\PSoC4/BLE_eventHandler.c ****     }
 609:.\Generated_Source\PSoC4/BLE_eventHandler.c **** #endif /* CYBLE_HIDS_CLIENT */
 610:.\Generated_Source\PSoC4/BLE_eventHandler.c **** #ifdef CYBLE_HRS_CLIENT
 611:.\Generated_Source\PSoC4/BLE_eventHandler.c ****     if((cyBle_eventHandlerFlag & CYBLE_CALLBACK) != 0u)
 612:.\Generated_Source\PSoC4/BLE_eventHandler.c ****     {
 613:.\Generated_Source\PSoC4/BLE_eventHandler.c ****         CyBle_HrscNotificationEventHandler(eventParam);
 614:.\Generated_Source\PSoC4/BLE_eventHandler.c ****     }
 615:.\Generated_Source\PSoC4/BLE_eventHandler.c **** #endif /* CYBLE_HRS_CLIENT */
 616:.\Generated_Source\PSoC4/BLE_eventHandler.c **** #ifdef CYBLE_HTS_CLIENT
 617:.\Generated_Source\PSoC4/BLE_eventHandler.c ****     if((cyBle_eventHandlerFlag & CYBLE_CALLBACK) != 0u)
 618:.\Generated_Source\PSoC4/BLE_eventHandler.c ****     {
 619:.\Generated_Source\PSoC4/BLE_eventHandler.c ****         CyBle_HtscNotificationEventHandler(eventParam);
 620:.\Generated_Source\PSoC4/BLE_eventHandler.c ****     }
 621:.\Generated_Source\PSoC4/BLE_eventHandler.c **** #endif /* CYBLE_HTS_CLIENT */
 622:.\Generated_Source\PSoC4/BLE_eventHandler.c **** #ifdef CYBLE_LNS_CLIENT
 623:.\Generated_Source\PSoC4/BLE_eventHandler.c ****     if((cyBle_eventHandlerFlag & CYBLE_CALLBACK) != 0u)
 624:.\Generated_Source\PSoC4/BLE_eventHandler.c ****     {
 625:.\Generated_Source\PSoC4/BLE_eventHandler.c ****         CyBle_LnscNotificationEventHandler(eventParam);
 626:.\Generated_Source\PSoC4/BLE_eventHandler.c ****     }
 627:.\Generated_Source\PSoC4/BLE_eventHandler.c **** #endif /* CYBLE_LNS_CLIENT */
 628:.\Generated_Source\PSoC4/BLE_eventHandler.c **** #ifdef CYBLE_PASS_CLIENT
 629:.\Generated_Source\PSoC4/BLE_eventHandler.c ****     if((cyBle_eventHandlerFlag & CYBLE_CALLBACK) != 0u)
 630:.\Generated_Source\PSoC4/BLE_eventHandler.c ****     {
ARM GAS  C:\Users\msuro\AppData\Local\Temp\ccG5pvI8.s 			page 16


 631:.\Generated_Source\PSoC4/BLE_eventHandler.c ****         CyBle_PasscNotificationEventHandler(eventParam);
 632:.\Generated_Source\PSoC4/BLE_eventHandler.c ****     }
 633:.\Generated_Source\PSoC4/BLE_eventHandler.c **** #endif /* CYBLE_PASS_CLIENT */
 634:.\Generated_Source\PSoC4/BLE_eventHandler.c **** #ifdef CYBLE_RSCS_CLIENT
 635:.\Generated_Source\PSoC4/BLE_eventHandler.c ****     if((cyBle_eventHandlerFlag & CYBLE_CALLBACK) != 0u)
 636:.\Generated_Source\PSoC4/BLE_eventHandler.c ****     {
 637:.\Generated_Source\PSoC4/BLE_eventHandler.c ****         CyBle_RscscNotificationEventHandler(eventParam);
 638:.\Generated_Source\PSoC4/BLE_eventHandler.c ****     }
 639:.\Generated_Source\PSoC4/BLE_eventHandler.c **** #endif /* CYBLE_RSCS_CLIENT */
 640:.\Generated_Source\PSoC4/BLE_eventHandler.c **** #ifdef CYBLE_SCPS_CLIENT
 641:.\Generated_Source\PSoC4/BLE_eventHandler.c ****     if((cyBle_eventHandlerFlag & CYBLE_CALLBACK) != 0u)
 642:.\Generated_Source\PSoC4/BLE_eventHandler.c ****     {
 643:.\Generated_Source\PSoC4/BLE_eventHandler.c ****         CyBle_ScpscNotificationEventHandler(eventParam);
 644:.\Generated_Source\PSoC4/BLE_eventHandler.c ****     }
 645:.\Generated_Source\PSoC4/BLE_eventHandler.c **** #endif /* CYBLE_SCPS_CLIENT */
 646:.\Generated_Source\PSoC4/BLE_eventHandler.c **** #ifdef CYBLE_TPS_CLIENT
 647:.\Generated_Source\PSoC4/BLE_eventHandler.c ****     if((cyBle_eventHandlerFlag & CYBLE_CALLBACK) != 0u)
 226              		.loc 1 647 0
 227 0008 064B     		ldr	r3, .L13
 228 000a 1B78     		ldrb	r3, [r3]
 229 000c DBB2     		uxtb	r3, r3
 230 000e 1A1C     		mov	r2, r3
 231 0010 0123     		mov	r3, #1
 232 0012 1340     		and	r3, r2
 233 0014 03D0     		beq	.L11
 648:.\Generated_Source\PSoC4/BLE_eventHandler.c ****     {
 649:.\Generated_Source\PSoC4/BLE_eventHandler.c ****         CyBle_TpscNotificationEventHandler(eventParam);
 234              		.loc 1 649 0
 235 0016 7B68     		ldr	r3, [r7, #4]
 236 0018 181C     		mov	r0, r3
 237 001a FFF7FEFF 		bl	CyBle_TpscNotificationEventHandler
 238              	.L11:
 650:.\Generated_Source\PSoC4/BLE_eventHandler.c ****     }
 651:.\Generated_Source\PSoC4/BLE_eventHandler.c **** #endif /* CYBLE_TPS_CLIENT */
 652:.\Generated_Source\PSoC4/BLE_eventHandler.c **** #ifdef CYBLE_UDS_CLIENT
 653:.\Generated_Source\PSoC4/BLE_eventHandler.c ****     if((cyBle_eventHandlerFlag & CYBLE_CALLBACK) != 0u)
 654:.\Generated_Source\PSoC4/BLE_eventHandler.c ****     {
 655:.\Generated_Source\PSoC4/BLE_eventHandler.c ****         CyBle_UdscNotificationEventHandler(eventParam);
 656:.\Generated_Source\PSoC4/BLE_eventHandler.c ****     }
 657:.\Generated_Source\PSoC4/BLE_eventHandler.c **** #endif /* CYBLE_UDS_CLIENT */
 658:.\Generated_Source\PSoC4/BLE_eventHandler.c **** }
 239              		.loc 1 658 0
 240 001e BD46     		mov	sp, r7
 241 0020 02B0     		add	sp, sp, #8
 242              		@ sp needed
 243 0022 80BD     		pop	{r7, pc}
 244              	.L14:
 245              		.align	2
 246              	.L13:
 247 0024 00000000 		.word	cyBle_eventHandlerFlag
 248              		.cfi_endproc
 249              	.LFE5:
 250              		.size	CyBle_NotificationEventHandler, .-CyBle_NotificationEventHandler
 251              		.section	.text.CyBle_IndicationEventHandler,"ax",%progbits
 252              		.align	2
 253              		.code	16
 254              		.thumb_func
ARM GAS  C:\Users\msuro\AppData\Local\Temp\ccG5pvI8.s 			page 17


 255              		.type	CyBle_IndicationEventHandler, %function
 256              	CyBle_IndicationEventHandler:
 257              	.LFB6:
 659:.\Generated_Source\PSoC4/BLE_eventHandler.c **** 
 660:.\Generated_Source\PSoC4/BLE_eventHandler.c **** 
 661:.\Generated_Source\PSoC4/BLE_eventHandler.c **** /******************************************************************************    
 662:.\Generated_Source\PSoC4/BLE_eventHandler.c **** ##Function Name: CyBle_IndicationEventHandler
 663:.\Generated_Source\PSoC4/BLE_eventHandler.c **** *******************************************************************************
 664:.\Generated_Source\PSoC4/BLE_eventHandler.c **** 
 665:.\Generated_Source\PSoC4/BLE_eventHandler.c **** Summary:
 666:.\Generated_Source\PSoC4/BLE_eventHandler.c ****  Handles the Indication event from BLE stack.
 667:.\Generated_Source\PSoC4/BLE_eventHandler.c **** 
 668:.\Generated_Source\PSoC4/BLE_eventHandler.c **** Parameters:
 669:.\Generated_Source\PSoC4/BLE_eventHandler.c ****  CYBLE_GATTC_HANDLE_VALUE_IND_PARAM_T * eventParam - event parameter
 670:.\Generated_Source\PSoC4/BLE_eventHandler.c **** 
 671:.\Generated_Source\PSoC4/BLE_eventHandler.c **** Return:
 672:.\Generated_Source\PSoC4/BLE_eventHandler.c ****  None
 673:.\Generated_Source\PSoC4/BLE_eventHandler.c **** 
 674:.\Generated_Source\PSoC4/BLE_eventHandler.c **** ******************************************************************************/
 675:.\Generated_Source\PSoC4/BLE_eventHandler.c **** static void CyBle_IndicationEventHandler(CYBLE_GATTC_HANDLE_VALUE_IND_PARAM_T *eventParam)
 676:.\Generated_Source\PSoC4/BLE_eventHandler.c **** {
 258              		.loc 1 676 0
 259              		.cfi_startproc
 260 0000 80B5     		push	{r7, lr}
 261              		.cfi_def_cfa_offset 8
 262              		.cfi_offset 7, -8
 263              		.cfi_offset 14, -4
 264 0002 82B0     		sub	sp, sp, #8
 265              		.cfi_def_cfa_offset 16
 266 0004 00AF     		add	r7, sp, #0
 267              		.cfi_def_cfa_register 7
 268 0006 7860     		str	r0, [r7, #4]
 677:.\Generated_Source\PSoC4/BLE_eventHandler.c **** #ifdef CYBLE_BLS_CLIENT
 678:.\Generated_Source\PSoC4/BLE_eventHandler.c ****     if((cyBle_eventHandlerFlag & CYBLE_CALLBACK) != 0u)
 679:.\Generated_Source\PSoC4/BLE_eventHandler.c ****     {
 680:.\Generated_Source\PSoC4/BLE_eventHandler.c ****         CyBle_BlscIndicationEventHandler(eventParam);
 681:.\Generated_Source\PSoC4/BLE_eventHandler.c ****     }
 682:.\Generated_Source\PSoC4/BLE_eventHandler.c **** #endif /* CYBLE_BLS_CLIENT */
 683:.\Generated_Source\PSoC4/BLE_eventHandler.c **** #ifdef CYBLE_CGMS_CLIENT
 684:.\Generated_Source\PSoC4/BLE_eventHandler.c ****     if((cyBle_eventHandlerFlag & CYBLE_CALLBACK) != 0u)
 685:.\Generated_Source\PSoC4/BLE_eventHandler.c ****     {
 686:.\Generated_Source\PSoC4/BLE_eventHandler.c ****         CyBle_CgmscIndicationEventHandler(eventParam);
 687:.\Generated_Source\PSoC4/BLE_eventHandler.c ****     }
 688:.\Generated_Source\PSoC4/BLE_eventHandler.c **** #endif /* CYBLE_CGMS_CLIENT */
 689:.\Generated_Source\PSoC4/BLE_eventHandler.c **** #ifdef CYBLE_CPS_CLIENT
 690:.\Generated_Source\PSoC4/BLE_eventHandler.c ****     if((cyBle_eventHandlerFlag & CYBLE_CALLBACK) != 0u)
 691:.\Generated_Source\PSoC4/BLE_eventHandler.c ****     {
 692:.\Generated_Source\PSoC4/BLE_eventHandler.c ****         CyBle_CpscIndicationEventHandler(eventParam);
 693:.\Generated_Source\PSoC4/BLE_eventHandler.c ****     }
 694:.\Generated_Source\PSoC4/BLE_eventHandler.c **** #endif /* CYBLE_CPS_CLIENT */
 695:.\Generated_Source\PSoC4/BLE_eventHandler.c **** #ifdef CYBLE_CSCS_CLIENT
 696:.\Generated_Source\PSoC4/BLE_eventHandler.c ****     if((cyBle_eventHandlerFlag & CYBLE_CALLBACK) != 0u)
 697:.\Generated_Source\PSoC4/BLE_eventHandler.c ****     {
 698:.\Generated_Source\PSoC4/BLE_eventHandler.c ****         CyBle_CscscIndicationEventHandler(eventParam);
 699:.\Generated_Source\PSoC4/BLE_eventHandler.c ****     }
 700:.\Generated_Source\PSoC4/BLE_eventHandler.c **** #endif /* CYBLE_CSCS_CLIENT */
 701:.\Generated_Source\PSoC4/BLE_eventHandler.c **** #ifdef CYBLE_GLS_CLIENT
ARM GAS  C:\Users\msuro\AppData\Local\Temp\ccG5pvI8.s 			page 18


 702:.\Generated_Source\PSoC4/BLE_eventHandler.c ****     if((cyBle_eventHandlerFlag & CYBLE_CALLBACK) != 0u)
 703:.\Generated_Source\PSoC4/BLE_eventHandler.c ****     {
 704:.\Generated_Source\PSoC4/BLE_eventHandler.c ****         CyBle_GlscIndicationEventHandler(eventParam);
 705:.\Generated_Source\PSoC4/BLE_eventHandler.c ****     }
 706:.\Generated_Source\PSoC4/BLE_eventHandler.c **** #endif /* CYBLE_GLS_CLIENT */
 707:.\Generated_Source\PSoC4/BLE_eventHandler.c **** #ifdef CYBLE_HTS_CLIENT
 708:.\Generated_Source\PSoC4/BLE_eventHandler.c ****     if((cyBle_eventHandlerFlag & CYBLE_CALLBACK) != 0u)
 709:.\Generated_Source\PSoC4/BLE_eventHandler.c ****     {
 710:.\Generated_Source\PSoC4/BLE_eventHandler.c ****         CyBle_HtscIndicationEventHandler(eventParam);
 711:.\Generated_Source\PSoC4/BLE_eventHandler.c ****     }
 712:.\Generated_Source\PSoC4/BLE_eventHandler.c **** #endif /* CYBLE_HTS_CLIENT */
 713:.\Generated_Source\PSoC4/BLE_eventHandler.c **** #ifdef CYBLE_LNS_CLIENT
 714:.\Generated_Source\PSoC4/BLE_eventHandler.c ****     if((cyBle_eventHandlerFlag & CYBLE_CALLBACK) != 0u)
 715:.\Generated_Source\PSoC4/BLE_eventHandler.c ****     {
 716:.\Generated_Source\PSoC4/BLE_eventHandler.c ****         CyBle_LnscIndicationEventHandler(eventParam);
 717:.\Generated_Source\PSoC4/BLE_eventHandler.c ****     }
 718:.\Generated_Source\PSoC4/BLE_eventHandler.c **** #endif /* CYBLE_LNS_CLIENT */
 719:.\Generated_Source\PSoC4/BLE_eventHandler.c **** #ifdef CYBLE_RSCS_CLIENT
 720:.\Generated_Source\PSoC4/BLE_eventHandler.c ****     if((cyBle_eventHandlerFlag & CYBLE_CALLBACK) != 0u)
 721:.\Generated_Source\PSoC4/BLE_eventHandler.c ****     {
 722:.\Generated_Source\PSoC4/BLE_eventHandler.c ****         CyBle_RscscIndicationEventHandler(eventParam);
 723:.\Generated_Source\PSoC4/BLE_eventHandler.c ****     }
 724:.\Generated_Source\PSoC4/BLE_eventHandler.c **** #endif /* CYBLE_RSCS_CLIENT */
 725:.\Generated_Source\PSoC4/BLE_eventHandler.c **** #ifdef CYBLE_UDS_CLIENT
 726:.\Generated_Source\PSoC4/BLE_eventHandler.c ****     if((cyBle_eventHandlerFlag & CYBLE_CALLBACK) != 0u)
 727:.\Generated_Source\PSoC4/BLE_eventHandler.c ****     {
 728:.\Generated_Source\PSoC4/BLE_eventHandler.c ****         CyBle_UdscIndicationEventHandler(eventParam);
 729:.\Generated_Source\PSoC4/BLE_eventHandler.c ****     }
 730:.\Generated_Source\PSoC4/BLE_eventHandler.c **** #endif /* CYBLE_UDS_CLIENT */
 731:.\Generated_Source\PSoC4/BLE_eventHandler.c **** }
 269              		.loc 1 731 0
 270 0008 BD46     		mov	sp, r7
 271 000a 02B0     		add	sp, sp, #8
 272              		@ sp needed
 273 000c 80BD     		pop	{r7, pc}
 274              		.cfi_endproc
 275              	.LFE6:
 276              		.size	CyBle_IndicationEventHandler, .-CyBle_IndicationEventHandler
 277              		.section	.text.CyBle_ReadResponseEventHandler,"ax",%progbits
 278              		.align	2
 279              		.code	16
 280              		.thumb_func
 281              		.type	CyBle_ReadResponseEventHandler, %function
 282              	CyBle_ReadResponseEventHandler:
 283              	.LFB7:
 732:.\Generated_Source\PSoC4/BLE_eventHandler.c **** 
 733:.\Generated_Source\PSoC4/BLE_eventHandler.c **** 
 734:.\Generated_Source\PSoC4/BLE_eventHandler.c **** 
 735:.\Generated_Source\PSoC4/BLE_eventHandler.c **** /******************************************************************************    
 736:.\Generated_Source\PSoC4/BLE_eventHandler.c **** ##Function Name: CyBle_ReadResponseEventHandler
 737:.\Generated_Source\PSoC4/BLE_eventHandler.c **** *******************************************************************************
 738:.\Generated_Source\PSoC4/BLE_eventHandler.c **** 
 739:.\Generated_Source\PSoC4/BLE_eventHandler.c **** Summary:
 740:.\Generated_Source\PSoC4/BLE_eventHandler.c ****  Handles the Read Response event from BLE stack.
 741:.\Generated_Source\PSoC4/BLE_eventHandler.c **** 
 742:.\Generated_Source\PSoC4/BLE_eventHandler.c **** Parameters:
 743:.\Generated_Source\PSoC4/BLE_eventHandler.c ****  CYBLE_GATTC_READ_RSP_PARAM_T * eventParam - event parameter
ARM GAS  C:\Users\msuro\AppData\Local\Temp\ccG5pvI8.s 			page 19


 744:.\Generated_Source\PSoC4/BLE_eventHandler.c **** 
 745:.\Generated_Source\PSoC4/BLE_eventHandler.c **** Return:
 746:.\Generated_Source\PSoC4/BLE_eventHandler.c ****  None
 747:.\Generated_Source\PSoC4/BLE_eventHandler.c **** 
 748:.\Generated_Source\PSoC4/BLE_eventHandler.c **** ******************************************************************************/
 749:.\Generated_Source\PSoC4/BLE_eventHandler.c **** static void CyBle_ReadResponseEventHandler(CYBLE_GATTC_READ_RSP_PARAM_T *eventParam)
 750:.\Generated_Source\PSoC4/BLE_eventHandler.c **** {
 284              		.loc 1 750 0
 285              		.cfi_startproc
 286 0000 80B5     		push	{r7, lr}
 287              		.cfi_def_cfa_offset 8
 288              		.cfi_offset 7, -8
 289              		.cfi_offset 14, -4
 290 0002 82B0     		sub	sp, sp, #8
 291              		.cfi_def_cfa_offset 16
 292 0004 00AF     		add	r7, sp, #0
 293              		.cfi_def_cfa_register 7
 294 0006 7860     		str	r0, [r7, #4]
 751:.\Generated_Source\PSoC4/BLE_eventHandler.c **** #ifdef CYBLE_ANS_CLIENT
 752:.\Generated_Source\PSoC4/BLE_eventHandler.c ****     CyBle_AnscReadResponseEventHandler(eventParam);
 753:.\Generated_Source\PSoC4/BLE_eventHandler.c **** #endif /* CYBLE_ANS_CLIENT */
 754:.\Generated_Source\PSoC4/BLE_eventHandler.c **** #ifdef CYBLE_BAS_CLIENT
 755:.\Generated_Source\PSoC4/BLE_eventHandler.c ****     if((cyBle_eventHandlerFlag & CYBLE_CALLBACK) != 0u)
 756:.\Generated_Source\PSoC4/BLE_eventHandler.c ****     {
 757:.\Generated_Source\PSoC4/BLE_eventHandler.c ****         CyBle_BascReadResponseEventHandler(eventParam);
 758:.\Generated_Source\PSoC4/BLE_eventHandler.c ****     }
 759:.\Generated_Source\PSoC4/BLE_eventHandler.c **** #endif /* CYBLE_BAS_CLIENT */
 760:.\Generated_Source\PSoC4/BLE_eventHandler.c **** #ifdef CYBLE_BLS_CLIENT
 761:.\Generated_Source\PSoC4/BLE_eventHandler.c ****     if((cyBle_eventHandlerFlag & CYBLE_CALLBACK) != 0u)
 762:.\Generated_Source\PSoC4/BLE_eventHandler.c ****     {
 763:.\Generated_Source\PSoC4/BLE_eventHandler.c ****         CyBle_BlscReadResponseEventHandler(eventParam);
 764:.\Generated_Source\PSoC4/BLE_eventHandler.c ****     }
 765:.\Generated_Source\PSoC4/BLE_eventHandler.c **** #endif /* CYBLE_BLS_CLIENT */
 766:.\Generated_Source\PSoC4/BLE_eventHandler.c **** #ifdef CYBLE_CGMS_CLIENT
 767:.\Generated_Source\PSoC4/BLE_eventHandler.c ****     if((cyBle_eventHandlerFlag & CYBLE_CALLBACK) != 0u)
 768:.\Generated_Source\PSoC4/BLE_eventHandler.c ****     {
 769:.\Generated_Source\PSoC4/BLE_eventHandler.c ****         CyBle_CgmscReadResponseEventHandler(eventParam);
 770:.\Generated_Source\PSoC4/BLE_eventHandler.c ****     }
 771:.\Generated_Source\PSoC4/BLE_eventHandler.c **** #endif /* CYBLE_CGMS_CLIENT */
 772:.\Generated_Source\PSoC4/BLE_eventHandler.c **** #ifdef CYBLE_CPS_CLIENT
 773:.\Generated_Source\PSoC4/BLE_eventHandler.c ****     if((cyBle_eventHandlerFlag & CYBLE_CALLBACK) != 0u)
 774:.\Generated_Source\PSoC4/BLE_eventHandler.c ****     {
 775:.\Generated_Source\PSoC4/BLE_eventHandler.c ****         CyBle_CpscReadResponseEventHandler(eventParam);
 776:.\Generated_Source\PSoC4/BLE_eventHandler.c ****     }
 777:.\Generated_Source\PSoC4/BLE_eventHandler.c **** #endif /* CYBLE_CPS_CLIENT */
 778:.\Generated_Source\PSoC4/BLE_eventHandler.c **** #ifdef CYBLE_CSCS_CLIENT
 779:.\Generated_Source\PSoC4/BLE_eventHandler.c ****     if((cyBle_eventHandlerFlag & CYBLE_CALLBACK) != 0u)
 780:.\Generated_Source\PSoC4/BLE_eventHandler.c ****     {
 781:.\Generated_Source\PSoC4/BLE_eventHandler.c ****         CyBle_CscscReadResponseEventHandler(eventParam);
 782:.\Generated_Source\PSoC4/BLE_eventHandler.c ****     }
 783:.\Generated_Source\PSoC4/BLE_eventHandler.c **** #endif /* CYBLE_CSCS_CLIENT */
 784:.\Generated_Source\PSoC4/BLE_eventHandler.c **** #ifdef CYBLE_CTS_CLIENT
 785:.\Generated_Source\PSoC4/BLE_eventHandler.c ****     if((cyBle_eventHandlerFlag & CYBLE_CALLBACK) != 0u)
 786:.\Generated_Source\PSoC4/BLE_eventHandler.c ****     {
 787:.\Generated_Source\PSoC4/BLE_eventHandler.c ****         CyBle_CtscReadResponseEventHandler(eventParam);
 788:.\Generated_Source\PSoC4/BLE_eventHandler.c ****     }
 789:.\Generated_Source\PSoC4/BLE_eventHandler.c **** #endif /* CYBLE_BAS_CLIENT */
ARM GAS  C:\Users\msuro\AppData\Local\Temp\ccG5pvI8.s 			page 20


 790:.\Generated_Source\PSoC4/BLE_eventHandler.c **** #ifdef CYBLE_DIS_CLIENT
 791:.\Generated_Source\PSoC4/BLE_eventHandler.c ****     if((cyBle_eventHandlerFlag & CYBLE_CALLBACK) != 0u)
 792:.\Generated_Source\PSoC4/BLE_eventHandler.c ****     {
 793:.\Generated_Source\PSoC4/BLE_eventHandler.c ****         CyBle_DiscReadResponseEventHandler(eventParam);
 794:.\Generated_Source\PSoC4/BLE_eventHandler.c ****     }
 795:.\Generated_Source\PSoC4/BLE_eventHandler.c **** #endif /* CYBLE_DIS_CLIENT */
 796:.\Generated_Source\PSoC4/BLE_eventHandler.c **** #ifdef CYBLE_GLS_CLIENT
 797:.\Generated_Source\PSoC4/BLE_eventHandler.c ****     if((cyBle_eventHandlerFlag & CYBLE_CALLBACK) != 0u)
 798:.\Generated_Source\PSoC4/BLE_eventHandler.c ****     {
 799:.\Generated_Source\PSoC4/BLE_eventHandler.c ****         CyBle_GlscReadResponseEventHandler(eventParam);
 800:.\Generated_Source\PSoC4/BLE_eventHandler.c ****     }
 801:.\Generated_Source\PSoC4/BLE_eventHandler.c **** #endif /* CYBLE_GLS_CLIENT */
 802:.\Generated_Source\PSoC4/BLE_eventHandler.c **** #ifdef CYBLE_HIDS_CLIENT
 803:.\Generated_Source\PSoC4/BLE_eventHandler.c ****     if((cyBle_eventHandlerFlag & CYBLE_CALLBACK) != 0u)
 804:.\Generated_Source\PSoC4/BLE_eventHandler.c ****     {
 805:.\Generated_Source\PSoC4/BLE_eventHandler.c ****         CyBle_HidscReadResponseEventHandler(eventParam);
 806:.\Generated_Source\PSoC4/BLE_eventHandler.c ****     }
 807:.\Generated_Source\PSoC4/BLE_eventHandler.c **** #endif /* CYBLE_HIDS_CLIENT */
 808:.\Generated_Source\PSoC4/BLE_eventHandler.c **** #ifdef CYBLE_HRS_CLIENT
 809:.\Generated_Source\PSoC4/BLE_eventHandler.c ****     if((cyBle_eventHandlerFlag & CYBLE_CALLBACK) != 0u)
 810:.\Generated_Source\PSoC4/BLE_eventHandler.c ****     {
 811:.\Generated_Source\PSoC4/BLE_eventHandler.c ****         CyBle_HrscReadResponseEventHandler(eventParam);
 812:.\Generated_Source\PSoC4/BLE_eventHandler.c ****     }
 813:.\Generated_Source\PSoC4/BLE_eventHandler.c **** #endif /* CYBLE_HRS_CLIENT */
 814:.\Generated_Source\PSoC4/BLE_eventHandler.c **** #ifdef CYBLE_HTS_CLIENT
 815:.\Generated_Source\PSoC4/BLE_eventHandler.c ****     if((cyBle_eventHandlerFlag & CYBLE_CALLBACK) != 0u)
 816:.\Generated_Source\PSoC4/BLE_eventHandler.c ****     {
 817:.\Generated_Source\PSoC4/BLE_eventHandler.c ****         CyBle_HtscReadResponseEventHandler(eventParam);
 818:.\Generated_Source\PSoC4/BLE_eventHandler.c ****     }
 819:.\Generated_Source\PSoC4/BLE_eventHandler.c **** #endif /* CYBLE_HTS_CLIENT */
 820:.\Generated_Source\PSoC4/BLE_eventHandler.c **** #ifdef CYBLE_LLS_CLIENT
 821:.\Generated_Source\PSoC4/BLE_eventHandler.c ****     if((cyBle_eventHandlerFlag & CYBLE_CALLBACK) != 0u)
 822:.\Generated_Source\PSoC4/BLE_eventHandler.c ****     {
 823:.\Generated_Source\PSoC4/BLE_eventHandler.c ****         CyBle_LlscReadResponseEventHandler(eventParam);
 824:.\Generated_Source\PSoC4/BLE_eventHandler.c ****     }
 825:.\Generated_Source\PSoC4/BLE_eventHandler.c **** #endif /* CYBLE_LLS_CLIENT */
 826:.\Generated_Source\PSoC4/BLE_eventHandler.c **** #ifdef CYBLE_LNS_CLIENT
 827:.\Generated_Source\PSoC4/BLE_eventHandler.c ****     if((cyBle_eventHandlerFlag & CYBLE_CALLBACK) != 0u)
 828:.\Generated_Source\PSoC4/BLE_eventHandler.c ****     {
 829:.\Generated_Source\PSoC4/BLE_eventHandler.c ****         CyBle_LnscReadResponseEventHandler(eventParam);
 830:.\Generated_Source\PSoC4/BLE_eventHandler.c ****     }
 831:.\Generated_Source\PSoC4/BLE_eventHandler.c **** #endif /* CYBLE_LNS_CLIENT */
 832:.\Generated_Source\PSoC4/BLE_eventHandler.c **** #ifdef CYBLE_NDCS_CLIENT
 833:.\Generated_Source\PSoC4/BLE_eventHandler.c ****     if((cyBle_eventHandlerFlag & CYBLE_CALLBACK) != 0u)
 834:.\Generated_Source\PSoC4/BLE_eventHandler.c ****     {
 835:.\Generated_Source\PSoC4/BLE_eventHandler.c ****         CyBle_NdcscReadResponseEventHandler(eventParam);
 836:.\Generated_Source\PSoC4/BLE_eventHandler.c ****     }
 837:.\Generated_Source\PSoC4/BLE_eventHandler.c **** #endif /* CYBLE_NDCS_CLIENT */
 838:.\Generated_Source\PSoC4/BLE_eventHandler.c **** #ifdef CYBLE_PASS_CLIENT
 839:.\Generated_Source\PSoC4/BLE_eventHandler.c ****     if((cyBle_eventHandlerFlag & CYBLE_CALLBACK) != 0u)
 840:.\Generated_Source\PSoC4/BLE_eventHandler.c ****     {
 841:.\Generated_Source\PSoC4/BLE_eventHandler.c ****         CyBle_PasscReadResponseEventHandler(eventParam);
 842:.\Generated_Source\PSoC4/BLE_eventHandler.c ****     }
 843:.\Generated_Source\PSoC4/BLE_eventHandler.c **** #endif /* CYBLE_PASS_CLIENT */
 844:.\Generated_Source\PSoC4/BLE_eventHandler.c **** #ifdef CYBLE_RSCS_CLIENT
 845:.\Generated_Source\PSoC4/BLE_eventHandler.c ****     if((cyBle_eventHandlerFlag & CYBLE_CALLBACK) != 0u)
 846:.\Generated_Source\PSoC4/BLE_eventHandler.c ****     {
ARM GAS  C:\Users\msuro\AppData\Local\Temp\ccG5pvI8.s 			page 21


 847:.\Generated_Source\PSoC4/BLE_eventHandler.c ****         CyBle_RscscReadResponseEventHandler(eventParam);
 848:.\Generated_Source\PSoC4/BLE_eventHandler.c ****     }
 849:.\Generated_Source\PSoC4/BLE_eventHandler.c **** #endif /* CYBLE_RSCS_CLIENT */
 850:.\Generated_Source\PSoC4/BLE_eventHandler.c **** #ifdef CYBLE_RTUS_CLIENT
 851:.\Generated_Source\PSoC4/BLE_eventHandler.c ****     if((cyBle_eventHandlerFlag & CYBLE_CALLBACK) != 0u)
 852:.\Generated_Source\PSoC4/BLE_eventHandler.c ****     {
 853:.\Generated_Source\PSoC4/BLE_eventHandler.c ****         CyBle_RtuscReadResponseEventHandler(eventParam);
 854:.\Generated_Source\PSoC4/BLE_eventHandler.c ****     }
 855:.\Generated_Source\PSoC4/BLE_eventHandler.c **** #endif /* CYBLE_RTUS_CLIENT */
 856:.\Generated_Source\PSoC4/BLE_eventHandler.c **** #ifdef CYBLE_SCPS_CLIENT
 857:.\Generated_Source\PSoC4/BLE_eventHandler.c ****     if((cyBle_eventHandlerFlag & CYBLE_CALLBACK) != 0u)
 858:.\Generated_Source\PSoC4/BLE_eventHandler.c ****     {
 859:.\Generated_Source\PSoC4/BLE_eventHandler.c ****         CyBle_ScpscReadResponseEventHandler(eventParam);
 860:.\Generated_Source\PSoC4/BLE_eventHandler.c ****     }
 861:.\Generated_Source\PSoC4/BLE_eventHandler.c **** #endif /* CYBLE_SCPS_CLIENT */
 862:.\Generated_Source\PSoC4/BLE_eventHandler.c **** #ifdef CYBLE_TPS_CLIENT
 863:.\Generated_Source\PSoC4/BLE_eventHandler.c ****     if((cyBle_eventHandlerFlag & CYBLE_CALLBACK) != 0u)
 295              		.loc 1 863 0
 296 0008 064B     		ldr	r3, .L18
 297 000a 1B78     		ldrb	r3, [r3]
 298 000c DBB2     		uxtb	r3, r3
 299 000e 1A1C     		mov	r2, r3
 300 0010 0123     		mov	r3, #1
 301 0012 1340     		and	r3, r2
 302 0014 03D0     		beq	.L16
 864:.\Generated_Source\PSoC4/BLE_eventHandler.c ****     {
 865:.\Generated_Source\PSoC4/BLE_eventHandler.c ****         CyBle_TpscReadResponseEventHandler(eventParam);
 303              		.loc 1 865 0
 304 0016 7B68     		ldr	r3, [r7, #4]
 305 0018 181C     		mov	r0, r3
 306 001a FFF7FEFF 		bl	CyBle_TpscReadResponseEventHandler
 307              	.L16:
 866:.\Generated_Source\PSoC4/BLE_eventHandler.c ****     }
 867:.\Generated_Source\PSoC4/BLE_eventHandler.c **** #endif /* CYBLE_TPS_CLIENT */
 868:.\Generated_Source\PSoC4/BLE_eventHandler.c **** #ifdef CYBLE_UDS_CLIENT
 869:.\Generated_Source\PSoC4/BLE_eventHandler.c ****     if((cyBle_eventHandlerFlag & CYBLE_CALLBACK) != 0u)
 870:.\Generated_Source\PSoC4/BLE_eventHandler.c ****     {
 871:.\Generated_Source\PSoC4/BLE_eventHandler.c ****         CyBle_UdscReadResponseEventHandler(eventParam);
 872:.\Generated_Source\PSoC4/BLE_eventHandler.c ****     }
 873:.\Generated_Source\PSoC4/BLE_eventHandler.c **** #endif /* CYBLE_UDS_CLIENT */
 874:.\Generated_Source\PSoC4/BLE_eventHandler.c **** }
 308              		.loc 1 874 0
 309 001e BD46     		mov	sp, r7
 310 0020 02B0     		add	sp, sp, #8
 311              		@ sp needed
 312 0022 80BD     		pop	{r7, pc}
 313              	.L19:
 314              		.align	2
 315              	.L18:
 316 0024 00000000 		.word	cyBle_eventHandlerFlag
 317              		.cfi_endproc
 318              	.LFE7:
 319              		.size	CyBle_ReadResponseEventHandler, .-CyBle_ReadResponseEventHandler
 320              		.section	.text.CyBle_GattDisconnectEventHandler,"ax",%progbits
 321              		.align	2
 322              		.code	16
 323              		.thumb_func
ARM GAS  C:\Users\msuro\AppData\Local\Temp\ccG5pvI8.s 			page 22


 324              		.type	CyBle_GattDisconnectEventHandler, %function
 325              	CyBle_GattDisconnectEventHandler:
 326              	.LFB8:
 875:.\Generated_Source\PSoC4/BLE_eventHandler.c **** #endif /* CYBLE_GATT_ROLE_CLIENT */
 876:.\Generated_Source\PSoC4/BLE_eventHandler.c **** 
 877:.\Generated_Source\PSoC4/BLE_eventHandler.c **** 
 878:.\Generated_Source\PSoC4/BLE_eventHandler.c **** /****************************************************************************** 
 879:.\Generated_Source\PSoC4/BLE_eventHandler.c **** ##Function Name: CyBle_DisconnectEventHandler
 880:.\Generated_Source\PSoC4/BLE_eventHandler.c **** *******************************************************************************
 881:.\Generated_Source\PSoC4/BLE_eventHandler.c **** 
 882:.\Generated_Source\PSoC4/BLE_eventHandler.c **** Summary:
 883:.\Generated_Source\PSoC4/BLE_eventHandler.c ****  Handles the GATT Disconnection event from the BLE stack.
 884:.\Generated_Source\PSoC4/BLE_eventHandler.c **** 
 885:.\Generated_Source\PSoC4/BLE_eventHandler.c **** Parameters:
 886:.\Generated_Source\PSoC4/BLE_eventHandler.c ****  None
 887:.\Generated_Source\PSoC4/BLE_eventHandler.c **** 
 888:.\Generated_Source\PSoC4/BLE_eventHandler.c **** Return:
 889:.\Generated_Source\PSoC4/BLE_eventHandler.c ****  None
 890:.\Generated_Source\PSoC4/BLE_eventHandler.c **** 
 891:.\Generated_Source\PSoC4/BLE_eventHandler.c **** ******************************************************************************/
 892:.\Generated_Source\PSoC4/BLE_eventHandler.c **** static void CyBle_GattDisconnectEventHandler(void)
 893:.\Generated_Source\PSoC4/BLE_eventHandler.c **** {
 327              		.loc 1 893 0
 328              		.cfi_startproc
 329 0000 80B5     		push	{r7, lr}
 330              		.cfi_def_cfa_offset 8
 331              		.cfi_offset 7, -8
 332              		.cfi_offset 14, -4
 333 0002 00AF     		add	r7, sp, #0
 334              		.cfi_def_cfa_register 7
 894:.\Generated_Source\PSoC4/BLE_eventHandler.c ****     cyBle_connHandle.attId = 0u;
 335              		.loc 1 894 0
 336 0004 094B     		ldr	r3, .L23
 337 0006 0022     		mov	r2, #0
 338 0008 5A70     		strb	r2, [r3, #1]
 895:.\Generated_Source\PSoC4/BLE_eventHandler.c ****     cyBle_connHandle.bdHandle = 0u;
 339              		.loc 1 895 0
 340 000a 084B     		ldr	r3, .L23
 341 000c 0022     		mov	r2, #0
 342 000e 1A70     		strb	r2, [r3]
 896:.\Generated_Source\PSoC4/BLE_eventHandler.c ****     
 897:.\Generated_Source\PSoC4/BLE_eventHandler.c ****     #if (CYBLE_GATT_ROLE_CLIENT)
 898:.\Generated_Source\PSoC4/BLE_eventHandler.c ****         if(CYBLE_CLIENT_STATE_DISCOVERED == CyBle_GetClientState())
 343              		.loc 1 898 0
 344 0010 074B     		ldr	r3, .L23+4
 345 0012 1B78     		ldrb	r3, [r3]
 346 0014 052B     		cmp	r3, #5
 347 0016 03D1     		bne	.L21
 899:.\Generated_Source\PSoC4/BLE_eventHandler.c ****         {
 900:.\Generated_Source\PSoC4/BLE_eventHandler.c ****             CyBle_SetClientState(CYBLE_CLIENT_STATE_DISCONNECTED_DISCOVERED);
 348              		.loc 1 900 0
 349 0018 054B     		ldr	r3, .L23+4
 350 001a 0722     		mov	r2, #7
 351 001c 1A70     		strb	r2, [r3]
 352 001e 02E0     		b	.L20
 353              	.L21:
 901:.\Generated_Source\PSoC4/BLE_eventHandler.c ****         }
ARM GAS  C:\Users\msuro\AppData\Local\Temp\ccG5pvI8.s 			page 23


 902:.\Generated_Source\PSoC4/BLE_eventHandler.c ****         else
 903:.\Generated_Source\PSoC4/BLE_eventHandler.c ****         {
 904:.\Generated_Source\PSoC4/BLE_eventHandler.c ****             CyBle_SetClientState(CYBLE_CLIENT_STATE_DISCONNECTED);
 354              		.loc 1 904 0
 355 0020 034B     		ldr	r3, .L23+4
 356 0022 0822     		mov	r2, #8
 357 0024 1A70     		strb	r2, [r3]
 358              	.L20:
 905:.\Generated_Source\PSoC4/BLE_eventHandler.c ****         }
 906:.\Generated_Source\PSoC4/BLE_eventHandler.c ****     #endif /* CYBLE_GATT_ROLE_CLIENT */
 907:.\Generated_Source\PSoC4/BLE_eventHandler.c ****         
 908:.\Generated_Source\PSoC4/BLE_eventHandler.c ****     #ifdef CYBLE_CPS_SERVER
 909:.\Generated_Source\PSoC4/BLE_eventHandler.c ****         #if CYBLE_GAP_ROLE_BROADCASTER
 910:.\Generated_Source\PSoC4/BLE_eventHandler.c ****             CyBle_CpssDisconnectEventHandler();
 911:.\Generated_Source\PSoC4/BLE_eventHandler.c ****         #endif /* CYBLE_GAP_ROLE_BROADCASTER */
 912:.\Generated_Source\PSoC4/BLE_eventHandler.c ****     #endif /* CYBLE_CPS_SERVER */
 913:.\Generated_Source\PSoC4/BLE_eventHandler.c **** 
 914:.\Generated_Source\PSoC4/BLE_eventHandler.c ****     #ifdef CYBLE_CPS_CLIENT
 915:.\Generated_Source\PSoC4/BLE_eventHandler.c ****         CyBle_CpscDisconnectEventHandler();
 916:.\Generated_Source\PSoC4/BLE_eventHandler.c ****     #endif /* CYBLE_CPS_CLIENT */
 917:.\Generated_Source\PSoC4/BLE_eventHandler.c **** 
 918:.\Generated_Source\PSoC4/BLE_eventHandler.c ****     #ifdef CYBLE_IAS_SERVER
 919:.\Generated_Source\PSoC4/BLE_eventHandler.c ****         CyBle_IassDisconnectEventHandler();
 920:.\Generated_Source\PSoC4/BLE_eventHandler.c ****     #endif /* CYBLE_IAS_SERVER */
 921:.\Generated_Source\PSoC4/BLE_eventHandler.c ****     
 922:.\Generated_Source\PSoC4/BLE_eventHandler.c ****     #ifdef CYBLE_GLS_SERVER
 923:.\Generated_Source\PSoC4/BLE_eventHandler.c ****         CyBle_GlsInit();
 924:.\Generated_Source\PSoC4/BLE_eventHandler.c ****     #endif /* CYBLE_GLS_SERVER */
 925:.\Generated_Source\PSoC4/BLE_eventHandler.c ****     
 926:.\Generated_Source\PSoC4/BLE_eventHandler.c ****     #ifdef CYBLE_LNS_SERVER
 927:.\Generated_Source\PSoC4/BLE_eventHandler.c ****         CyBle_LnsInit();
 928:.\Generated_Source\PSoC4/BLE_eventHandler.c ****     #endif /* CYBLE_LNS_SERVER */
 929:.\Generated_Source\PSoC4/BLE_eventHandler.c ****     
 930:.\Generated_Source\PSoC4/BLE_eventHandler.c ****     #ifdef CYBLE_UDS_SERVER
 931:.\Generated_Source\PSoC4/BLE_eventHandler.c ****         CyBle_UdsInit();
 932:.\Generated_Source\PSoC4/BLE_eventHandler.c ****     #endif /* CYBLE_UDS_SERVER */
 933:.\Generated_Source\PSoC4/BLE_eventHandler.c **** }
 359              		.loc 1 933 0
 360 0026 BD46     		mov	sp, r7
 361              		@ sp needed
 362 0028 80BD     		pop	{r7, pc}
 363              	.L24:
 364 002a C046     		.align	2
 365              	.L23:
 366 002c 00000000 		.word	cyBle_connHandle
 367 0030 00000000 		.word	cyBle_clientState
 368              		.cfi_endproc
 369              	.LFE8:
 370              		.size	CyBle_GattDisconnectEventHandler, .-CyBle_GattDisconnectEventHandler
 371              		.section	.text.CyBle_TimeOutEventHandler,"ax",%progbits
 372              		.align	2
 373              		.code	16
 374              		.thumb_func
 375              		.type	CyBle_TimeOutEventHandler, %function
 376              	CyBle_TimeOutEventHandler:
 377              	.LFB9:
 934:.\Generated_Source\PSoC4/BLE_eventHandler.c **** 
ARM GAS  C:\Users\msuro\AppData\Local\Temp\ccG5pvI8.s 			page 24


 935:.\Generated_Source\PSoC4/BLE_eventHandler.c **** 
 936:.\Generated_Source\PSoC4/BLE_eventHandler.c **** /****************************************************************************** 
 937:.\Generated_Source\PSoC4/BLE_eventHandler.c **** ##Function Name: CyBle_TimeOutEventHandler
 938:.\Generated_Source\PSoC4/BLE_eventHandler.c **** *******************************************************************************
 939:.\Generated_Source\PSoC4/BLE_eventHandler.c **** 
 940:.\Generated_Source\PSoC4/BLE_eventHandler.c **** Summary:
 941:.\Generated_Source\PSoC4/BLE_eventHandler.c ****  Handles the CYBLE_EVT_TIMEOUT event from the BLE stack.
 942:.\Generated_Source\PSoC4/BLE_eventHandler.c **** 
 943:.\Generated_Source\PSoC4/BLE_eventHandler.c **** Parameters:
 944:.\Generated_Source\PSoC4/BLE_eventHandler.c ****  *eventParam - The pointer to a structure of type CYBLE_TO_REASON_CODE_T.
 945:.\Generated_Source\PSoC4/BLE_eventHandler.c **** 
 946:.\Generated_Source\PSoC4/BLE_eventHandler.c **** Return:
 947:.\Generated_Source\PSoC4/BLE_eventHandler.c ****  None
 948:.\Generated_Source\PSoC4/BLE_eventHandler.c **** 
 949:.\Generated_Source\PSoC4/BLE_eventHandler.c **** ******************************************************************************/
 950:.\Generated_Source\PSoC4/BLE_eventHandler.c **** static void CyBle_TimeOutEventHandler(const CYBLE_TO_REASON_CODE_T *eventParam)
 951:.\Generated_Source\PSoC4/BLE_eventHandler.c **** {
 378              		.loc 1 951 0
 379              		.cfi_startproc
 380 0000 80B5     		push	{r7, lr}
 381              		.cfi_def_cfa_offset 8
 382              		.cfi_offset 7, -8
 383              		.cfi_offset 14, -4
 384 0002 82B0     		sub	sp, sp, #8
 385              		.cfi_def_cfa_offset 16
 386 0004 00AF     		add	r7, sp, #0
 387              		.cfi_def_cfa_register 7
 388 0006 7860     		str	r0, [r7, #4]
 952:.\Generated_Source\PSoC4/BLE_eventHandler.c ****     if(*eventParam == CYBLE_GATT_RSP_TO)
 389              		.loc 1 952 0
 390 0008 7B68     		ldr	r3, [r7, #4]
 391 000a 1B78     		ldrb	r3, [r3]
 392 000c 032B     		cmp	r3, #3
 393 000e 3ED1     		bne	.L26
 953:.\Generated_Source\PSoC4/BLE_eventHandler.c ****     {
 954:.\Generated_Source\PSoC4/BLE_eventHandler.c ****     #if (CYBLE_GATT_ROLE_CLIENT)
 955:.\Generated_Source\PSoC4/BLE_eventHandler.c ****         if(0u != (cyBle_eventHandlerFlag & CYBLE_AUTO_DISCOVERY))
 394              		.loc 1 955 0
 395 0010 254B     		ldr	r3, .L35
 396 0012 1B78     		ldrb	r3, [r3]
 397 0014 DBB2     		uxtb	r3, r3
 398 0016 1A1C     		mov	r2, r3
 399 0018 0223     		mov	r3, #2
 400 001a 1340     		and	r3, r2
 401 001c 37D0     		beq	.L26
 956:.\Generated_Source\PSoC4/BLE_eventHandler.c ****         {
 957:.\Generated_Source\PSoC4/BLE_eventHandler.c ****             switch(CyBle_GetClientState())
 402              		.loc 1 957 0
 403 001e 234B     		ldr	r3, .L35+4
 404 0020 1B78     		ldrb	r3, [r3]
 405 0022 022B     		cmp	r3, #2
 406 0024 10D0     		beq	.L28
 407 0026 02DC     		bgt	.L29
 408 0028 012B     		cmp	r3, #1
 409 002a 05D0     		beq	.L30
 958:.\Generated_Source\PSoC4/BLE_eventHandler.c ****             {
 959:.\Generated_Source\PSoC4/BLE_eventHandler.c ****                 case CYBLE_CLIENT_STATE_SRVC_DISCOVERING:
ARM GAS  C:\Users\msuro\AppData\Local\Temp\ccG5pvI8.s 			page 25


 960:.\Generated_Source\PSoC4/BLE_eventHandler.c ****                     CyBle_ApplCallback(CYBLE_EVT_GATTC_SRVC_DISCOVERY_FAILED, NULL);
 961:.\Generated_Source\PSoC4/BLE_eventHandler.c ****                     break;
 962:.\Generated_Source\PSoC4/BLE_eventHandler.c ****                 case CYBLE_CLIENT_STATE_INCL_DISCOVERING:
 963:.\Generated_Source\PSoC4/BLE_eventHandler.c ****                     CyBle_ApplCallback(CYBLE_EVT_GATTC_INCL_DISCOVERY_FAILED, NULL);
 964:.\Generated_Source\PSoC4/BLE_eventHandler.c ****                     break;
 965:.\Generated_Source\PSoC4/BLE_eventHandler.c ****                 case CYBLE_CLIENT_STATE_CHAR_DISCOVERING:
 966:.\Generated_Source\PSoC4/BLE_eventHandler.c ****                     CyBle_ApplCallback(CYBLE_EVT_GATTC_CHAR_DISCOVERY_FAILED, NULL);
 967:.\Generated_Source\PSoC4/BLE_eventHandler.c ****                     break;
 968:.\Generated_Source\PSoC4/BLE_eventHandler.c ****                 case CYBLE_CLIENT_STATE_DESCR_DISCOVERING:
 969:.\Generated_Source\PSoC4/BLE_eventHandler.c ****                     CyBle_ApplCallback(CYBLE_EVT_GATTC_DESCR_DISCOVERY_FAILED, NULL);
 970:.\Generated_Source\PSoC4/BLE_eventHandler.c ****                     break;
 971:.\Generated_Source\PSoC4/BLE_eventHandler.c ****                 default:        /* Other states should not be set in Auto discovery mode */
 972:.\Generated_Source\PSoC4/BLE_eventHandler.c ****                     break;
 410              		.loc 1 972 0
 411 002c 24E0     		b	.L33
 412              	.L29:
 957:.\Generated_Source\PSoC4/BLE_eventHandler.c ****             switch(CyBle_GetClientState())
 413              		.loc 1 957 0
 414 002e 032B     		cmp	r3, #3
 415 0030 12D0     		beq	.L31
 416 0032 042B     		cmp	r3, #4
 417 0034 18D0     		beq	.L32
 418              		.loc 1 972 0
 419 0036 1FE0     		b	.L33
 420              	.L30:
 960:.\Generated_Source\PSoC4/BLE_eventHandler.c ****                     CyBle_ApplCallback(CYBLE_EVT_GATTC_SRVC_DISCOVERY_FAILED, NULL);
 421              		.loc 1 960 0
 422 0038 1D4B     		ldr	r3, .L35+8
 423 003a 1B68     		ldr	r3, [r3]
 424 003c 0822     		mov	r2, #8
 425 003e FF32     		add	r2, r2, #255
 426 0040 101C     		mov	r0, r2
 427 0042 0021     		mov	r1, #0
 428 0044 9847     		blx	r3
 961:.\Generated_Source\PSoC4/BLE_eventHandler.c ****                     break;
 429              		.loc 1 961 0
 430 0046 17E0     		b	.L33
 431              	.L28:
 963:.\Generated_Source\PSoC4/BLE_eventHandler.c ****                     CyBle_ApplCallback(CYBLE_EVT_GATTC_INCL_DISCOVERY_FAILED, NULL);
 432              		.loc 1 963 0
 433 0048 194B     		ldr	r3, .L35+8
 434 004a 1B68     		ldr	r3, [r3]
 435 004c 8422     		mov	r2, #132
 436 004e 5200     		lsl	r2, r2, #1
 437 0050 101C     		mov	r0, r2
 438 0052 0021     		mov	r1, #0
 439 0054 9847     		blx	r3
 964:.\Generated_Source\PSoC4/BLE_eventHandler.c ****                     break;
 440              		.loc 1 964 0
 441 0056 0FE0     		b	.L33
 442              	.L31:
 966:.\Generated_Source\PSoC4/BLE_eventHandler.c ****                     CyBle_ApplCallback(CYBLE_EVT_GATTC_CHAR_DISCOVERY_FAILED, NULL);
 443              		.loc 1 966 0
 444 0058 154B     		ldr	r3, .L35+8
 445 005a 1B68     		ldr	r3, [r3]
 446 005c 0A22     		mov	r2, #10
 447 005e FF32     		add	r2, r2, #255
ARM GAS  C:\Users\msuro\AppData\Local\Temp\ccG5pvI8.s 			page 26


 448 0060 101C     		mov	r0, r2
 449 0062 0021     		mov	r1, #0
 450 0064 9847     		blx	r3
 967:.\Generated_Source\PSoC4/BLE_eventHandler.c ****                     break;
 451              		.loc 1 967 0
 452 0066 07E0     		b	.L33
 453              	.L32:
 969:.\Generated_Source\PSoC4/BLE_eventHandler.c ****                     CyBle_ApplCallback(CYBLE_EVT_GATTC_DESCR_DISCOVERY_FAILED, NULL);
 454              		.loc 1 969 0
 455 0068 114B     		ldr	r3, .L35+8
 456 006a 1B68     		ldr	r3, [r3]
 457 006c 8522     		mov	r2, #133
 458 006e 5200     		lsl	r2, r2, #1
 459 0070 101C     		mov	r0, r2
 460 0072 0021     		mov	r1, #0
 461 0074 9847     		blx	r3
 970:.\Generated_Source\PSoC4/BLE_eventHandler.c ****                     break;
 462              		.loc 1 970 0
 463 0076 C046     		mov	r8, r8
 464              	.L33:
 973:.\Generated_Source\PSoC4/BLE_eventHandler.c ****             }
 974:.\Generated_Source\PSoC4/BLE_eventHandler.c ****             cyBle_eventHandlerFlag &= (uint8)~CYBLE_AUTO_DISCOVERY;
 465              		.loc 1 974 0
 466 0078 0B4B     		ldr	r3, .L35
 467 007a 1B78     		ldrb	r3, [r3]
 468 007c DBB2     		uxtb	r3, r3
 469 007e 0222     		mov	r2, #2
 470 0080 9343     		bic	r3, r2
 471 0082 DAB2     		uxtb	r2, r3
 472 0084 084B     		ldr	r3, .L35
 473 0086 1A70     		strb	r2, [r3]
 975:.\Generated_Source\PSoC4/BLE_eventHandler.c ****             CyBle_SetClientState(CYBLE_CLIENT_STATE_CONNECTED);
 474              		.loc 1 975 0
 475 0088 084B     		ldr	r3, .L35+4
 476 008a 0022     		mov	r2, #0
 477 008c 1A70     		strb	r2, [r3]
 478              	.L26:
 976:.\Generated_Source\PSoC4/BLE_eventHandler.c ****         }
 977:.\Generated_Source\PSoC4/BLE_eventHandler.c ****     #endif /* CYBLE_GATT_ROLE_CLIENT */
 978:.\Generated_Source\PSoC4/BLE_eventHandler.c ****     #ifdef CYBLE_CPS_SERVER
 979:.\Generated_Source\PSoC4/BLE_eventHandler.c ****         CyBle_CpssTimeOutEventHandler();
 980:.\Generated_Source\PSoC4/BLE_eventHandler.c ****     #endif /* CYBLE_CPS_SERVER */
 981:.\Generated_Source\PSoC4/BLE_eventHandler.c ****     }
 982:.\Generated_Source\PSoC4/BLE_eventHandler.c ****     
 983:.\Generated_Source\PSoC4/BLE_eventHandler.c ****     /* Connection procedure timeout */
 984:.\Generated_Source\PSoC4/BLE_eventHandler.c ****     if(*eventParam == CYBLE_GENERIC_TO)
 479              		.loc 1 984 0
 480 008e 7B68     		ldr	r3, [r7, #4]
 481 0090 1B78     		ldrb	r3, [r3]
 482 0092 042B     		cmp	r3, #4
 483 0094 05D1     		bne	.L25
 985:.\Generated_Source\PSoC4/BLE_eventHandler.c ****     {
 986:.\Generated_Source\PSoC4/BLE_eventHandler.c ****     #if(CYBLE_GAP_ROLE_CENTRAL)
 987:.\Generated_Source\PSoC4/BLE_eventHandler.c ****         if(CYBLE_STATE_CONNECTING == CyBle_GetState())
 484              		.loc 1 987 0
 485 0096 074B     		ldr	r3, .L35+12
 486 0098 1B78     		ldrb	r3, [r3]
ARM GAS  C:\Users\msuro\AppData\Local\Temp\ccG5pvI8.s 			page 27


 487 009a 042B     		cmp	r3, #4
 488 009c 01D1     		bne	.L25
 988:.\Generated_Source\PSoC4/BLE_eventHandler.c ****         {
 989:.\Generated_Source\PSoC4/BLE_eventHandler.c ****             (void)CyBle_GapcCancelDeviceConnection();
 489              		.loc 1 989 0
 490 009e FFF7FEFF 		bl	CyBle_GapcCancelDeviceConnection
 491              	.L25:
 990:.\Generated_Source\PSoC4/BLE_eventHandler.c ****         }
 991:.\Generated_Source\PSoC4/BLE_eventHandler.c ****     #endif /* CYBLE_GAP_ROLE_CENTRAL */
 992:.\Generated_Source\PSoC4/BLE_eventHandler.c ****     }
 993:.\Generated_Source\PSoC4/BLE_eventHandler.c **** }
 492              		.loc 1 993 0
 493 00a2 BD46     		mov	sp, r7
 494 00a4 02B0     		add	sp, sp, #8
 495              		@ sp needed
 496 00a6 80BD     		pop	{r7, pc}
 497              	.L36:
 498              		.align	2
 499              	.L35:
 500 00a8 00000000 		.word	cyBle_eventHandlerFlag
 501 00ac 00000000 		.word	cyBle_clientState
 502 00b0 00000000 		.word	CyBle_ApplCallback
 503 00b4 00000000 		.word	cyBle_state
 504              		.cfi_endproc
 505              	.LFE9:
 506              		.size	CyBle_TimeOutEventHandler, .-CyBle_TimeOutEventHandler
 507              		.section	.text.CyBle_GattConnectReqHandler,"ax",%progbits
 508              		.align	2
 509              		.code	16
 510              		.thumb_func
 511              		.type	CyBle_GattConnectReqHandler, %function
 512              	CyBle_GattConnectReqHandler:
 513              	.LFB10:
 994:.\Generated_Source\PSoC4/BLE_eventHandler.c **** 
 995:.\Generated_Source\PSoC4/BLE_eventHandler.c **** 
 996:.\Generated_Source\PSoC4/BLE_eventHandler.c **** /****************************************************************************** 
 997:.\Generated_Source\PSoC4/BLE_eventHandler.c **** ##Function Name: CyBle_GattConnectReqHandler
 998:.\Generated_Source\PSoC4/BLE_eventHandler.c **** *******************************************************************************
 999:.\Generated_Source\PSoC4/BLE_eventHandler.c **** 
1000:.\Generated_Source\PSoC4/BLE_eventHandler.c **** Summary:
1001:.\Generated_Source\PSoC4/BLE_eventHandler.c ****  Handles the GATT connect event from the BLE stack.
1002:.\Generated_Source\PSoC4/BLE_eventHandler.c **** 
1003:.\Generated_Source\PSoC4/BLE_eventHandler.c **** Parameters:
1004:.\Generated_Source\PSoC4/BLE_eventHandler.c ****  None
1005:.\Generated_Source\PSoC4/BLE_eventHandler.c **** 
1006:.\Generated_Source\PSoC4/BLE_eventHandler.c **** Return:
1007:.\Generated_Source\PSoC4/BLE_eventHandler.c ****  None
1008:.\Generated_Source\PSoC4/BLE_eventHandler.c **** 
1009:.\Generated_Source\PSoC4/BLE_eventHandler.c **** ******************************************************************************/
1010:.\Generated_Source\PSoC4/BLE_eventHandler.c **** static void CyBle_GattConnectReqHandler(void)
1011:.\Generated_Source\PSoC4/BLE_eventHandler.c **** {
 514              		.loc 1 1011 0
 515              		.cfi_startproc
 516 0000 80B5     		push	{r7, lr}
 517              		.cfi_def_cfa_offset 8
 518              		.cfi_offset 7, -8
 519              		.cfi_offset 14, -4
ARM GAS  C:\Users\msuro\AppData\Local\Temp\ccG5pvI8.s 			page 28


 520 0002 00AF     		add	r7, sp, #0
 521              		.cfi_def_cfa_register 7
1012:.\Generated_Source\PSoC4/BLE_eventHandler.c ****     #ifdef CYBLE_CPS_SERVER
1013:.\Generated_Source\PSoC4/BLE_eventHandler.c ****         CyBle_CpssConnectEventHandler();
1014:.\Generated_Source\PSoC4/BLE_eventHandler.c ****     #endif /* CYBLE_CPS_SERVER */
1015:.\Generated_Source\PSoC4/BLE_eventHandler.c ****     
1016:.\Generated_Source\PSoC4/BLE_eventHandler.c ****     #ifdef CYBLE_CSCS_SERVER
1017:.\Generated_Source\PSoC4/BLE_eventHandler.c ****             CyBle_CscsInit();
1018:.\Generated_Source\PSoC4/BLE_eventHandler.c ****     #endif /* CYBLE_CSCS_SERVER */
1019:.\Generated_Source\PSoC4/BLE_eventHandler.c ****     
1020:.\Generated_Source\PSoC4/BLE_eventHandler.c ****     #ifdef CYBLE_LLS_SERVER
1021:.\Generated_Source\PSoC4/BLE_eventHandler.c ****         CyBle_LlssConnectEventHandler();
1022:.\Generated_Source\PSoC4/BLE_eventHandler.c ****     #endif /* CYBLE_LLS_SERVER */
1023:.\Generated_Source\PSoC4/BLE_eventHandler.c ****     
1024:.\Generated_Source\PSoC4/BLE_eventHandler.c ****     #ifdef CYBLE_HIDS_SERVER
1025:.\Generated_Source\PSoC4/BLE_eventHandler.c ****         CyBle_HidssOnDeviceConnected();
1026:.\Generated_Source\PSoC4/BLE_eventHandler.c ****     #endif /* CYBLE_HIDS_SERVER */
1027:.\Generated_Source\PSoC4/BLE_eventHandler.c **** 
1028:.\Generated_Source\PSoC4/BLE_eventHandler.c ****     #ifdef CYBLE_RSCS_SERVER
1029:.\Generated_Source\PSoC4/BLE_eventHandler.c ****         CyBle_RscsInit();
1030:.\Generated_Source\PSoC4/BLE_eventHandler.c ****     #endif /* CYBLE_RSCS_SERVER */
1031:.\Generated_Source\PSoC4/BLE_eventHandler.c **** }
 522              		.loc 1 1031 0
 523 0004 BD46     		mov	sp, r7
 524              		@ sp needed
 525 0006 80BD     		pop	{r7, pc}
 526              		.cfi_endproc
 527              	.LFE10:
 528              		.size	CyBle_GattConnectReqHandler, .-CyBle_GattConnectReqHandler
 529              		.section	.text.CyBle_IsDeviceAddressValid,"ax",%progbits
 530              		.align	2
 531              		.code	16
 532              		.thumb_func
 533              		.type	CyBle_IsDeviceAddressValid, %function
 534              	CyBle_IsDeviceAddressValid:
 535              	.LFB11:
1032:.\Generated_Source\PSoC4/BLE_eventHandler.c **** 
1033:.\Generated_Source\PSoC4/BLE_eventHandler.c **** 
1034:.\Generated_Source\PSoC4/BLE_eventHandler.c **** #if (CYBLE_GATT_ROLE_SERVER || CYBLE_GATT_ROLE_CLIENT)
1035:.\Generated_Source\PSoC4/BLE_eventHandler.c **** 
1036:.\Generated_Source\PSoC4/BLE_eventHandler.c **** /****************************************************************************** 
1037:.\Generated_Source\PSoC4/BLE_eventHandler.c **** ##Function Name: CyBle_IsDeviceAddressValid
1038:.\Generated_Source\PSoC4/BLE_eventHandler.c **** *******************************************************************************
1039:.\Generated_Source\PSoC4/BLE_eventHandler.c **** 
1040:.\Generated_Source\PSoC4/BLE_eventHandler.c **** Summary:
1041:.\Generated_Source\PSoC4/BLE_eventHandler.c ****  This function verifies that BLE public address has been programmed to SFLASH 
1042:.\Generated_Source\PSoC4/BLE_eventHandler.c ****  during manufacture.
1043:.\Generated_Source\PSoC4/BLE_eventHandler.c **** 
1044:.\Generated_Source\PSoC4/BLE_eventHandler.c **** Parameters:
1045:.\Generated_Source\PSoC4/BLE_eventHandler.c ****  CYBLE_GAP_BD_ADDR_T *sflashDeviceAddress: the pointer to the BD address of 
1046:.\Generated_Source\PSoC4/BLE_eventHandler.c ****                                            type CYBLE_GAP_BD_ADDR_T. 
1047:.\Generated_Source\PSoC4/BLE_eventHandler.c **** 
1048:.\Generated_Source\PSoC4/BLE_eventHandler.c **** Return:
1049:.\Generated_Source\PSoC4/BLE_eventHandler.c ****  Non zero value when a device address differs from the default SFLASH content.
1050:.\Generated_Source\PSoC4/BLE_eventHandler.c **** 
1051:.\Generated_Source\PSoC4/BLE_eventHandler.c **** ******************************************************************************/
1052:.\Generated_Source\PSoC4/BLE_eventHandler.c **** static uint8 CyBle_IsDeviceAddressValid(const CYBLE_GAP_BD_ADDR_T *sflashDeviceAddress)
ARM GAS  C:\Users\msuro\AppData\Local\Temp\ccG5pvI8.s 			page 29


1053:.\Generated_Source\PSoC4/BLE_eventHandler.c **** {
 536              		.loc 1 1053 0
 537              		.cfi_startproc
 538 0000 80B5     		push	{r7, lr}
 539              		.cfi_def_cfa_offset 8
 540              		.cfi_offset 7, -8
 541              		.cfi_offset 14, -4
 542 0002 84B0     		sub	sp, sp, #16
 543              		.cfi_def_cfa_offset 24
 544 0004 00AF     		add	r7, sp, #0
 545              		.cfi_def_cfa_register 7
 546 0006 7860     		str	r0, [r7, #4]
1054:.\Generated_Source\PSoC4/BLE_eventHandler.c ****     uint8 i;
1055:.\Generated_Source\PSoC4/BLE_eventHandler.c ****     uint8 sflashAddressValid = 0u;
 547              		.loc 1 1055 0
 548 0008 3B1C     		mov	r3, r7
 549 000a 0E33     		add	r3, r3, #14
 550 000c 0022     		mov	r2, #0
 551 000e 1A70     		strb	r2, [r3]
1056:.\Generated_Source\PSoC4/BLE_eventHandler.c ****     
1057:.\Generated_Source\PSoC4/BLE_eventHandler.c ****     if(sflashDeviceAddress -> type == CYBLE_GAP_ADDR_TYPE_PUBLIC)  
 552              		.loc 1 1057 0
 553 0010 7B68     		ldr	r3, [r7, #4]
 554 0012 9B79     		ldrb	r3, [r3, #6]
 555 0014 002B     		cmp	r3, #0
 556 0016 1CD1     		bne	.L39
1058:.\Generated_Source\PSoC4/BLE_eventHandler.c ****     {
1059:.\Generated_Source\PSoC4/BLE_eventHandler.c ****         for(i = 0u; i < CYBLE_GAP_BD_ADDR_SIZE; i++)
 557              		.loc 1 1059 0
 558 0018 3B1C     		mov	r3, r7
 559 001a 0F33     		add	r3, r3, #15
 560 001c 0022     		mov	r2, #0
 561 001e 1A70     		strb	r2, [r3]
 562 0020 12E0     		b	.L40
 563              	.L42:
1060:.\Generated_Source\PSoC4/BLE_eventHandler.c ****         {
1061:.\Generated_Source\PSoC4/BLE_eventHandler.c ****             if(sflashDeviceAddress->bdAddr[i] != 0u)
 564              		.loc 1 1061 0
 565 0022 3B1C     		mov	r3, r7
 566 0024 0F33     		add	r3, r3, #15
 567 0026 1B78     		ldrb	r3, [r3]
 568 0028 7A68     		ldr	r2, [r7, #4]
 569 002a D35C     		ldrb	r3, [r2, r3]
 570 002c 002B     		cmp	r3, #0
 571 002e 04D0     		beq	.L41
1062:.\Generated_Source\PSoC4/BLE_eventHandler.c ****             {
1063:.\Generated_Source\PSoC4/BLE_eventHandler.c ****                 sflashAddressValid = 1u;
 572              		.loc 1 1063 0
 573 0030 3B1C     		mov	r3, r7
 574 0032 0E33     		add	r3, r3, #14
 575 0034 0122     		mov	r2, #1
 576 0036 1A70     		strb	r2, [r3]
1064:.\Generated_Source\PSoC4/BLE_eventHandler.c ****                 break;
 577              		.loc 1 1064 0
 578 0038 0BE0     		b	.L39
 579              	.L41:
1059:.\Generated_Source\PSoC4/BLE_eventHandler.c ****         for(i = 0u; i < CYBLE_GAP_BD_ADDR_SIZE; i++)
ARM GAS  C:\Users\msuro\AppData\Local\Temp\ccG5pvI8.s 			page 30


 580              		.loc 1 1059 0
 581 003a 3B1C     		mov	r3, r7
 582 003c 0F33     		add	r3, r3, #15
 583 003e 1A78     		ldrb	r2, [r3]
 584 0040 3B1C     		mov	r3, r7
 585 0042 0F33     		add	r3, r3, #15
 586 0044 0132     		add	r2, r2, #1
 587 0046 1A70     		strb	r2, [r3]
 588              	.L40:
1059:.\Generated_Source\PSoC4/BLE_eventHandler.c ****         for(i = 0u; i < CYBLE_GAP_BD_ADDR_SIZE; i++)
 589              		.loc 1 1059 0 is_stmt 0 discriminator 1
 590 0048 3B1C     		mov	r3, r7
 591 004a 0F33     		add	r3, r3, #15
 592 004c 1B78     		ldrb	r3, [r3]
 593 004e 052B     		cmp	r3, #5
 594 0050 E7D9     		bls	.L42
 595              	.L39:
1065:.\Generated_Source\PSoC4/BLE_eventHandler.c ****             }
1066:.\Generated_Source\PSoC4/BLE_eventHandler.c ****         }
1067:.\Generated_Source\PSoC4/BLE_eventHandler.c ****     }
1068:.\Generated_Source\PSoC4/BLE_eventHandler.c ****     return (sflashAddressValid);
 596              		.loc 1 1068 0 is_stmt 1
 597 0052 3B1C     		mov	r3, r7
 598 0054 0E33     		add	r3, r3, #14
 599 0056 1B78     		ldrb	r3, [r3]
1069:.\Generated_Source\PSoC4/BLE_eventHandler.c **** }
 600              		.loc 1 1069 0
 601 0058 181C     		mov	r0, r3
 602 005a BD46     		mov	sp, r7
 603 005c 04B0     		add	sp, sp, #16
 604              		@ sp needed
 605 005e 80BD     		pop	{r7, pc}
 606              		.cfi_endproc
 607              	.LFE11:
 608              		.size	CyBle_IsDeviceAddressValid, .-CyBle_IsDeviceAddressValid
 609              		.section	.text.CyBle_L2Cap_ConnParamUpdateRspEventHandler,"ax",%progbits
 610              		.align	2
 611              		.code	16
 612              		.thumb_func
 613              		.type	CyBle_L2Cap_ConnParamUpdateRspEventHandler, %function
 614              	CyBle_L2Cap_ConnParamUpdateRspEventHandler:
 615              	.LFB12:
1070:.\Generated_Source\PSoC4/BLE_eventHandler.c **** #endif /* CYBLE_GATT_ROLE_SERVER || CYBLE_GATT_ROLE_CLIENT */
1071:.\Generated_Source\PSoC4/BLE_eventHandler.c **** 
1072:.\Generated_Source\PSoC4/BLE_eventHandler.c **** 
1073:.\Generated_Source\PSoC4/BLE_eventHandler.c **** /****************************************************************************** 
1074:.\Generated_Source\PSoC4/BLE_eventHandler.c **** ##Function Name: CyBle_L2Cap_ConnParamUpdateRspHandler
1075:.\Generated_Source\PSoC4/BLE_eventHandler.c **** *******************************************************************************
1076:.\Generated_Source\PSoC4/BLE_eventHandler.c **** 
1077:.\Generated_Source\PSoC4/BLE_eventHandler.c **** Summary:
1078:.\Generated_Source\PSoC4/BLE_eventHandler.c ****  Handles the L2CAP connection parameter response event from
1079:.\Generated_Source\PSoC4/BLE_eventHandler.c ****  the BLE stack.
1080:.\Generated_Source\PSoC4/BLE_eventHandler.c **** 
1081:.\Generated_Source\PSoC4/BLE_eventHandler.c **** Parameters:
1082:.\Generated_Source\PSoC4/BLE_eventHandler.c ****  uint16 response:
1083:.\Generated_Source\PSoC4/BLE_eventHandler.c ****      * Accepted = 0x0000
1084:.\Generated_Source\PSoC4/BLE_eventHandler.c ****      * Rejected = 0x0001
ARM GAS  C:\Users\msuro\AppData\Local\Temp\ccG5pvI8.s 			page 31


1085:.\Generated_Source\PSoC4/BLE_eventHandler.c **** 
1086:.\Generated_Source\PSoC4/BLE_eventHandler.c **** Return:
1087:.\Generated_Source\PSoC4/BLE_eventHandler.c ****  None
1088:.\Generated_Source\PSoC4/BLE_eventHandler.c **** 
1089:.\Generated_Source\PSoC4/BLE_eventHandler.c **** ******************************************************************************/
1090:.\Generated_Source\PSoC4/BLE_eventHandler.c **** static void CyBle_L2Cap_ConnParamUpdateRspEventHandler(uint16 response)
1091:.\Generated_Source\PSoC4/BLE_eventHandler.c **** {
 616              		.loc 1 1091 0
 617              		.cfi_startproc
 618 0000 80B5     		push	{r7, lr}
 619              		.cfi_def_cfa_offset 8
 620              		.cfi_offset 7, -8
 621              		.cfi_offset 14, -4
 622 0002 82B0     		sub	sp, sp, #8
 623              		.cfi_def_cfa_offset 16
 624 0004 00AF     		add	r7, sp, #0
 625              		.cfi_def_cfa_register 7
 626 0006 021C     		mov	r2, r0
 627 0008 BB1D     		add	r3, r7, #6
 628 000a 1A80     		strh	r2, [r3]
1092:.\Generated_Source\PSoC4/BLE_eventHandler.c ****     #ifdef CYBLE_CPS_SERVER
1093:.\Generated_Source\PSoC4/BLE_eventHandler.c ****         CyBle_CpssConnParamUpdateRspEventHandler(response);
1094:.\Generated_Source\PSoC4/BLE_eventHandler.c ****     #endif /* CYBLE_CPS_SERVER */
1095:.\Generated_Source\PSoC4/BLE_eventHandler.c ****     
1096:.\Generated_Source\PSoC4/BLE_eventHandler.c ****     /* Unreferenced variable warning workaround */
1097:.\Generated_Source\PSoC4/BLE_eventHandler.c ****     if(response != 0u)
1098:.\Generated_Source\PSoC4/BLE_eventHandler.c ****     {
1099:.\Generated_Source\PSoC4/BLE_eventHandler.c ****     }
1100:.\Generated_Source\PSoC4/BLE_eventHandler.c **** }
 629              		.loc 1 1100 0
 630 000c BD46     		mov	sp, r7
 631 000e 02B0     		add	sp, sp, #8
 632              		@ sp needed
 633 0010 80BD     		pop	{r7, pc}
 634              		.cfi_endproc
 635              	.LFE12:
 636              		.size	CyBle_L2Cap_ConnParamUpdateRspEventHandler, .-CyBle_L2Cap_ConnParamUpdateRspEventHandler
 637 0012 C046     		.section	.text.CyBle_GapConnUpdateCompleteEventHandler,"ax",%progbits
 638              		.align	2
 639              		.code	16
 640              		.thumb_func
 641              		.type	CyBle_GapConnUpdateCompleteEventHandler, %function
 642              	CyBle_GapConnUpdateCompleteEventHandler:
 643              	.LFB13:
1101:.\Generated_Source\PSoC4/BLE_eventHandler.c **** 
1102:.\Generated_Source\PSoC4/BLE_eventHandler.c **** 
1103:.\Generated_Source\PSoC4/BLE_eventHandler.c **** /****************************************************************************** 
1104:.\Generated_Source\PSoC4/BLE_eventHandler.c **** ##Function Name: CyBle_GapConnUpdateCompleteEventHandler
1105:.\Generated_Source\PSoC4/BLE_eventHandler.c **** *******************************************************************************
1106:.\Generated_Source\PSoC4/BLE_eventHandler.c **** 
1107:.\Generated_Source\PSoC4/BLE_eventHandler.c **** Summary:
1108:.\Generated_Source\PSoC4/BLE_eventHandler.c ****  Handles the CYBLE_EVT_GAP_CONNECTION_UPDATE_COMPLETE event from
1109:.\Generated_Source\PSoC4/BLE_eventHandler.c ****  the BLE stack.
1110:.\Generated_Source\PSoC4/BLE_eventHandler.c **** 
1111:.\Generated_Source\PSoC4/BLE_eventHandler.c **** Parameters:
1112:.\Generated_Source\PSoC4/BLE_eventHandler.c ****  *eventParam: The pointer to the data structure specified by the event.
1113:.\Generated_Source\PSoC4/BLE_eventHandler.c **** 
ARM GAS  C:\Users\msuro\AppData\Local\Temp\ccG5pvI8.s 			page 32


1114:.\Generated_Source\PSoC4/BLE_eventHandler.c **** Return:
1115:.\Generated_Source\PSoC4/BLE_eventHandler.c ****  None
1116:.\Generated_Source\PSoC4/BLE_eventHandler.c **** 
1117:.\Generated_Source\PSoC4/BLE_eventHandler.c **** ******************************************************************************/
1118:.\Generated_Source\PSoC4/BLE_eventHandler.c **** static void CyBle_GapConnUpdateCompleteEventHandler(const CYBLE_GAP_CONN_PARAM_UPDATED_IN_CONTROLLE
1119:.\Generated_Source\PSoC4/BLE_eventHandler.c **** {
 644              		.loc 1 1119 0
 645              		.cfi_startproc
 646 0000 80B5     		push	{r7, lr}
 647              		.cfi_def_cfa_offset 8
 648              		.cfi_offset 7, -8
 649              		.cfi_offset 14, -4
 650 0002 82B0     		sub	sp, sp, #8
 651              		.cfi_def_cfa_offset 16
 652 0004 00AF     		add	r7, sp, #0
 653              		.cfi_def_cfa_register 7
 654 0006 7860     		str	r0, [r7, #4]
1120:.\Generated_Source\PSoC4/BLE_eventHandler.c ****     #ifdef CYBLE_CPS_SERVER
1121:.\Generated_Source\PSoC4/BLE_eventHandler.c ****         CyBle_CpssConnUpdateCompleteEventHandler(eventParam);
1122:.\Generated_Source\PSoC4/BLE_eventHandler.c ****     #endif /* CYBLE_CPS_SERVER */
1123:.\Generated_Source\PSoC4/BLE_eventHandler.c ****     
1124:.\Generated_Source\PSoC4/BLE_eventHandler.c ****     /* Unreferenced variable warning workaround */
1125:.\Generated_Source\PSoC4/BLE_eventHandler.c ****     if(eventParam != 0u)
1126:.\Generated_Source\PSoC4/BLE_eventHandler.c ****     {
1127:.\Generated_Source\PSoC4/BLE_eventHandler.c ****     }
1128:.\Generated_Source\PSoC4/BLE_eventHandler.c **** }
 655              		.loc 1 1128 0
 656 0008 BD46     		mov	sp, r7
 657 000a 02B0     		add	sp, sp, #8
 658              		@ sp needed
 659 000c 80BD     		pop	{r7, pc}
 660              		.cfi_endproc
 661              	.LFE13:
 662              		.size	CyBle_GapConnUpdateCompleteEventHandler, .-CyBle_GapConnUpdateCompleteEventHandler
 663              		.section	.text.CyBle_EventHandler,"ax",%progbits
 664              		.align	2
 665              		.global	CyBle_EventHandler
 666              		.code	16
 667              		.thumb_func
 668              		.type	CyBle_EventHandler, %function
 669              	CyBle_EventHandler:
 670              	.LFB14:
1129:.\Generated_Source\PSoC4/BLE_eventHandler.c **** 
1130:.\Generated_Source\PSoC4/BLE_eventHandler.c **** 
1131:.\Generated_Source\PSoC4/BLE_eventHandler.c **** /****************************************************************************** 
1132:.\Generated_Source\PSoC4/BLE_eventHandler.c **** ##Function Name: CyBle_EventHandler
1133:.\Generated_Source\PSoC4/BLE_eventHandler.c **** *******************************************************************************
1134:.\Generated_Source\PSoC4/BLE_eventHandler.c **** 
1135:.\Generated_Source\PSoC4/BLE_eventHandler.c **** Summary:
1136:.\Generated_Source\PSoC4/BLE_eventHandler.c ****  Handles the events from the BLE stack
1137:.\Generated_Source\PSoC4/BLE_eventHandler.c **** 
1138:.\Generated_Source\PSoC4/BLE_eventHandler.c **** Parameters:
1139:.\Generated_Source\PSoC4/BLE_eventHandler.c ****  eventCode:    the event code
1140:.\Generated_Source\PSoC4/BLE_eventHandler.c ****  *eventParam:  the event parameters
1141:.\Generated_Source\PSoC4/BLE_eventHandler.c **** 
1142:.\Generated_Source\PSoC4/BLE_eventHandler.c **** Return:
1143:.\Generated_Source\PSoC4/BLE_eventHandler.c ****  None.
ARM GAS  C:\Users\msuro\AppData\Local\Temp\ccG5pvI8.s 			page 33


1144:.\Generated_Source\PSoC4/BLE_eventHandler.c **** 
1145:.\Generated_Source\PSoC4/BLE_eventHandler.c **** ******************************************************************************/
1146:.\Generated_Source\PSoC4/BLE_eventHandler.c **** void CyBle_EventHandler(uint8 eventCode, void *eventParam)
1147:.\Generated_Source\PSoC4/BLE_eventHandler.c **** {
 671              		.loc 1 1147 0
 672              		.cfi_startproc
 673 0000 80B5     		push	{r7, lr}
 674              		.cfi_def_cfa_offset 8
 675              		.cfi_offset 7, -8
 676              		.cfi_offset 14, -4
 677 0002 84B0     		sub	sp, sp, #16
 678              		.cfi_def_cfa_offset 24
 679 0004 00AF     		add	r7, sp, #0
 680              		.cfi_def_cfa_register 7
 681 0006 021C     		mov	r2, r0
 682 0008 3960     		str	r1, [r7]
 683 000a FB1D     		add	r3, r7, #7
 684 000c 1A70     		strb	r2, [r3]
1148:.\Generated_Source\PSoC4/BLE_eventHandler.c ****     cyBle_eventHandlerFlag |= CYBLE_CALLBACK;
 685              		.loc 1 1148 0
 686 000e BE4B     		ldr	r3, .L88
 687 0010 1B78     		ldrb	r3, [r3]
 688 0012 DBB2     		uxtb	r3, r3
 689 0014 0122     		mov	r2, #1
 690 0016 1343     		orr	r3, r2
 691 0018 DAB2     		uxtb	r2, r3
 692 001a BB4B     		ldr	r3, .L88
 693 001c 1A70     		strb	r2, [r3]
1149:.\Generated_Source\PSoC4/BLE_eventHandler.c **** 
1150:.\Generated_Source\PSoC4/BLE_eventHandler.c ****     /* Common Profile event handling */
1151:.\Generated_Source\PSoC4/BLE_eventHandler.c ****     switch(eventCode)
 694              		.loc 1 1151 0
 695 001e FB1D     		add	r3, r7, #7
 696 0020 1B78     		ldrb	r3, [r3]
 697 0022 FA2B     		cmp	r3, #250
 698 0024 00D9     		bls	.LCB595
 699 0026 53E1     		b	.L87	@long jump
 700              	.LCB595:
 701 0028 9A00     		lsl	r2, r3, #2
 702 002a B84B     		ldr	r3, .L88+4
 703 002c D318     		add	r3, r2, r3
 704 002e 1B68     		ldr	r3, [r3]
 705 0030 9F46     		mov	pc, r3
 706              		.section	.rodata
 707              		.align	2
 708              	.L49:
 709 0000 D0020000 		.word	.L87
 710 0004 32000000 		.word	.L48
 711 0008 B0000000 		.word	.L50
 712 000c D0020000 		.word	.L87
 713 0010 D0020000 		.word	.L87
 714 0014 BA000000 		.word	.L51
 715 0018 D0020000 		.word	.L87
 716 001c D0020000 		.word	.L87
 717 0020 D0020000 		.word	.L87
 718 0024 D0020000 		.word	.L87
 719 0028 D0020000 		.word	.L87
ARM GAS  C:\Users\msuro\AppData\Local\Temp\ccG5pvI8.s 			page 34


 720 002c D0020000 		.word	.L87
 721 0030 D0020000 		.word	.L87
 722 0034 D0020000 		.word	.L87
 723 0038 D0020000 		.word	.L87
 724 003c D0020000 		.word	.L87
 725 0040 D0020000 		.word	.L87
 726 0044 D0020000 		.word	.L87
 727 0048 D0020000 		.word	.L87
 728 004c D0020000 		.word	.L87
 729 0050 D0020000 		.word	.L87
 730 0054 D0020000 		.word	.L87
 731 0058 D0020000 		.word	.L87
 732 005c D0020000 		.word	.L87
 733 0060 D0020000 		.word	.L87
 734 0064 D0020000 		.word	.L87
 735 0068 D0020000 		.word	.L87
 736 006c D0020000 		.word	.L87
 737 0070 D0020000 		.word	.L87
 738 0074 D0020000 		.word	.L87
 739 0078 D0020000 		.word	.L87
 740 007c D0020000 		.word	.L87
 741 0080 D0020000 		.word	.L87
 742 0084 C4000000 		.word	.L53
 743 0088 D0020000 		.word	.L87
 744 008c D0020000 		.word	.L87
 745 0090 D0020000 		.word	.L87
 746 0094 D0020000 		.word	.L87
 747 0098 D0020000 		.word	.L87
 748 009c FC000000 		.word	.L54
 749 00a0 18010000 		.word	.L55
 750 00a4 D0020000 		.word	.L87
 751 00a8 F2000000 		.word	.L56
 752 00ac 20010000 		.word	.L57
 753 00b0 D0020000 		.word	.L87
 754 00b4 D0020000 		.word	.L87
 755 00b8 D0020000 		.word	.L87
 756 00bc D0020000 		.word	.L87
 757 00c0 D0020000 		.word	.L87
 758 00c4 D0020000 		.word	.L87
 759 00c8 D0020000 		.word	.L87
 760 00cc D0020000 		.word	.L87
 761 00d0 D0020000 		.word	.L87
 762 00d4 D0020000 		.word	.L87
 763 00d8 D0020000 		.word	.L87
 764 00dc D0020000 		.word	.L87
 765 00e0 D0020000 		.word	.L87
 766 00e4 D0020000 		.word	.L87
 767 00e8 D0020000 		.word	.L87
 768 00ec D0020000 		.word	.L87
 769 00f0 D0020000 		.word	.L87
 770 00f4 D0020000 		.word	.L87
 771 00f8 D0020000 		.word	.L87
 772 00fc D0020000 		.word	.L87
 773 0100 6E020000 		.word	.L58
 774 0104 BA010000 		.word	.L59
 775 0108 F6010000 		.word	.L60
 776 010c FC010000 		.word	.L61
ARM GAS  C:\Users\msuro\AppData\Local\Temp\ccG5pvI8.s 			page 35


 777 0110 D0020000 		.word	.L87
 778 0114 50020000 		.word	.L62
 779 0118 5A020000 		.word	.L63
 780 011c 64020000 		.word	.L64
 781 0120 D0020000 		.word	.L87
 782 0124 AC020000 		.word	.L65
 783 0128 D0020000 		.word	.L87
 784 012c D0020000 		.word	.L87
 785 0130 3C020000 		.word	.L66
 786 0134 B6020000 		.word	.L67
 787 0138 D0020000 		.word	.L87
 788 013c D0020000 		.word	.L87
 789 0140 D0020000 		.word	.L87
 790 0144 D0020000 		.word	.L87
 791 0148 78020000 		.word	.L69
 792 014c 82020000 		.word	.L70
 793 0150 46020000 		.word	.L71
 794 0154 D0020000 		.word	.L87
 795 0158 D0020000 		.word	.L87
 796 015c D0020000 		.word	.L87
 797 0160 D0020000 		.word	.L87
 798 0164 D0020000 		.word	.L87
 799 0168 D0020000 		.word	.L87
 800 016c D0020000 		.word	.L87
 801 0170 D0020000 		.word	.L87
 802 0174 D0020000 		.word	.L87
 803 0178 D0020000 		.word	.L87
 804 017c D0020000 		.word	.L87
 805 0180 D0020000 		.word	.L87
 806 0184 D0020000 		.word	.L87
 807 0188 D0020000 		.word	.L87
 808 018c D0020000 		.word	.L87
 809 0190 D0020000 		.word	.L87
 810 0194 D0020000 		.word	.L87
 811 0198 D0020000 		.word	.L87
 812 019c D0020000 		.word	.L87
 813 01a0 D0020000 		.word	.L87
 814 01a4 D0020000 		.word	.L87
 815 01a8 D0020000 		.word	.L87
 816 01ac D0020000 		.word	.L87
 817 01b0 D0020000 		.word	.L87
 818 01b4 D0020000 		.word	.L87
 819 01b8 D0020000 		.word	.L87
 820 01bc D0020000 		.word	.L87
 821 01c0 D0020000 		.word	.L87
 822 01c4 AE010000 		.word	.L72
 823 01c8 D0020000 		.word	.L87
 824 01cc D0020000 		.word	.L87
 825 01d0 D0020000 		.word	.L87
 826 01d4 D0020000 		.word	.L87
 827 01d8 D0020000 		.word	.L87
 828 01dc D0020000 		.word	.L87
 829 01e0 D0020000 		.word	.L87
 830 01e4 D0020000 		.word	.L87
 831 01e8 D0020000 		.word	.L87
 832 01ec D0020000 		.word	.L87
 833 01f0 D0020000 		.word	.L87
ARM GAS  C:\Users\msuro\AppData\Local\Temp\ccG5pvI8.s 			page 36


 834 01f4 D0020000 		.word	.L87
 835 01f8 D0020000 		.word	.L87
 836 01fc D0020000 		.word	.L87
 837 0200 D0020000 		.word	.L87
 838 0204 D0020000 		.word	.L87
 839 0208 D0020000 		.word	.L87
 840 020c D0020000 		.word	.L87
 841 0210 D0020000 		.word	.L87
 842 0214 D0020000 		.word	.L87
 843 0218 D0020000 		.word	.L87
 844 021c D0020000 		.word	.L87
 845 0220 D0020000 		.word	.L87
 846 0224 D0020000 		.word	.L87
 847 0228 D0020000 		.word	.L87
 848 022c D0020000 		.word	.L87
 849 0230 D0020000 		.word	.L87
 850 0234 D0020000 		.word	.L87
 851 0238 D0020000 		.word	.L87
 852 023c D0020000 		.word	.L87
 853 0240 D0020000 		.word	.L87
 854 0244 D0020000 		.word	.L87
 855 0248 D0020000 		.word	.L87
 856 024c D0020000 		.word	.L87
 857 0250 D0020000 		.word	.L87
 858 0254 D0020000 		.word	.L87
 859 0258 D0020000 		.word	.L87
 860 025c D0020000 		.word	.L87
 861 0260 D0020000 		.word	.L87
 862 0264 D0020000 		.word	.L87
 863 0268 D0020000 		.word	.L87
 864 026c D0020000 		.word	.L87
 865 0270 D0020000 		.word	.L87
 866 0274 D0020000 		.word	.L87
 867 0278 D0020000 		.word	.L87
 868 027c D0020000 		.word	.L87
 869 0280 D0020000 		.word	.L87
 870 0284 D0020000 		.word	.L87
 871 0288 D0020000 		.word	.L87
 872 028c D0020000 		.word	.L87
 873 0290 D0020000 		.word	.L87
 874 0294 D0020000 		.word	.L87
 875 0298 D0020000 		.word	.L87
 876 029c D0020000 		.word	.L87
 877 02a0 D0020000 		.word	.L87
 878 02a4 D0020000 		.word	.L87
 879 02a8 D0020000 		.word	.L87
 880 02ac D0020000 		.word	.L87
 881 02b0 D0020000 		.word	.L87
 882 02b4 D0020000 		.word	.L87
 883 02b8 D0020000 		.word	.L87
 884 02bc D0020000 		.word	.L87
 885 02c0 D0020000 		.word	.L87
 886 02c4 D0020000 		.word	.L87
 887 02c8 D0020000 		.word	.L87
 888 02cc D0020000 		.word	.L87
 889 02d0 D0020000 		.word	.L87
 890 02d4 D0020000 		.word	.L87
ARM GAS  C:\Users\msuro\AppData\Local\Temp\ccG5pvI8.s 			page 37


 891 02d8 D0020000 		.word	.L87
 892 02dc D0020000 		.word	.L87
 893 02e0 D0020000 		.word	.L87
 894 02e4 D0020000 		.word	.L87
 895 02e8 D0020000 		.word	.L87
 896 02ec D0020000 		.word	.L87
 897 02f0 D0020000 		.word	.L87
 898 02f4 D0020000 		.word	.L87
 899 02f8 D0020000 		.word	.L87
 900 02fc D0020000 		.word	.L87
 901 0300 D0020000 		.word	.L87
 902 0304 D0020000 		.word	.L87
 903 0308 D0020000 		.word	.L87
 904 030c D0020000 		.word	.L87
 905 0310 D0020000 		.word	.L87
 906 0314 D0020000 		.word	.L87
 907 0318 D0020000 		.word	.L87
 908 031c D0020000 		.word	.L87
 909 0320 D0020000 		.word	.L87
 910 0324 D0020000 		.word	.L87
 911 0328 D0020000 		.word	.L87
 912 032c D0020000 		.word	.L87
 913 0330 D0020000 		.word	.L87
 914 0334 D0020000 		.word	.L87
 915 0338 D0020000 		.word	.L87
 916 033c D0020000 		.word	.L87
 917 0340 D0020000 		.word	.L87
 918 0344 D0020000 		.word	.L87
 919 0348 D0020000 		.word	.L87
 920 034c D0020000 		.word	.L87
 921 0350 D0020000 		.word	.L87
 922 0354 D0020000 		.word	.L87
 923 0358 D0020000 		.word	.L87
 924 035c D0020000 		.word	.L87
 925 0360 D0020000 		.word	.L87
 926 0364 D0020000 		.word	.L87
 927 0368 D0020000 		.word	.L87
 928 036c D0020000 		.word	.L87
 929 0370 D0020000 		.word	.L87
 930 0374 D0020000 		.word	.L87
 931 0378 D0020000 		.word	.L87
 932 037c D0020000 		.word	.L87
 933 0380 D0020000 		.word	.L87
 934 0384 D0020000 		.word	.L87
 935 0388 D0020000 		.word	.L87
 936 038c D0020000 		.word	.L87
 937 0390 D0020000 		.word	.L87
 938 0394 D0020000 		.word	.L87
 939 0398 D0020000 		.word	.L87
 940 039c D0020000 		.word	.L87
 941 03a0 D0020000 		.word	.L87
 942 03a4 D0020000 		.word	.L87
 943 03a8 D0020000 		.word	.L87
 944 03ac D0020000 		.word	.L87
 945 03b0 D0020000 		.word	.L87
 946 03b4 D0020000 		.word	.L87
 947 03b8 D0020000 		.word	.L87
ARM GAS  C:\Users\msuro\AppData\Local\Temp\ccG5pvI8.s 			page 38


 948 03bc D0020000 		.word	.L87
 949 03c0 D0020000 		.word	.L87
 950 03c4 D0020000 		.word	.L87
 951 03c8 D0020000 		.word	.L87
 952 03cc D0020000 		.word	.L87
 953 03d0 D0020000 		.word	.L87
 954 03d4 D0020000 		.word	.L87
 955 03d8 D0020000 		.word	.L87
 956 03dc D0020000 		.word	.L87
 957 03e0 D0020000 		.word	.L87
 958 03e4 D0020000 		.word	.L87
 959 03e8 C0020000 		.word	.L73
 960              		.section	.text.CyBle_EventHandler
 961              	.L48:
 962              	.LBB3:
1152:.\Generated_Source\PSoC4/BLE_eventHandler.c ****     {
1153:.\Generated_Source\PSoC4/BLE_eventHandler.c ****         /**********************************************************
1154:.\Generated_Source\PSoC4/BLE_eventHandler.c ****         ##General events
1155:.\Generated_Source\PSoC4/BLE_eventHandler.c ****         ***********************************************************/
1156:.\Generated_Source\PSoC4/BLE_eventHandler.c ****         case CYBLE_EVT_STACK_ON:
1157:.\Generated_Source\PSoC4/BLE_eventHandler.c ****         #if(CYBLE_MODE_PROFILE)
1158:.\Generated_Source\PSoC4/BLE_eventHandler.c ****         {
1159:.\Generated_Source\PSoC4/BLE_eventHandler.c ****             CYBLE_BLESS_PWR_IN_DB_T bleSsPowerLevel;
1160:.\Generated_Source\PSoC4/BLE_eventHandler.c ****             
1161:.\Generated_Source\PSoC4/BLE_eventHandler.c ****             /* Set Tx Power Level for advertising and connection channels */
1162:.\Generated_Source\PSoC4/BLE_eventHandler.c ****             bleSsPowerLevel.blePwrLevelInDbm = CYBLE_TX_POWER_LEVEL;
 963              		.loc 1 1162 0
 964 0032 3B1C     		mov	r3, r7
 965 0034 0C33     		add	r3, r3, #12
 966 0036 0722     		mov	r2, #7
 967 0038 1A70     		strb	r2, [r3]
1163:.\Generated_Source\PSoC4/BLE_eventHandler.c ****             bleSsPowerLevel.bleSsChId = CYBLE_LL_ADV_CH_TYPE;
 968              		.loc 1 1163 0
 969 003a 3B1C     		mov	r3, r7
 970 003c 0C33     		add	r3, r3, #12
 971 003e 0022     		mov	r2, #0
 972 0040 5A70     		strb	r2, [r3, #1]
1164:.\Generated_Source\PSoC4/BLE_eventHandler.c ****             (void) CyBle_SetTxPowerLevel (&bleSsPowerLevel);
 973              		.loc 1 1164 0
 974 0042 3B1C     		mov	r3, r7
 975 0044 0C33     		add	r3, r3, #12
 976 0046 181C     		mov	r0, r3
 977 0048 FFF7FEFF 		bl	CyBle_SetTxPowerLevel
1165:.\Generated_Source\PSoC4/BLE_eventHandler.c ****             bleSsPowerLevel.blePwrLevelInDbm = CYBLE_TX_POWER_LEVEL;
 978              		.loc 1 1165 0
 979 004c 3B1C     		mov	r3, r7
 980 004e 0C33     		add	r3, r3, #12
 981 0050 0722     		mov	r2, #7
 982 0052 1A70     		strb	r2, [r3]
1166:.\Generated_Source\PSoC4/BLE_eventHandler.c ****             bleSsPowerLevel.bleSsChId = CYBLE_LL_CONN_CH_TYPE;
 983              		.loc 1 1166 0
 984 0054 3B1C     		mov	r3, r7
 985 0056 0C33     		add	r3, r3, #12
 986 0058 0122     		mov	r2, #1
 987 005a 5A70     		strb	r2, [r3, #1]
1167:.\Generated_Source\PSoC4/BLE_eventHandler.c ****             (void) CyBle_SetTxPowerLevel (&bleSsPowerLevel);
 988              		.loc 1 1167 0
ARM GAS  C:\Users\msuro\AppData\Local\Temp\ccG5pvI8.s 			page 39


 989 005c 3B1C     		mov	r3, r7
 990 005e 0C33     		add	r3, r3, #12
 991 0060 181C     		mov	r0, r3
 992 0062 FFF7FEFF 		bl	CyBle_SetTxPowerLevel
 993              	.LBE3:
1168:.\Generated_Source\PSoC4/BLE_eventHandler.c ****         }
1169:.\Generated_Source\PSoC4/BLE_eventHandler.c ****         #endif /* CYBLE_MODE_PROFILE */
1170:.\Generated_Source\PSoC4/BLE_eventHandler.c ****         #if (CYBLE_GATT_ROLE_SERVER || CYBLE_GATT_ROLE_CLIENT)
1171:.\Generated_Source\PSoC4/BLE_eventHandler.c ****             /* Set device Address  */
1172:.\Generated_Source\PSoC4/BLE_eventHandler.c ****             if(CyBle_IsDeviceAddressValid(cyBle_sflashDeviceAddress) != 0u)
 994              		.loc 1 1172 0
 995 0066 AA4B     		ldr	r3, .L88+8
 996 0068 1B68     		ldr	r3, [r3]
 997 006a 181C     		mov	r0, r3
 998 006c FFF7FEFF 		bl	CyBle_IsDeviceAddressValid
 999 0070 031C     		mov	r3, r0
 1000 0072 002B     		cmp	r3, #0
 1001 0074 05D0     		beq	.L74
1173:.\Generated_Source\PSoC4/BLE_eventHandler.c ****             {
1174:.\Generated_Source\PSoC4/BLE_eventHandler.c ****                 (void) CyBle_SetDeviceAddress(cyBle_sflashDeviceAddress);
 1002              		.loc 1 1174 0
 1003 0076 A64B     		ldr	r3, .L88+8
 1004 0078 1B68     		ldr	r3, [r3]
 1005 007a 181C     		mov	r0, r3
 1006 007c FFF7FEFF 		bl	CyBle_SetDeviceAddress
 1007 0080 0FE0     		b	.L75
 1008              	.L74:
1175:.\Generated_Source\PSoC4/BLE_eventHandler.c ****                 #if(CYBLE_GAP_ROLE_PERIPHERAL || CYBLE_GAP_ROLE_BROADCASTER)
1176:.\Generated_Source\PSoC4/BLE_eventHandler.c ****                     CyBle_ChangeAdDeviceAddress(cyBle_sflashDeviceAddress, 0u);
1177:.\Generated_Source\PSoC4/BLE_eventHandler.c ****                     CyBle_ChangeAdDeviceAddress(cyBle_sflashDeviceAddress, 1u);
1178:.\Generated_Source\PSoC4/BLE_eventHandler.c ****                 #endif /* CYBLE_GAP_ROLE_PERIPHERAL || CYBLE_GAP_ROLE_BROADCASTER */    
1179:.\Generated_Source\PSoC4/BLE_eventHandler.c ****             }
1180:.\Generated_Source\PSoC4/BLE_eventHandler.c ****             else
1181:.\Generated_Source\PSoC4/BLE_eventHandler.c ****             {
1182:.\Generated_Source\PSoC4/BLE_eventHandler.c ****             #if (SILICON_GENERATED_DEVICE_ADDRESS != 0u)
1183:.\Generated_Source\PSoC4/BLE_eventHandler.c ****                 cyBle_deviceAddress.bdAddr[0] = CYBLE_SFLASH_DIE_X_REG;
 1009              		.loc 1 1183 0
 1010 0082 A44B     		ldr	r3, .L88+12
 1011 0084 1A78     		ldrb	r2, [r3]
 1012 0086 A44B     		ldr	r3, .L88+16
 1013 0088 1A70     		strb	r2, [r3]
1184:.\Generated_Source\PSoC4/BLE_eventHandler.c ****                 cyBle_deviceAddress.bdAddr[1] = CYBLE_SFLASH_DIE_Y_REG;
 1014              		.loc 1 1184 0
 1015 008a A44B     		ldr	r3, .L88+20
 1016 008c 1A78     		ldrb	r2, [r3]
 1017 008e A24B     		ldr	r3, .L88+16
 1018 0090 5A70     		strb	r2, [r3, #1]
1185:.\Generated_Source\PSoC4/BLE_eventHandler.c ****                 cyBle_deviceAddress.bdAddr[2] = CYBLE_SFLASH_DIE_WAFER_REG;
 1019              		.loc 1 1185 0
 1020 0092 A34B     		ldr	r3, .L88+24
 1021 0094 1A78     		ldrb	r2, [r3]
 1022 0096 A04B     		ldr	r3, .L88+16
 1023 0098 9A70     		strb	r2, [r3, #2]
1186:.\Generated_Source\PSoC4/BLE_eventHandler.c ****             #endif /* SILICON_GENERATED_DEVICE_ADDRESS != 0u */
1187:.\Generated_Source\PSoC4/BLE_eventHandler.c ****                 (void) CyBle_SetDeviceAddress(&cyBle_deviceAddress);
 1024              		.loc 1 1187 0
 1025 009a 9F4B     		ldr	r3, .L88+16
ARM GAS  C:\Users\msuro\AppData\Local\Temp\ccG5pvI8.s 			page 40


 1026 009c 181C     		mov	r0, r3
 1027 009e FFF7FEFF 		bl	CyBle_SetDeviceAddress
 1028              	.L75:
1188:.\Generated_Source\PSoC4/BLE_eventHandler.c ****                 #if(CYBLE_GAP_ROLE_PERIPHERAL || CYBLE_GAP_ROLE_BROADCASTER)
1189:.\Generated_Source\PSoC4/BLE_eventHandler.c ****                     CyBle_ChangeAdDeviceAddress(&cyBle_deviceAddress, 0u);
1190:.\Generated_Source\PSoC4/BLE_eventHandler.c ****                     CyBle_ChangeAdDeviceAddress(&cyBle_deviceAddress, 1u);
1191:.\Generated_Source\PSoC4/BLE_eventHandler.c ****                 #endif /* CYBLE_GAP_ROLE_PERIPHERAL || CYBLE_GAP_ROLE_BROADCASTER */    
1192:.\Generated_Source\PSoC4/BLE_eventHandler.c ****             }
1193:.\Generated_Source\PSoC4/BLE_eventHandler.c ****             /* Set device IO Capability  */
1194:.\Generated_Source\PSoC4/BLE_eventHandler.c ****             (void) CyBle_GapSetIoCap(CYBLE_IO_CAPABILITY);    
 1029              		.loc 1 1194 0
 1030 00a2 0020     		mov	r0, #0
 1031 00a4 FFF7FEFF 		bl	CyBle_GapSetIoCap
1195:.\Generated_Source\PSoC4/BLE_eventHandler.c ****         #endif /* CYBLE_GATT_ROLE_SERVER || CYBLE_GATT_ROLE_CLIENT */
1196:.\Generated_Source\PSoC4/BLE_eventHandler.c ****             CyBle_SetState(CYBLE_STATE_DISCONNECTED);
 1032              		.loc 1 1196 0
 1033 00a8 9E4B     		ldr	r3, .L88+28
 1034 00aa 0522     		mov	r2, #5
 1035 00ac 1A70     		strb	r2, [r3]
1197:.\Generated_Source\PSoC4/BLE_eventHandler.c ****             break;
 1036              		.loc 1 1197 0
 1037 00ae 10E1     		b	.L76
 1038              	.L50:
1198:.\Generated_Source\PSoC4/BLE_eventHandler.c ****         case CYBLE_EVT_TIMEOUT:
1199:.\Generated_Source\PSoC4/BLE_eventHandler.c ****             CyBle_TimeOutEventHandler((CYBLE_TO_REASON_CODE_T *)eventParam);
 1039              		.loc 1 1199 0
 1040 00b0 3B68     		ldr	r3, [r7]
 1041 00b2 181C     		mov	r0, r3
 1042 00b4 FFF7FEFF 		bl	CyBle_TimeOutEventHandler
1200:.\Generated_Source\PSoC4/BLE_eventHandler.c ****             break;
 1043              		.loc 1 1200 0
 1044 00b8 0BE1     		b	.L76
 1045              	.L51:
1201:.\Generated_Source\PSoC4/BLE_eventHandler.c ****     	case CYBLE_EVT_STACK_BUSY_STATUS:
1202:.\Generated_Source\PSoC4/BLE_eventHandler.c ****             cyBle_busyStatus = *(uint8 *)eventParam;
 1046              		.loc 1 1202 0
 1047 00ba 3B68     		ldr	r3, [r7]
 1048 00bc 1A78     		ldrb	r2, [r3]
 1049 00be 9A4B     		ldr	r3, .L88+32
 1050 00c0 1A70     		strb	r2, [r3]
1203:.\Generated_Source\PSoC4/BLE_eventHandler.c ****             break;
 1051              		.loc 1 1203 0
 1052 00c2 06E1     		b	.L76
 1053              	.L53:
1204:.\Generated_Source\PSoC4/BLE_eventHandler.c **** 
1205:.\Generated_Source\PSoC4/BLE_eventHandler.c ****         /**********************************************************
1206:.\Generated_Source\PSoC4/BLE_eventHandler.c ****         ##GAP events
1207:.\Generated_Source\PSoC4/BLE_eventHandler.c ****         ***********************************************************/
1208:.\Generated_Source\PSoC4/BLE_eventHandler.c ****         case CYBLE_EVT_GAP_AUTH_REQ:
1209:.\Generated_Source\PSoC4/BLE_eventHandler.c ****         #if(CYBLE_MODE_PROFILE)
1210:.\Generated_Source\PSoC4/BLE_eventHandler.c ****             if(0u == (cyBle_eventHandlerFlag & CYBLE_DISABLE_AUTOMATIC_AUTH))
 1054              		.loc 1 1210 0
 1055 00c4 904B     		ldr	r3, .L88
 1056 00c6 1B78     		ldrb	r3, [r3]
 1057 00c8 DBB2     		uxtb	r3, r3
 1058 00ca 1A1C     		mov	r2, r3
 1059 00cc 2023     		mov	r3, #32
ARM GAS  C:\Users\msuro\AppData\Local\Temp\ccG5pvI8.s 			page 41


 1060 00ce 1340     		and	r3, r2
 1061 00d0 0ED1     		bne	.L77
1211:.\Generated_Source\PSoC4/BLE_eventHandler.c ****             {
1212:.\Generated_Source\PSoC4/BLE_eventHandler.c ****                 /* If the responding device does not support pairing then the responding 
1213:.\Generated_Source\PSoC4/BLE_eventHandler.c ****                    device shall respond using the Pairing Failed message with the error 
1214:.\Generated_Source\PSoC4/BLE_eventHandler.c ****                    code "Pairing Not Supported" otherwise it responds with a Pairing 
1215:.\Generated_Source\PSoC4/BLE_eventHandler.c ****                    Response message.
1216:.\Generated_Source\PSoC4/BLE_eventHandler.c ****                 */
1217:.\Generated_Source\PSoC4/BLE_eventHandler.c ****                 if(cyBle_authInfo.security == (CYBLE_GAP_SEC_MODE_1 | CYBLE_GAP_SEC_LEVEL_1))
 1062              		.loc 1 1217 0
 1063 00d2 964B     		ldr	r3, .L88+36
 1064 00d4 1B78     		ldrb	r3, [r3]
 1065 00d6 102B     		cmp	r3, #16
 1066 00d8 02D1     		bne	.L78
1218:.\Generated_Source\PSoC4/BLE_eventHandler.c ****                 {
1219:.\Generated_Source\PSoC4/BLE_eventHandler.c ****                     cyBle_authInfo.authErr = CYBLE_GAP_AUTH_ERROR_PAIRING_NOT_SUPPORTED;
 1067              		.loc 1 1219 0
 1068 00da 944B     		ldr	r3, .L88+36
 1069 00dc 0522     		mov	r2, #5
 1070 00de DA70     		strb	r2, [r3, #3]
 1071              	.L78:
1220:.\Generated_Source\PSoC4/BLE_eventHandler.c ****                 }    
1221:.\Generated_Source\PSoC4/BLE_eventHandler.c ****             #if(CYBLE_GAP_ROLE_PERIPHERAL)
1222:.\Generated_Source\PSoC4/BLE_eventHandler.c ****                 (void)CyBle_GappAuthReqReply(cyBle_connHandle.bdHandle, &cyBle_authInfo);
1223:.\Generated_Source\PSoC4/BLE_eventHandler.c ****             #endif /* CYBLE_GAP_ROLE_PERIPHERAL */
1224:.\Generated_Source\PSoC4/BLE_eventHandler.c ****             #if (CYBLE_GAP_ROLE_CENTRAL)
1225:.\Generated_Source\PSoC4/BLE_eventHandler.c ****                 (void)CyBle_GapAuthReq(cyBle_connHandle.bdHandle, &cyBle_authInfo);
 1072              		.loc 1 1225 0
 1073 00e0 934B     		ldr	r3, .L88+40
 1074 00e2 1A78     		ldrb	r2, [r3]
 1075 00e4 914B     		ldr	r3, .L88+36
 1076 00e6 101C     		mov	r0, r2
 1077 00e8 191C     		mov	r1, r3
 1078 00ea FFF7FEFF 		bl	CyBle_GapAuthReq
1226:.\Generated_Source\PSoC4/BLE_eventHandler.c ****             #endif /* CYBLE_GAP_ROLE_CENTRAL */
1227:.\Generated_Source\PSoC4/BLE_eventHandler.c ****             }
1228:.\Generated_Source\PSoC4/BLE_eventHandler.c ****         #endif /* CYBLE_MODE_PROFILE */
1229:.\Generated_Source\PSoC4/BLE_eventHandler.c ****             break;
 1079              		.loc 1 1229 0
 1080 00ee F0E0     		b	.L76
 1081              	.L77:
 1082 00f0 EFE0     		b	.L76
 1083              	.L56:
1230:.\Generated_Source\PSoC4/BLE_eventHandler.c **** 
1231:.\Generated_Source\PSoC4/BLE_eventHandler.c ****         case CYBLE_EVT_GAP_CONNECTION_UPDATE_COMPLETE:
1232:.\Generated_Source\PSoC4/BLE_eventHandler.c ****             CyBle_GapConnUpdateCompleteEventHandler((const CYBLE_GAP_CONN_PARAM_UPDATED_IN_CONTROLL
 1084              		.loc 1 1232 0
 1085 00f2 3B68     		ldr	r3, [r7]
 1086 00f4 181C     		mov	r0, r3
 1087 00f6 FFF7FEFF 		bl	CyBle_GapConnUpdateCompleteEventHandler
1233:.\Generated_Source\PSoC4/BLE_eventHandler.c ****             break;
 1088              		.loc 1 1233 0
 1089 00fa EAE0     		b	.L76
 1090              	.L54:
1234:.\Generated_Source\PSoC4/BLE_eventHandler.c ****             
1235:.\Generated_Source\PSoC4/BLE_eventHandler.c ****         case CYBLE_EVT_GAP_DEVICE_CONNECTED:
1236:.\Generated_Source\PSoC4/BLE_eventHandler.c ****             CyBle_GapConnUpdateCompleteEventHandler((const CYBLE_GAP_CONN_PARAM_UPDATED_IN_CONTROLL
ARM GAS  C:\Users\msuro\AppData\Local\Temp\ccG5pvI8.s 			page 42


 1091              		.loc 1 1236 0
 1092 00fc 3B68     		ldr	r3, [r7]
 1093 00fe 181C     		mov	r0, r3
 1094 0100 FFF7FEFF 		bl	CyBle_GapConnUpdateCompleteEventHandler
1237:.\Generated_Source\PSoC4/BLE_eventHandler.c ****             #if(CYBLE_GAP_ROLE_CENTRAL)
1238:.\Generated_Source\PSoC4/BLE_eventHandler.c ****                 if(cyBle_connectingTimeout != 0u)
 1095              		.loc 1 1238 0
 1096 0104 8B4B     		ldr	r3, .L88+44
 1097 0106 1B88     		ldrh	r3, [r3]
 1098 0108 002B     		cmp	r3, #0
 1099 010a 01D0     		beq	.L79
1239:.\Generated_Source\PSoC4/BLE_eventHandler.c ****                 {
1240:.\Generated_Source\PSoC4/BLE_eventHandler.c ****                    (void)CyBle_StopTimer();
 1100              		.loc 1 1240 0
 1101 010c FFF7FEFF 		bl	CyBle_StopTimer
 1102              	.L79:
1241:.\Generated_Source\PSoC4/BLE_eventHandler.c ****                 }
1242:.\Generated_Source\PSoC4/BLE_eventHandler.c ****             #endif /* CYBLE_GAP_ROLE_CENTRAL */
1243:.\Generated_Source\PSoC4/BLE_eventHandler.c ****             CyBle_SetState(CYBLE_STATE_CONNECTED);
 1103              		.loc 1 1243 0
 1104 0110 844B     		ldr	r3, .L88+28
 1105 0112 0222     		mov	r2, #2
 1106 0114 1A70     		strb	r2, [r3]
1244:.\Generated_Source\PSoC4/BLE_eventHandler.c ****             break;
 1107              		.loc 1 1244 0
 1108 0116 DCE0     		b	.L76
 1109              	.L55:
1245:.\Generated_Source\PSoC4/BLE_eventHandler.c **** 
1246:.\Generated_Source\PSoC4/BLE_eventHandler.c ****         case CYBLE_EVT_GAP_DEVICE_DISCONNECTED:
1247:.\Generated_Source\PSoC4/BLE_eventHandler.c ****             CyBle_SetState(CYBLE_STATE_DISCONNECTED);
 1110              		.loc 1 1247 0
 1111 0118 824B     		ldr	r3, .L88+28
 1112 011a 0522     		mov	r2, #5
 1113 011c 1A70     		strb	r2, [r3]
1248:.\Generated_Source\PSoC4/BLE_eventHandler.c ****             break;
 1114              		.loc 1 1248 0
 1115 011e D8E0     		b	.L76
 1116              	.L57:
1249:.\Generated_Source\PSoC4/BLE_eventHandler.c ****         #if(CYBLE_GAP_ROLE_PERIPHERAL || CYBLE_GAP_ROLE_BROADCASTER)
1250:.\Generated_Source\PSoC4/BLE_eventHandler.c ****             
1251:.\Generated_Source\PSoC4/BLE_eventHandler.c ****         case CYBLE_EVT_GAPP_ADVERTISEMENT_START_STOP:
1252:.\Generated_Source\PSoC4/BLE_eventHandler.c ****             #ifdef CYBLE_CPS_SERVER
1253:.\Generated_Source\PSoC4/BLE_eventHandler.c ****                 #if(CYBLE_GAP_ROLE_BROADCASTER)
1254:.\Generated_Source\PSoC4/BLE_eventHandler.c ****                     CyBle_CpssAdvertisementStartStopEventHandler();
1255:.\Generated_Source\PSoC4/BLE_eventHandler.c ****                 #endif /* CYBLE_GAP_ROLE_BROADCASTER */
1256:.\Generated_Source\PSoC4/BLE_eventHandler.c ****             #endif /* CYBLE_CPS_SERVER */
1257:.\Generated_Source\PSoC4/BLE_eventHandler.c ****             
1258:.\Generated_Source\PSoC4/BLE_eventHandler.c ****             if((CYBLE_STATE_CONNECTED != CyBle_GetState()) && ((cyBle_eventHandlerFlag & CYBLE_CALL
1259:.\Generated_Source\PSoC4/BLE_eventHandler.c ****             {
1260:.\Generated_Source\PSoC4/BLE_eventHandler.c ****                 /* After CyBle_GappStartAdvertisement first event indicates that advertising has be
1261:.\Generated_Source\PSoC4/BLE_eventHandler.c ****                 if(0u != (cyBle_eventHandlerFlag & CYBLE_START_FLAG))
1262:.\Generated_Source\PSoC4/BLE_eventHandler.c ****                 {
1263:.\Generated_Source\PSoC4/BLE_eventHandler.c ****                     CyBle_SetState(CYBLE_STATE_ADVERTISING);
1264:.\Generated_Source\PSoC4/BLE_eventHandler.c ****                     cyBle_eventHandlerFlag &= (uint8)~CYBLE_START_FLAG;
1265:.\Generated_Source\PSoC4/BLE_eventHandler.c ****                 }
1266:.\Generated_Source\PSoC4/BLE_eventHandler.c ****                 /* When application initiated stop advertisement */
1267:.\Generated_Source\PSoC4/BLE_eventHandler.c ****                 else if(0u != (cyBle_eventHandlerFlag & CYBLE_STOP_FLAG))
ARM GAS  C:\Users\msuro\AppData\Local\Temp\ccG5pvI8.s 			page 43


1268:.\Generated_Source\PSoC4/BLE_eventHandler.c ****                 {
1269:.\Generated_Source\PSoC4/BLE_eventHandler.c ****                     CyBle_SetState(CYBLE_STATE_DISCONNECTED);  
1270:.\Generated_Source\PSoC4/BLE_eventHandler.c ****                     cyBle_eventHandlerFlag &= (uint8)~CYBLE_STOP_FLAG;
1271:.\Generated_Source\PSoC4/BLE_eventHandler.c ****                 }
1272:.\Generated_Source\PSoC4/BLE_eventHandler.c ****                 else /* Following event indicates that advertising has been stopped */
1273:.\Generated_Source\PSoC4/BLE_eventHandler.c ****                 {
1274:.\Generated_Source\PSoC4/BLE_eventHandler.c ****                     if(CYBLE_STATE_ADVERTISING == CyBle_GetState())
1275:.\Generated_Source\PSoC4/BLE_eventHandler.c ****                     {
1276:.\Generated_Source\PSoC4/BLE_eventHandler.c ****                         CyBle_SetState(CYBLE_STATE_DISCONNECTED);
1277:.\Generated_Source\PSoC4/BLE_eventHandler.c ****                     #if (CYBLE_SLOW_ADV_ENABLED != 0u)
1278:.\Generated_Source\PSoC4/BLE_eventHandler.c ****                         if(cyBle_advertisingIntervalType == CYBLE_ADVERTISING_FAST)
1279:.\Generated_Source\PSoC4/BLE_eventHandler.c ****                         {
1280:.\Generated_Source\PSoC4/BLE_eventHandler.c ****                             /* When fast advertising time out occur: Start slow advertising */
1281:.\Generated_Source\PSoC4/BLE_eventHandler.c ****                             if(CYBLE_ERROR_OK == CyBle_GappStartAdvertisement(CYBLE_ADVERTISING_SLO
1282:.\Generated_Source\PSoC4/BLE_eventHandler.c ****                             {
1283:.\Generated_Source\PSoC4/BLE_eventHandler.c ****                                 CyBle_SetState(CYBLE_STATE_ADVERTISING);
1284:.\Generated_Source\PSoC4/BLE_eventHandler.c ****                             }
1285:.\Generated_Source\PSoC4/BLE_eventHandler.c ****                         }
1286:.\Generated_Source\PSoC4/BLE_eventHandler.c ****                     #endif /* CYBLE_SLOW_ADV_ENABLED */
1287:.\Generated_Source\PSoC4/BLE_eventHandler.c ****                     }
1288:.\Generated_Source\PSoC4/BLE_eventHandler.c ****                 }
1289:.\Generated_Source\PSoC4/BLE_eventHandler.c ****             }
1290:.\Generated_Source\PSoC4/BLE_eventHandler.c ****             break;
1291:.\Generated_Source\PSoC4/BLE_eventHandler.c ****         #endif /* CYBLE_GAP_ROLE_PERIPHERAL || CYBLE_GAP_ROLE_BROADCASTER */
1292:.\Generated_Source\PSoC4/BLE_eventHandler.c ****         
1293:.\Generated_Source\PSoC4/BLE_eventHandler.c ****         #if(CYBLE_GAP_ROLE_CENTRAL || CYBLE_GAP_ROLE_OBSERVER)    
1294:.\Generated_Source\PSoC4/BLE_eventHandler.c ****         case CYBLE_EVT_GAPC_SCAN_START_STOP:
1295:.\Generated_Source\PSoC4/BLE_eventHandler.c ****             #ifdef CYBLE_CPS_CLIENT
1296:.\Generated_Source\PSoC4/BLE_eventHandler.c ****                 CyBle_CpscScanStartStopEventHandler();
1297:.\Generated_Source\PSoC4/BLE_eventHandler.c ****             #endif /* CYBLE_CPS_CLIENT */
1298:.\Generated_Source\PSoC4/BLE_eventHandler.c ****             
1299:.\Generated_Source\PSoC4/BLE_eventHandler.c ****             if((CYBLE_STATE_CONNECTED != CyBle_GetState()) && ((cyBle_eventHandlerFlag & CYBLE_CALL
 1117              		.loc 1 1299 0
 1118 0120 804B     		ldr	r3, .L88+28
 1119 0122 1B78     		ldrb	r3, [r3]
 1120 0124 022B     		cmp	r3, #2
 1121 0126 41D0     		beq	.L80
 1122              		.loc 1 1299 0 is_stmt 0 discriminator 1
 1123 0128 774B     		ldr	r3, .L88
 1124 012a 1B78     		ldrb	r3, [r3]
 1125 012c DBB2     		uxtb	r3, r3
 1126 012e 1A1C     		mov	r2, r3
 1127 0130 0123     		mov	r3, #1
 1128 0132 1340     		and	r3, r2
 1129 0134 3AD0     		beq	.L80
1300:.\Generated_Source\PSoC4/BLE_eventHandler.c ****             {
1301:.\Generated_Source\PSoC4/BLE_eventHandler.c ****                 /* After CyBle_GapcStartScan first event indicates that scanning has been started *
1302:.\Generated_Source\PSoC4/BLE_eventHandler.c ****                 if(0u != (cyBle_eventHandlerFlag & CYBLE_START_FLAG))
 1130              		.loc 1 1302 0 is_stmt 1
 1131 0136 744B     		ldr	r3, .L88
 1132 0138 1B78     		ldrb	r3, [r3]
 1133 013a DBB2     		uxtb	r3, r3
 1134 013c 1A1C     		mov	r2, r3
 1135 013e 0423     		mov	r3, #4
 1136 0140 1340     		and	r3, r2
 1137 0142 0BD0     		beq	.L81
1303:.\Generated_Source\PSoC4/BLE_eventHandler.c ****                 {
ARM GAS  C:\Users\msuro\AppData\Local\Temp\ccG5pvI8.s 			page 44


1304:.\Generated_Source\PSoC4/BLE_eventHandler.c ****                     CyBle_SetState(CYBLE_STATE_SCANNING);
 1138              		.loc 1 1304 0
 1139 0144 774B     		ldr	r3, .L88+28
 1140 0146 0322     		mov	r2, #3
 1141 0148 1A70     		strb	r2, [r3]
1305:.\Generated_Source\PSoC4/BLE_eventHandler.c ****                     cyBle_eventHandlerFlag &= (uint8)~CYBLE_START_FLAG;
 1142              		.loc 1 1305 0
 1143 014a 6F4B     		ldr	r3, .L88
 1144 014c 1B78     		ldrb	r3, [r3]
 1145 014e DBB2     		uxtb	r3, r3
 1146 0150 0422     		mov	r2, #4
 1147 0152 9343     		bic	r3, r2
 1148 0154 DAB2     		uxtb	r2, r3
 1149 0156 6C4B     		ldr	r3, .L88
 1150 0158 1A70     		strb	r2, [r3]
 1151 015a 27E0     		b	.L80
 1152              	.L81:
1306:.\Generated_Source\PSoC4/BLE_eventHandler.c ****                 }
1307:.\Generated_Source\PSoC4/BLE_eventHandler.c ****                 /* When application initiated stop scanning */
1308:.\Generated_Source\PSoC4/BLE_eventHandler.c ****                 else if(0u != (cyBle_eventHandlerFlag & CYBLE_STOP_FLAG))
 1153              		.loc 1 1308 0
 1154 015c 6A4B     		ldr	r3, .L88
 1155 015e 1B78     		ldrb	r3, [r3]
 1156 0160 DBB2     		uxtb	r3, r3
 1157 0162 1A1C     		mov	r2, r3
 1158 0164 0823     		mov	r3, #8
 1159 0166 1340     		and	r3, r2
 1160 0168 0BD0     		beq	.L82
1309:.\Generated_Source\PSoC4/BLE_eventHandler.c ****                 {
1310:.\Generated_Source\PSoC4/BLE_eventHandler.c ****                     CyBle_SetState(CYBLE_STATE_DISCONNECTED);  
 1161              		.loc 1 1310 0
 1162 016a 6E4B     		ldr	r3, .L88+28
 1163 016c 0522     		mov	r2, #5
 1164 016e 1A70     		strb	r2, [r3]
1311:.\Generated_Source\PSoC4/BLE_eventHandler.c ****                     cyBle_eventHandlerFlag &= (uint8)~CYBLE_STOP_FLAG;
 1165              		.loc 1 1311 0
 1166 0170 654B     		ldr	r3, .L88
 1167 0172 1B78     		ldrb	r3, [r3]
 1168 0174 DBB2     		uxtb	r3, r3
 1169 0176 0822     		mov	r2, #8
 1170 0178 9343     		bic	r3, r2
 1171 017a DAB2     		uxtb	r2, r3
 1172 017c 624B     		ldr	r3, .L88
 1173 017e 1A70     		strb	r2, [r3]
 1174 0180 14E0     		b	.L80
 1175              	.L82:
1312:.\Generated_Source\PSoC4/BLE_eventHandler.c ****                 }
1313:.\Generated_Source\PSoC4/BLE_eventHandler.c ****                 else /* Following event indicates that scanning has been stopped by stack */
1314:.\Generated_Source\PSoC4/BLE_eventHandler.c ****                 {
1315:.\Generated_Source\PSoC4/BLE_eventHandler.c ****                     if(CYBLE_STATE_SCANNING == CyBle_GetState())
 1176              		.loc 1 1315 0
 1177 0182 684B     		ldr	r3, .L88+28
 1178 0184 1B78     		ldrb	r3, [r3]
 1179 0186 032B     		cmp	r3, #3
 1180 0188 10D1     		bne	.L80
1316:.\Generated_Source\PSoC4/BLE_eventHandler.c ****                     {
1317:.\Generated_Source\PSoC4/BLE_eventHandler.c ****                         CyBle_SetState(CYBLE_STATE_DISCONNECTED);  
ARM GAS  C:\Users\msuro\AppData\Local\Temp\ccG5pvI8.s 			page 45


 1181              		.loc 1 1317 0
 1182 018a 664B     		ldr	r3, .L88+28
 1183 018c 0522     		mov	r2, #5
 1184 018e 1A70     		strb	r2, [r3]
1318:.\Generated_Source\PSoC4/BLE_eventHandler.c ****                     #if (CYBLE_SLOW_SCAN_ENABLED != 0u)
1319:.\Generated_Source\PSoC4/BLE_eventHandler.c ****                         if(cyBle_scanningIntervalType == CYBLE_SCANNING_FAST)
 1185              		.loc 1 1319 0
 1186 0190 694B     		ldr	r3, .L88+48
 1187 0192 1B78     		ldrb	r3, [r3]
 1188 0194 002B     		cmp	r3, #0
 1189 0196 09D1     		bne	.L80
1320:.\Generated_Source\PSoC4/BLE_eventHandler.c ****                         {
1321:.\Generated_Source\PSoC4/BLE_eventHandler.c ****                             /* When fast scanning time out occur: Start slow scanning */
1322:.\Generated_Source\PSoC4/BLE_eventHandler.c ****                             if(CYBLE_ERROR_OK == CyBle_GapcStartScan(CYBLE_SCANNING_SLOW))
 1190              		.loc 1 1322 0
 1191 0198 0120     		mov	r0, #1
 1192 019a FFF7FEFF 		bl	CyBle_GapcStartScan
 1193 019e 031C     		mov	r3, r0
 1194 01a0 002B     		cmp	r3, #0
 1195 01a2 03D1     		bne	.L80
1323:.\Generated_Source\PSoC4/BLE_eventHandler.c ****                             {
1324:.\Generated_Source\PSoC4/BLE_eventHandler.c ****                                 CyBle_SetState(CYBLE_STATE_SCANNING);
 1196              		.loc 1 1324 0
 1197 01a4 5F4B     		ldr	r3, .L88+28
 1198 01a6 0322     		mov	r2, #3
 1199 01a8 1A70     		strb	r2, [r3]
1325:.\Generated_Source\PSoC4/BLE_eventHandler.c ****                             }
1326:.\Generated_Source\PSoC4/BLE_eventHandler.c ****                         }
1327:.\Generated_Source\PSoC4/BLE_eventHandler.c ****                     #endif /* CYBLE_SLOW_ADV_ENABLED */
1328:.\Generated_Source\PSoC4/BLE_eventHandler.c ****                     }
1329:.\Generated_Source\PSoC4/BLE_eventHandler.c ****                 }
1330:.\Generated_Source\PSoC4/BLE_eventHandler.c ****             }
1331:.\Generated_Source\PSoC4/BLE_eventHandler.c ****             break;
 1200              		.loc 1 1331 0
 1201 01aa 92E0     		b	.L76
 1202              	.L80:
 1203 01ac 91E0     		b	.L76
 1204              	.L72:
1332:.\Generated_Source\PSoC4/BLE_eventHandler.c ****         #endif /* CYBLE_GAP_ROLE_CENTRAL || CYBLE_GAP_ROLE_OBSERVER */
1333:.\Generated_Source\PSoC4/BLE_eventHandler.c **** 
1334:.\Generated_Source\PSoC4/BLE_eventHandler.c ****         /**********************************************************
1335:.\Generated_Source\PSoC4/BLE_eventHandler.c ****         ##L2AP events 
1336:.\Generated_Source\PSoC4/BLE_eventHandler.c ****         ***********************************************************/
1337:.\Generated_Source\PSoC4/BLE_eventHandler.c ****         case CYBLE_EVT_L2CAP_CONN_PARAM_UPDATE_RSP:
1338:.\Generated_Source\PSoC4/BLE_eventHandler.c ****             CyBle_L2Cap_ConnParamUpdateRspEventHandler(*(uint16 *)eventParam);
 1205              		.loc 1 1338 0
 1206 01ae 3B68     		ldr	r3, [r7]
 1207 01b0 1B88     		ldrh	r3, [r3]
 1208 01b2 181C     		mov	r0, r3
 1209 01b4 FFF7FEFF 		bl	CyBle_L2Cap_ConnParamUpdateRspEventHandler
1339:.\Generated_Source\PSoC4/BLE_eventHandler.c ****             break;
 1210              		.loc 1 1339 0
 1211 01b8 8BE0     		b	.L76
 1212              	.L59:
1340:.\Generated_Source\PSoC4/BLE_eventHandler.c ****         
1341:.\Generated_Source\PSoC4/BLE_eventHandler.c ****         /**********************************************************
1342:.\Generated_Source\PSoC4/BLE_eventHandler.c ****         ##GATT events
ARM GAS  C:\Users\msuro\AppData\Local\Temp\ccG5pvI8.s 			page 46


1343:.\Generated_Source\PSoC4/BLE_eventHandler.c ****         ***********************************************************/        
1344:.\Generated_Source\PSoC4/BLE_eventHandler.c ****         case CYBLE_EVT_GATT_CONNECT_IND:
1345:.\Generated_Source\PSoC4/BLE_eventHandler.c ****             cyBle_connHandle = *(CYBLE_CONN_HANDLE_T *)eventParam;
 1213              		.loc 1 1345 0
 1214 01ba 5D4A     		ldr	r2, .L88+40
 1215 01bc 3B68     		ldr	r3, [r7]
 1216 01be 111C     		mov	r1, r2
 1217 01c0 1A1C     		mov	r2, r3
 1218 01c2 0223     		mov	r3, #2
 1219 01c4 081C     		mov	r0, r1
 1220 01c6 111C     		mov	r1, r2
 1221 01c8 1A1C     		mov	r2, r3
 1222 01ca FFF7FEFF 		bl	memcpy
1346:.\Generated_Source\PSoC4/BLE_eventHandler.c ****             
1347:.\Generated_Source\PSoC4/BLE_eventHandler.c ****         #if((CYBLE_GATT_ROLE_SERVER) && (CYBLE_GATT_DB_CCCD_COUNT != 0u))
1348:.\Generated_Source\PSoC4/BLE_eventHandler.c ****             /* Init CCCD values in RAM */
1349:.\Generated_Source\PSoC4/BLE_eventHandler.c ****         	(void) memcpy (cyBle_attValuesCCCD, cyBle_attValuesCCCDFlashMemory[cyBle_connHandle.bdHand
 1223              		.loc 1 1349 0
 1224 01ce 584B     		ldr	r3, .L88+40
 1225 01d0 1B78     		ldrb	r3, [r3]
 1226 01d2 5A00     		lsl	r2, r3, #1
 1227 01d4 594B     		ldr	r3, .L88+52
 1228 01d6 D318     		add	r3, r2, r3
 1229 01d8 594A     		ldr	r2, .L88+56
 1230 01da 111C     		mov	r1, r2
 1231 01dc 1A1C     		mov	r2, r3
 1232 01de 0223     		mov	r3, #2
 1233 01e0 081C     		mov	r0, r1
 1234 01e2 111C     		mov	r1, r2
 1235 01e4 1A1C     		mov	r2, r3
 1236 01e6 FFF7FEFF 		bl	memcpy
1350:.\Generated_Source\PSoC4/BLE_eventHandler.c ****                             CYBLE_GATT_DB_CCCD_COUNT);
1351:.\Generated_Source\PSoC4/BLE_eventHandler.c ****         #endif /* CYBLE_GATT_ROLE_SERVER */
1352:.\Generated_Source\PSoC4/BLE_eventHandler.c ****         
1353:.\Generated_Source\PSoC4/BLE_eventHandler.c ****         #if (CYBLE_GATT_ROLE_CLIENT)
1354:.\Generated_Source\PSoC4/BLE_eventHandler.c ****             CyBle_SetClientState(CYBLE_CLIENT_STATE_CONNECTED);
 1237              		.loc 1 1354 0
 1238 01ea 564B     		ldr	r3, .L88+60
 1239 01ec 0022     		mov	r2, #0
 1240 01ee 1A70     		strb	r2, [r3]
1355:.\Generated_Source\PSoC4/BLE_eventHandler.c ****         #endif /* CYBLE_GATT_ROLE_CLIENT */
1356:.\Generated_Source\PSoC4/BLE_eventHandler.c ****         
1357:.\Generated_Source\PSoC4/BLE_eventHandler.c ****             CyBle_GattConnectReqHandler();
 1241              		.loc 1 1357 0
 1242 01f0 FFF7FEFF 		bl	CyBle_GattConnectReqHandler
1358:.\Generated_Source\PSoC4/BLE_eventHandler.c ****             break;
 1243              		.loc 1 1358 0
 1244 01f4 6DE0     		b	.L76
 1245              	.L60:
1359:.\Generated_Source\PSoC4/BLE_eventHandler.c **** 
1360:.\Generated_Source\PSoC4/BLE_eventHandler.c ****         case CYBLE_EVT_GATT_DISCONNECT_IND:
1361:.\Generated_Source\PSoC4/BLE_eventHandler.c ****             CyBle_GattDisconnectEventHandler();
 1246              		.loc 1 1361 0
 1247 01f6 FFF7FEFF 		bl	CyBle_GattDisconnectEventHandler
1362:.\Generated_Source\PSoC4/BLE_eventHandler.c ****             break;
 1248              		.loc 1 1362 0
 1249 01fa 6AE0     		b	.L76
ARM GAS  C:\Users\msuro\AppData\Local\Temp\ccG5pvI8.s 			page 47


 1250              	.L61:
 1251              	.LBB4:
1363:.\Generated_Source\PSoC4/BLE_eventHandler.c **** 
1364:.\Generated_Source\PSoC4/BLE_eventHandler.c ****     #if((CYBLE_GATT_ROLE_SERVER) || (CYBLE_GATT_ROLE_CLIENT))
1365:.\Generated_Source\PSoC4/BLE_eventHandler.c ****         case CYBLE_EVT_GATTS_XCNHG_MTU_REQ:
1366:.\Generated_Source\PSoC4/BLE_eventHandler.c ****             {
1367:.\Generated_Source\PSoC4/BLE_eventHandler.c ****                 uint16 cyBle_mtuSize;
1368:.\Generated_Source\PSoC4/BLE_eventHandler.c ****                 if(CYBLE_GATT_MTU > ((CYBLE_GATT_XCHG_MTU_PARAM_T *)eventParam)->mtu)
 1252              		.loc 1 1368 0
 1253 01fc 3B68     		ldr	r3, [r7]
 1254 01fe 5A88     		ldrh	r2, [r3, #2]
 1255 0200 514B     		ldr	r3, .L88+64
 1256 0202 9A42     		cmp	r2, r3
 1257 0204 05D8     		bhi	.L83
1369:.\Generated_Source\PSoC4/BLE_eventHandler.c ****                 {
1370:.\Generated_Source\PSoC4/BLE_eventHandler.c ****                     cyBle_mtuSize = ((CYBLE_GATT_XCHG_MTU_PARAM_T *)eventParam)->mtu;
 1258              		.loc 1 1370 0
 1259 0206 3B1C     		mov	r3, r7
 1260 0208 0E33     		add	r3, r3, #14
 1261 020a 3A68     		ldr	r2, [r7]
 1262 020c 5288     		ldrh	r2, [r2, #2]
 1263 020e 1A80     		strh	r2, [r3]
 1264 0210 04E0     		b	.L84
 1265              	.L83:
1371:.\Generated_Source\PSoC4/BLE_eventHandler.c ****                 }
1372:.\Generated_Source\PSoC4/BLE_eventHandler.c ****                 else
1373:.\Generated_Source\PSoC4/BLE_eventHandler.c ****                 {
1374:.\Generated_Source\PSoC4/BLE_eventHandler.c ****                     cyBle_mtuSize = CYBLE_GATT_MTU;
 1266              		.loc 1 1374 0
 1267 0212 3B1C     		mov	r3, r7
 1268 0214 0E33     		add	r3, r3, #14
 1269 0216 8022     		mov	r2, #128
 1270 0218 9200     		lsl	r2, r2, #2
 1271 021a 1A80     		strh	r2, [r3]
 1272              	.L84:
1375:.\Generated_Source\PSoC4/BLE_eventHandler.c ****                 }
1376:.\Generated_Source\PSoC4/BLE_eventHandler.c ****                 (void)CyBle_GattsExchangeMtuRsp(((CYBLE_GATT_XCHG_MTU_PARAM_T *)eventParam)->connHa
 1273              		.loc 1 1376 0
 1274 021c 3B68     		ldr	r3, [r7]
 1275 021e 3A1C     		mov	r2, r7
 1276 0220 0E32     		add	r2, r2, #14
 1277 0222 1288     		ldrh	r2, [r2]
 1278 0224 1988     		ldrh	r1, [r3]
 1279 0226 0023     		mov	r3, #0
 1280 0228 0904     		lsl	r1, r1, #16
 1281 022a 090C     		lsr	r1, r1, #16
 1282 022c 1B0C     		lsr	r3, r3, #16
 1283 022e 1B04     		lsl	r3, r3, #16
 1284 0230 0B43     		orr	r3, r1
 1285 0232 181C     		mov	r0, r3
 1286 0234 111C     		mov	r1, r2
 1287 0236 FFF7FEFF 		bl	CyBle_GattsExchangeMtuRsp
 1288              	.LBE4:
1377:.\Generated_Source\PSoC4/BLE_eventHandler.c ****             }
1378:.\Generated_Source\PSoC4/BLE_eventHandler.c ****             break;
 1289              		.loc 1 1378 0
 1290 023a 4AE0     		b	.L76
ARM GAS  C:\Users\msuro\AppData\Local\Temp\ccG5pvI8.s 			page 48


 1291              	.L66:
1379:.\Generated_Source\PSoC4/BLE_eventHandler.c ****     #endif /* CYBLE_GATT_ROLE_SERVER || CYBLE_GATT_ROLE_CLIENT */
1380:.\Generated_Source\PSoC4/BLE_eventHandler.c ****     
1381:.\Generated_Source\PSoC4/BLE_eventHandler.c ****     #if (CYBLE_GATT_ROLE_CLIENT)
1382:.\Generated_Source\PSoC4/BLE_eventHandler.c ****         case CYBLE_EVT_GAPC_SCAN_PROGRESS_RESULT:
1383:.\Generated_Source\PSoC4/BLE_eventHandler.c ****         #ifdef CYBLE_CPS_CLIENT
1384:.\Generated_Source\PSoC4/BLE_eventHandler.c ****                 CyBle_CpscScanProcessEventHandler((CYBLE_GAPC_ADV_REPORT_T *)eventParam);
1385:.\Generated_Source\PSoC4/BLE_eventHandler.c ****         #endif /* CYBLE_CPS_CLIENT */
1386:.\Generated_Source\PSoC4/BLE_eventHandler.c ****             break;
1387:.\Generated_Source\PSoC4/BLE_eventHandler.c ****     #endif /* CYBLE_GATT_ROLE_CLIENT */
1388:.\Generated_Source\PSoC4/BLE_eventHandler.c **** 
1389:.\Generated_Source\PSoC4/BLE_eventHandler.c ****     #if(CYBLE_GATT_ROLE_SERVER)
1390:.\Generated_Source\PSoC4/BLE_eventHandler.c ****         case CYBLE_EVT_GATTS_WRITE_REQ:
1391:.\Generated_Source\PSoC4/BLE_eventHandler.c ****             CyBle_WriteReqHandler((CYBLE_GATTS_WRITE_REQ_PARAM_T *)eventParam);
 1292              		.loc 1 1391 0
 1293 023c 3B68     		ldr	r3, [r7]
 1294 023e 181C     		mov	r0, r3
 1295 0240 FFF7FEFF 		bl	CyBle_WriteReqHandler
1392:.\Generated_Source\PSoC4/BLE_eventHandler.c ****             break;
 1296              		.loc 1 1392 0
 1297 0244 45E0     		b	.L76
 1298              	.L71:
1393:.\Generated_Source\PSoC4/BLE_eventHandler.c **** 
1394:.\Generated_Source\PSoC4/BLE_eventHandler.c ****         case CYBLE_EVT_GATTS_WRITE_CMD_REQ:
1395:.\Generated_Source\PSoC4/BLE_eventHandler.c ****         #ifdef CYBLE_IAS_SERVER
1396:.\Generated_Source\PSoC4/BLE_eventHandler.c ****             if((cyBle_eventHandlerFlag & CYBLE_CALLBACK) != 0u)
1397:.\Generated_Source\PSoC4/BLE_eventHandler.c ****             {
1398:.\Generated_Source\PSoC4/BLE_eventHandler.c ****                 (void)CyBle_IassWriteCmdEventHandler((CYBLE_GATTS_WRITE_REQ_PARAM_T *)eventParam);
1399:.\Generated_Source\PSoC4/BLE_eventHandler.c ****             }
1400:.\Generated_Source\PSoC4/BLE_eventHandler.c ****         #endif /* CYBLE_IAS_SERVER */
1401:.\Generated_Source\PSoC4/BLE_eventHandler.c ****         #ifdef CYBLE_HIDS_SERVER
1402:.\Generated_Source\PSoC4/BLE_eventHandler.c ****             if((cyBle_eventHandlerFlag & CYBLE_CALLBACK) != 0u)
1403:.\Generated_Source\PSoC4/BLE_eventHandler.c ****             {
1404:.\Generated_Source\PSoC4/BLE_eventHandler.c ****                 (void)CyBle_HidssWriteEventHandler((CYBLE_GATTS_WRITE_REQ_PARAM_T *)eventParam);
1405:.\Generated_Source\PSoC4/BLE_eventHandler.c ****             }
1406:.\Generated_Source\PSoC4/BLE_eventHandler.c ****         #endif /* CYBLE_HIDS_SERVER */
1407:.\Generated_Source\PSoC4/BLE_eventHandler.c ****         #ifdef CYBLE_PASS_SERVER
1408:.\Generated_Source\PSoC4/BLE_eventHandler.c ****             if((cyBle_eventHandlerFlag & CYBLE_CALLBACK) != 0u)
1409:.\Generated_Source\PSoC4/BLE_eventHandler.c ****             {
1410:.\Generated_Source\PSoC4/BLE_eventHandler.c ****                 (void)CyBle_PasssWriteCmdEventHandler((CYBLE_GATTS_WRITE_REQ_PARAM_T *)eventParam);
1411:.\Generated_Source\PSoC4/BLE_eventHandler.c ****             }
1412:.\Generated_Source\PSoC4/BLE_eventHandler.c ****         #endif /* CYBLE_PASS_SERVER */
1413:.\Generated_Source\PSoC4/BLE_eventHandler.c ****         #ifdef CYBLE_RTUS_SERVER
1414:.\Generated_Source\PSoC4/BLE_eventHandler.c ****             if((cyBle_eventHandlerFlag & CYBLE_CALLBACK) != 0u)
1415:.\Generated_Source\PSoC4/BLE_eventHandler.c ****             {
1416:.\Generated_Source\PSoC4/BLE_eventHandler.c ****                 (void)CyBle_RtussWriteCmdEventHandler((CYBLE_GATTS_WRITE_REQ_PARAM_T *)eventParam);
1417:.\Generated_Source\PSoC4/BLE_eventHandler.c ****             }
1418:.\Generated_Source\PSoC4/BLE_eventHandler.c ****         #endif /* CYBLE_RTUS_SERVER */
1419:.\Generated_Source\PSoC4/BLE_eventHandler.c ****         #ifdef CYBLE_SCPS_SERVER
1420:.\Generated_Source\PSoC4/BLE_eventHandler.c ****             if((cyBle_eventHandlerFlag & CYBLE_CALLBACK) != 0u)
1421:.\Generated_Source\PSoC4/BLE_eventHandler.c ****             {
1422:.\Generated_Source\PSoC4/BLE_eventHandler.c ****                 (void)CyBle_ScpssWriteEventHandler((CYBLE_GATTS_WRITE_REQ_PARAM_T *)eventParam);
1423:.\Generated_Source\PSoC4/BLE_eventHandler.c ****             }
1424:.\Generated_Source\PSoC4/BLE_eventHandler.c ****         #endif /* CYBLE_SCPS_SERVER */
1425:.\Generated_Source\PSoC4/BLE_eventHandler.c ****             break;
1426:.\Generated_Source\PSoC4/BLE_eventHandler.c ****             
1427:.\Generated_Source\PSoC4/BLE_eventHandler.c ****         case CYBLE_EVT_GATTS_HANDLE_VALUE_CNF:
ARM GAS  C:\Users\msuro\AppData\Local\Temp\ccG5pvI8.s 			page 49


1428:.\Generated_Source\PSoC4/BLE_eventHandler.c ****             CyBle_ValueConfirmation((CYBLE_CONN_HANDLE_T *)eventParam);
 1299              		.loc 1 1428 0
 1300 0246 3B68     		ldr	r3, [r7]
 1301 0248 181C     		mov	r0, r3
 1302 024a FFF7FEFF 		bl	CyBle_ValueConfirmation
1429:.\Generated_Source\PSoC4/BLE_eventHandler.c ****             break;
 1303              		.loc 1 1429 0
 1304 024e 40E0     		b	.L76
 1305              	.L62:
1430:.\Generated_Source\PSoC4/BLE_eventHandler.c ****             
1431:.\Generated_Source\PSoC4/BLE_eventHandler.c ****     #endif /* CYBLE_GATT_ROLE_SERVER */
1432:.\Generated_Source\PSoC4/BLE_eventHandler.c **** 
1433:.\Generated_Source\PSoC4/BLE_eventHandler.c ****     #if (CYBLE_GATT_ROLE_CLIENT)
1434:.\Generated_Source\PSoC4/BLE_eventHandler.c ****         
1435:.\Generated_Source\PSoC4/BLE_eventHandler.c ****         case CYBLE_EVT_GATTC_READ_BY_GROUP_TYPE_RSP:
1436:.\Generated_Source\PSoC4/BLE_eventHandler.c ****             CyBle_ReadByGroupEventHandler((CYBLE_GATTC_READ_BY_GRP_RSP_PARAM_T *)eventParam);
 1306              		.loc 1 1436 0
 1307 0250 3B68     		ldr	r3, [r7]
 1308 0252 181C     		mov	r0, r3
 1309 0254 FFF7FEFF 		bl	CyBle_ReadByGroupEventHandler
1437:.\Generated_Source\PSoC4/BLE_eventHandler.c ****             break;
 1310              		.loc 1 1437 0
 1311 0258 3BE0     		b	.L76
 1312              	.L63:
1438:.\Generated_Source\PSoC4/BLE_eventHandler.c **** 
1439:.\Generated_Source\PSoC4/BLE_eventHandler.c ****         case CYBLE_EVT_GATTC_READ_BY_TYPE_RSP:
1440:.\Generated_Source\PSoC4/BLE_eventHandler.c ****             CyBle_ReadByTypeEventHandler((CYBLE_GATTC_READ_BY_TYPE_RSP_PARAM_T *)eventParam);
 1313              		.loc 1 1440 0
 1314 025a 3B68     		ldr	r3, [r7]
 1315 025c 181C     		mov	r0, r3
 1316 025e FFF7FEFF 		bl	CyBle_ReadByTypeEventHandler
1441:.\Generated_Source\PSoC4/BLE_eventHandler.c ****             break;
 1317              		.loc 1 1441 0
 1318 0262 36E0     		b	.L76
 1319              	.L64:
1442:.\Generated_Source\PSoC4/BLE_eventHandler.c **** 
1443:.\Generated_Source\PSoC4/BLE_eventHandler.c ****         case CYBLE_EVT_GATTC_FIND_INFO_RSP:
1444:.\Generated_Source\PSoC4/BLE_eventHandler.c ****             CyBle_FindInfoEventHandler((CYBLE_GATTC_FIND_INFO_RSP_PARAM_T *)eventParam);
 1320              		.loc 1 1444 0
 1321 0264 3B68     		ldr	r3, [r7]
 1322 0266 181C     		mov	r0, r3
 1323 0268 FFF7FEFF 		bl	CyBle_FindInfoEventHandler
1445:.\Generated_Source\PSoC4/BLE_eventHandler.c ****             break;
 1324              		.loc 1 1445 0
 1325 026c 31E0     		b	.L76
 1326              	.L58:
1446:.\Generated_Source\PSoC4/BLE_eventHandler.c **** 
1447:.\Generated_Source\PSoC4/BLE_eventHandler.c ****         case CYBLE_EVT_GATTC_ERROR_RSP:
1448:.\Generated_Source\PSoC4/BLE_eventHandler.c ****             CyBle_ErrorResponseEventHandler((CYBLE_GATTC_ERR_RSP_PARAM_T *)eventParam);
 1327              		.loc 1 1448 0
 1328 026e 3B68     		ldr	r3, [r7]
 1329 0270 181C     		mov	r0, r3
 1330 0272 FFF7FEFF 		bl	CyBle_ErrorResponseEventHandler
1449:.\Generated_Source\PSoC4/BLE_eventHandler.c ****             break;
 1331              		.loc 1 1449 0
 1332 0276 2CE0     		b	.L76
 1333              	.L69:
ARM GAS  C:\Users\msuro\AppData\Local\Temp\ccG5pvI8.s 			page 50


1450:.\Generated_Source\PSoC4/BLE_eventHandler.c **** 
1451:.\Generated_Source\PSoC4/BLE_eventHandler.c ****         case CYBLE_EVT_GATTC_HANDLE_VALUE_NTF:
1452:.\Generated_Source\PSoC4/BLE_eventHandler.c ****             CyBle_NotificationEventHandler((CYBLE_GATTC_HANDLE_VALUE_NTF_PARAM_T *)eventParam);
 1334              		.loc 1 1452 0
 1335 0278 3B68     		ldr	r3, [r7]
 1336 027a 181C     		mov	r0, r3
 1337 027c FFF7FEFF 		bl	CyBle_NotificationEventHandler
1453:.\Generated_Source\PSoC4/BLE_eventHandler.c ****             break;
 1338              		.loc 1 1453 0
 1339 0280 27E0     		b	.L76
 1340              	.L70:
1454:.\Generated_Source\PSoC4/BLE_eventHandler.c **** 
1455:.\Generated_Source\PSoC4/BLE_eventHandler.c ****         case CYBLE_EVT_GATTC_HANDLE_VALUE_IND:
1456:.\Generated_Source\PSoC4/BLE_eventHandler.c ****             CyBle_GattcIndicationEventHandler((CYBLE_GATTC_HANDLE_VALUE_IND_PARAM_T *)eventParam);
 1341              		.loc 1 1456 0
 1342 0282 3B68     		ldr	r3, [r7]
 1343 0284 181C     		mov	r0, r3
 1344 0286 FFF7FEFF 		bl	CyBle_GattcIndicationEventHandler
1457:.\Generated_Source\PSoC4/BLE_eventHandler.c ****             CyBle_IndicationEventHandler((CYBLE_GATTC_HANDLE_VALUE_IND_PARAM_T *)eventParam);
 1345              		.loc 1 1457 0
 1346 028a 3B68     		ldr	r3, [r7]
 1347 028c 181C     		mov	r0, r3
 1348 028e FFF7FEFF 		bl	CyBle_IndicationEventHandler
1458:.\Generated_Source\PSoC4/BLE_eventHandler.c ****         
1459:.\Generated_Source\PSoC4/BLE_eventHandler.c ****             /* Respond with a Handle Value Confirmation when request handled */
1460:.\Generated_Source\PSoC4/BLE_eventHandler.c ****             if((cyBle_eventHandlerFlag & CYBLE_CALLBACK) == 0u)
 1349              		.loc 1 1460 0
 1350 0292 1D4B     		ldr	r3, .L88
 1351 0294 1B78     		ldrb	r3, [r3]
 1352 0296 DBB2     		uxtb	r3, r3
 1353 0298 1A1C     		mov	r2, r3
 1354 029a 0123     		mov	r3, #1
 1355 029c 1340     		and	r3, r2
 1356 029e 04D1     		bne	.L85
1461:.\Generated_Source\PSoC4/BLE_eventHandler.c ****             {
1462:.\Generated_Source\PSoC4/BLE_eventHandler.c ****                 (void)CyBle_GattcConfirmation(((CYBLE_GATTC_HANDLE_VALUE_IND_PARAM_T *)eventParam)-
 1357              		.loc 1 1462 0
 1358 02a0 3B68     		ldr	r3, [r7]
 1359 02a2 1868     		ldr	r0, [r3]
 1360 02a4 FFF7FEFF 		bl	CyBle_GattcConfirmation
1463:.\Generated_Source\PSoC4/BLE_eventHandler.c ****             }
1464:.\Generated_Source\PSoC4/BLE_eventHandler.c ****             break;
 1361              		.loc 1 1464 0
 1362 02a8 13E0     		b	.L76
 1363              	.L85:
 1364 02aa 12E0     		b	.L76
 1365              	.L65:
1465:.\Generated_Source\PSoC4/BLE_eventHandler.c ****         
1466:.\Generated_Source\PSoC4/BLE_eventHandler.c ****         case CYBLE_EVT_GATTC_READ_RSP:
1467:.\Generated_Source\PSoC4/BLE_eventHandler.c ****             CyBle_ReadResponseEventHandler((CYBLE_GATTC_READ_RSP_PARAM_T *)eventParam);
 1366              		.loc 1 1467 0
 1367 02ac 3B68     		ldr	r3, [r7]
 1368 02ae 181C     		mov	r0, r3
 1369 02b0 FFF7FEFF 		bl	CyBle_ReadResponseEventHandler
1468:.\Generated_Source\PSoC4/BLE_eventHandler.c ****             break;
 1370              		.loc 1 1468 0
 1371 02b4 0DE0     		b	.L76
ARM GAS  C:\Users\msuro\AppData\Local\Temp\ccG5pvI8.s 			page 51


 1372              	.L67:
1469:.\Generated_Source\PSoC4/BLE_eventHandler.c **** 
1470:.\Generated_Source\PSoC4/BLE_eventHandler.c ****         case CYBLE_EVT_GATTC_WRITE_RSP:
1471:.\Generated_Source\PSoC4/BLE_eventHandler.c ****             CyBle_GattcWriteResponseEventHandler((CYBLE_CONN_HANDLE_T *)eventParam);
 1373              		.loc 1 1471 0
 1374 02b6 3B68     		ldr	r3, [r7]
 1375 02b8 181C     		mov	r0, r3
 1376 02ba FFF7FEFF 		bl	CyBle_GattcWriteResponseEventHandler
1472:.\Generated_Source\PSoC4/BLE_eventHandler.c ****             break;
 1377              		.loc 1 1472 0
 1378 02be 08E0     		b	.L76
 1379              	.L73:
1473:.\Generated_Source\PSoC4/BLE_eventHandler.c ****             
1474:.\Generated_Source\PSoC4/BLE_eventHandler.c ****     #endif /* CYBLE_GATT_ROLE_CLIENT */
1475:.\Generated_Source\PSoC4/BLE_eventHandler.c **** 
1476:.\Generated_Source\PSoC4/BLE_eventHandler.c ****     #if((CYBLE_GAP_ROLE_PERIPHERAL || CYBLE_GAP_ROLE_CENTRAL) && (CYBLE_BONDING_REQUIREMENT == CYBL
1477:.\Generated_Source\PSoC4/BLE_eventHandler.c **** 
1478:.\Generated_Source\PSoC4/BLE_eventHandler.c ****         case CYBLE_EVT_PENDING_FLASH_WRITE:
1479:.\Generated_Source\PSoC4/BLE_eventHandler.c ****             cyBle_pendingFlashWrite |= CYBLE_PENDING_STACK_FLASH_WRITE_BIT;
 1380              		.loc 1 1479 0
 1381 02c0 224B     		ldr	r3, .L88+68
 1382 02c2 1B78     		ldrb	r3, [r3]
 1383 02c4 0122     		mov	r2, #1
 1384 02c6 1343     		orr	r3, r2
 1385 02c8 DAB2     		uxtb	r2, r3
 1386 02ca 204B     		ldr	r3, .L88+68
 1387 02cc 1A70     		strb	r2, [r3]
1480:.\Generated_Source\PSoC4/BLE_eventHandler.c ****             break;
 1388              		.loc 1 1480 0
 1389 02ce 00E0     		b	.L76
 1390              	.L87:
1481:.\Generated_Source\PSoC4/BLE_eventHandler.c ****         
1482:.\Generated_Source\PSoC4/BLE_eventHandler.c ****     #endif  /* (CYBLE_BONDING_REQUIREMENT == CYBLE_BONDING_YES) */
1483:.\Generated_Source\PSoC4/BLE_eventHandler.c ****     
1484:.\Generated_Source\PSoC4/BLE_eventHandler.c ****         default:
1485:.\Generated_Source\PSoC4/BLE_eventHandler.c ****             break;
 1391              		.loc 1 1485 0
 1392 02d0 C046     		mov	r8, r8
 1393              	.L76:
1486:.\Generated_Source\PSoC4/BLE_eventHandler.c ****     }
1487:.\Generated_Source\PSoC4/BLE_eventHandler.c **** 
1488:.\Generated_Source\PSoC4/BLE_eventHandler.c ****     if(0u != (cyBle_eventHandlerFlag & (CYBLE_CALLBACK | CYBLE_ENABLE_ALL_EVENTS))) 
 1394              		.loc 1 1488 0
 1395 02d2 0D4B     		ldr	r3, .L88
 1396 02d4 1B78     		ldrb	r3, [r3]
 1397 02d6 DBB2     		uxtb	r3, r3
 1398 02d8 1A1C     		mov	r2, r3
 1399 02da 1123     		mov	r3, #17
 1400 02dc 1340     		and	r3, r2
 1401 02de 0FD0     		beq	.L46
1489:.\Generated_Source\PSoC4/BLE_eventHandler.c ****     {
1490:.\Generated_Source\PSoC4/BLE_eventHandler.c ****         cyBle_eventHandlerFlag &= (uint8)~CYBLE_CALLBACK;
 1402              		.loc 1 1490 0
 1403 02e0 094B     		ldr	r3, .L88
 1404 02e2 1B78     		ldrb	r3, [r3]
 1405 02e4 DBB2     		uxtb	r3, r3
 1406 02e6 0122     		mov	r2, #1
ARM GAS  C:\Users\msuro\AppData\Local\Temp\ccG5pvI8.s 			page 52


 1407 02e8 9343     		bic	r3, r2
 1408 02ea DAB2     		uxtb	r2, r3
 1409 02ec 064B     		ldr	r3, .L88
 1410 02ee 1A70     		strb	r2, [r3]
1491:.\Generated_Source\PSoC4/BLE_eventHandler.c ****         CyBle_ApplCallback((uint32)eventCode, eventParam);
 1411              		.loc 1 1491 0
 1412 02f0 174B     		ldr	r3, .L88+72
 1413 02f2 1B68     		ldr	r3, [r3]
 1414 02f4 FA1D     		add	r2, r7, #7
 1415 02f6 1178     		ldrb	r1, [r2]
 1416 02f8 3A68     		ldr	r2, [r7]
 1417 02fa 081C     		mov	r0, r1
 1418 02fc 111C     		mov	r1, r2
 1419 02fe 9847     		blx	r3
 1420              	.L46:
1492:.\Generated_Source\PSoC4/BLE_eventHandler.c ****     }
1493:.\Generated_Source\PSoC4/BLE_eventHandler.c **** 
1494:.\Generated_Source\PSoC4/BLE_eventHandler.c **** }
 1421              		.loc 1 1494 0
 1422 0300 BD46     		mov	sp, r7
 1423 0302 04B0     		add	sp, sp, #16
 1424              		@ sp needed
 1425 0304 80BD     		pop	{r7, pc}
 1426              	.L89:
 1427 0306 C046     		.align	2
 1428              	.L88:
 1429 0308 00000000 		.word	cyBle_eventHandlerFlag
 1430 030c 00000000 		.word	.L49
 1431 0310 00000000 		.word	cyBle_sflashDeviceAddress
 1432 0314 7CF1FF0F 		.word	268431740
 1433 0318 00000000 		.word	cyBle_deviceAddress
 1434 031c 7DF1FF0F 		.word	268431741
 1435 0320 7BF1FF0F 		.word	268431739
 1436 0324 00000000 		.word	cyBle_state
 1437 0328 00000000 		.word	cyBle_busyStatus
 1438 032c 00000000 		.word	cyBle_authInfo
 1439 0330 00000000 		.word	cyBle_connHandle
 1440 0334 00000000 		.word	cyBle_connectingTimeout
 1441 0338 00000000 		.word	cyBle_scanningIntervalType
 1442 033c 00000000 		.word	cyBle_attValuesCCCDFlashMemory
 1443 0340 00000000 		.word	cyBle_attValuesCCCD
 1444 0344 00000000 		.word	cyBle_clientState
 1445 0348 FF010000 		.word	511
 1446 034c 00000000 		.word	cyBle_pendingFlashWrite
 1447 0350 00000000 		.word	CyBle_ApplCallback
 1448              		.cfi_endproc
 1449              	.LFE14:
 1450              		.size	CyBle_EventHandler, .-CyBle_EventHandler
 1451              		.section	.text.CyBle_ReadByGroupEventHandler,"ax",%progbits
 1452              		.align	2
 1453              		.global	CyBle_ReadByGroupEventHandler
 1454              		.code	16
 1455              		.thumb_func
 1456              		.type	CyBle_ReadByGroupEventHandler, %function
 1457              	CyBle_ReadByGroupEventHandler:
 1458              	.LFB15:
1495:.\Generated_Source\PSoC4/BLE_eventHandler.c **** 
ARM GAS  C:\Users\msuro\AppData\Local\Temp\ccG5pvI8.s 			page 53


1496:.\Generated_Source\PSoC4/BLE_eventHandler.c **** 
1497:.\Generated_Source\PSoC4/BLE_eventHandler.c **** #if (CYBLE_GATT_ROLE_CLIENT)
1498:.\Generated_Source\PSoC4/BLE_eventHandler.c **** 
1499:.\Generated_Source\PSoC4/BLE_eventHandler.c **** 
1500:.\Generated_Source\PSoC4/BLE_eventHandler.c **** /****************************************************************************** 
1501:.\Generated_Source\PSoC4/BLE_eventHandler.c **** ##Function Name: CyBle_ReadByGroupEventHandler
1502:.\Generated_Source\PSoC4/BLE_eventHandler.c **** *******************************************************************************
1503:.\Generated_Source\PSoC4/BLE_eventHandler.c **** 
1504:.\Generated_Source\PSoC4/BLE_eventHandler.c **** Summary:
1505:.\Generated_Source\PSoC4/BLE_eventHandler.c ****  Handles the Read By Group Response Event during an automatic server discovery
1506:.\Generated_Source\PSoC4/BLE_eventHandler.c ****  process.
1507:.\Generated_Source\PSoC4/BLE_eventHandler.c **** 
1508:.\Generated_Source\PSoC4/BLE_eventHandler.c **** Parameters:
1509:.\Generated_Source\PSoC4/BLE_eventHandler.c ****  CYBLE_GATT_READ_BY_GRP_RSP_PARAM_T *eventParam:  the event parameters for a Read By Group Response
1510:.\Generated_Source\PSoC4/BLE_eventHandler.c **** 
1511:.\Generated_Source\PSoC4/BLE_eventHandler.c **** Return:
1512:.\Generated_Source\PSoC4/BLE_eventHandler.c ****  None
1513:.\Generated_Source\PSoC4/BLE_eventHandler.c **** 
1514:.\Generated_Source\PSoC4/BLE_eventHandler.c **** ******************************************************************************/
1515:.\Generated_Source\PSoC4/BLE_eventHandler.c **** void CyBle_ReadByGroupEventHandler(CYBLE_GATTC_READ_BY_GRP_RSP_PARAM_T *eventParam)
1516:.\Generated_Source\PSoC4/BLE_eventHandler.c **** {
 1459              		.loc 1 1516 0
 1460              		.cfi_startproc
 1461 0000 80B5     		push	{r7, lr}
 1462              		.cfi_def_cfa_offset 8
 1463              		.cfi_offset 7, -8
 1464              		.cfi_offset 14, -4
 1465 0002 86B0     		sub	sp, sp, #24
 1466              		.cfi_def_cfa_offset 32
 1467 0004 00AF     		add	r7, sp, #0
 1468              		.cfi_def_cfa_register 7
 1469 0006 7860     		str	r0, [r7, #4]
1517:.\Generated_Source\PSoC4/BLE_eventHandler.c ****     uint8 j;
1518:.\Generated_Source\PSoC4/BLE_eventHandler.c ****     uint16 dataLength;
1519:.\Generated_Source\PSoC4/BLE_eventHandler.c ****     uint16 attrLength;
1520:.\Generated_Source\PSoC4/BLE_eventHandler.c ****     uint16 i;
1521:.\Generated_Source\PSoC4/BLE_eventHandler.c ****     CYBLE_DISC_SRVC_INFO_T* discSrvcInfo = NULL;
 1470              		.loc 1 1521 0
 1471 0008 0023     		mov	r3, #0
 1472 000a 3B61     		str	r3, [r7, #16]
1522:.\Generated_Source\PSoC4/BLE_eventHandler.c ****     uint8 flag;
1523:.\Generated_Source\PSoC4/BLE_eventHandler.c ****     if((CYBLE_CLIENT_STATE_SRVC_DISCOVERING == CyBle_GetClientState()) &&
 1473              		.loc 1 1523 0
 1474 000c 754B     		ldr	r3, .L103
 1475 000e 1B78     		ldrb	r3, [r3]
 1476 0010 012B     		cmp	r3, #1
 1477 0012 00D0     		beq	.LCB1099
 1478 0014 E2E0     		b	.L90	@long jump
 1479              	.LCB1099:
1524:.\Generated_Source\PSoC4/BLE_eventHandler.c ****         (0u != (cyBle_eventHandlerFlag & CYBLE_AUTO_DISCOVERY)))
 1480              		.loc 1 1524 0 discriminator 1
 1481 0016 744B     		ldr	r3, .L103+4
 1482 0018 1B78     		ldrb	r3, [r3]
 1483 001a DBB2     		uxtb	r3, r3
 1484 001c 1A1C     		mov	r2, r3
 1485 001e 0223     		mov	r3, #2
 1486 0020 1340     		and	r3, r2
ARM GAS  C:\Users\msuro\AppData\Local\Temp\ccG5pvI8.s 			page 54


1523:.\Generated_Source\PSoC4/BLE_eventHandler.c ****     if((CYBLE_CLIENT_STATE_SRVC_DISCOVERING == CyBle_GetClientState()) &&
 1487              		.loc 1 1523 0 discriminator 1
 1488 0022 00D1     		bne	.LCB1107
 1489 0024 DAE0     		b	.L90	@long jump
 1490              	.LCB1107:
1525:.\Generated_Source\PSoC4/BLE_eventHandler.c ****     {
1526:.\Generated_Source\PSoC4/BLE_eventHandler.c ****         dataLength = eventParam->attrData.length;
 1491              		.loc 1 1526 0
 1492 0026 3B1C     		mov	r3, r7
 1493 0028 0C33     		add	r3, r3, #12
 1494 002a 7A68     		ldr	r2, [r7, #4]
 1495 002c 1289     		ldrh	r2, [r2, #8]
 1496 002e 1A80     		strh	r2, [r3]
1527:.\Generated_Source\PSoC4/BLE_eventHandler.c **** 
1528:.\Generated_Source\PSoC4/BLE_eventHandler.c ****         if((dataLength == CYBLE_DISC_SRVC_INFO_LEN) || (dataLength == CYBLE_DISC_SRVC_INFO_128_LEN)
 1497              		.loc 1 1528 0
 1498 0030 3B1C     		mov	r3, r7
 1499 0032 0C33     		add	r3, r3, #12
 1500 0034 1B88     		ldrh	r3, [r3]
 1501 0036 062B     		cmp	r3, #6
 1502 0038 05D0     		beq	.L92
 1503              		.loc 1 1528 0 is_stmt 0 discriminator 1
 1504 003a 3B1C     		mov	r3, r7
 1505 003c 0C33     		add	r3, r3, #12
 1506 003e 1B88     		ldrh	r3, [r3]
 1507 0040 142B     		cmp	r3, #20
 1508 0042 00D0     		beq	.LCB1122
 1509 0044 C3E0     		b	.L93	@long jump
 1510              	.LCB1122:
 1511              	.L92:
1529:.\Generated_Source\PSoC4/BLE_eventHandler.c ****         {
1530:.\Generated_Source\PSoC4/BLE_eventHandler.c ****             attrLength = eventParam->attrData.attrLen;
 1512              		.loc 1 1530 0 is_stmt 1
 1513 0046 3B1C     		mov	r3, r7
 1514 0048 0A33     		add	r3, r3, #10
 1515 004a 7A68     		ldr	r2, [r7, #4]
 1516 004c 5289     		ldrh	r2, [r2, #10]
 1517 004e 1A80     		strh	r2, [r3]
1531:.\Generated_Source\PSoC4/BLE_eventHandler.c **** 
1532:.\Generated_Source\PSoC4/BLE_eventHandler.c ****             for(i = 0u; i < attrLength; i += dataLength)
 1518              		.loc 1 1532 0
 1519 0050 3B1C     		mov	r3, r7
 1520 0052 1433     		add	r3, r3, #20
 1521 0054 0022     		mov	r2, #0
 1522 0056 1A80     		strh	r2, [r3]
 1523 0058 85E0     		b	.L94
 1524              	.L101:
1533:.\Generated_Source\PSoC4/BLE_eventHandler.c ****             {
1534:.\Generated_Source\PSoC4/BLE_eventHandler.c ****                 discSrvcInfo = (CYBLE_DISC_SRVC_INFO_T*)(eventParam->attrData.attrValue + i);
 1525              		.loc 1 1534 0
 1526 005a 7B68     		ldr	r3, [r7, #4]
 1527 005c 5A68     		ldr	r2, [r3, #4]
 1528 005e 3B1C     		mov	r3, r7
 1529 0060 1433     		add	r3, r3, #20
 1530 0062 1B88     		ldrh	r3, [r3]
 1531 0064 D318     		add	r3, r2, r3
 1532 0066 3B61     		str	r3, [r7, #16]
ARM GAS  C:\Users\msuro\AppData\Local\Temp\ccG5pvI8.s 			page 55


1535:.\Generated_Source\PSoC4/BLE_eventHandler.c **** 
1536:.\Generated_Source\PSoC4/BLE_eventHandler.c ****                 if(dataLength == CYBLE_DISC_SRVC_INFO_LEN)
 1533              		.loc 1 1536 0
 1534 0068 3B1C     		mov	r3, r7
 1535 006a 0C33     		add	r3, r3, #12
 1536 006c 1B88     		ldrh	r3, [r3]
 1537 006e 062B     		cmp	r3, #6
 1538 0070 00D0     		beq	.LCB1148
 1539 0072 6EE0     		b	.L95	@long jump
 1540              	.LCB1148:
1537:.\Generated_Source\PSoC4/BLE_eventHandler.c ****                 {
1538:.\Generated_Source\PSoC4/BLE_eventHandler.c ****                     flag = 0u;
 1541              		.loc 1 1538 0
 1542 0074 3B1C     		mov	r3, r7
 1543 0076 0F33     		add	r3, r3, #15
 1544 0078 0022     		mov	r2, #0
 1545 007a 1A70     		strb	r2, [r3]
1539:.\Generated_Source\PSoC4/BLE_eventHandler.c **** 					for(j = 0u; (j < (uint8) CYBLE_SRVI_COUNT) && (flag == 0u); j++)
 1546              		.loc 1 1539 0
 1547 007c 3B1C     		mov	r3, r7
 1548 007e 1733     		add	r3, r3, #23
 1549 0080 0022     		mov	r2, #0
 1550 0082 1A70     		strb	r2, [r3]
 1551 0084 5BE0     		b	.L96
 1552              	.L100:
1540:.\Generated_Source\PSoC4/BLE_eventHandler.c ****                     {
1541:.\Generated_Source\PSoC4/BLE_eventHandler.c ****                         if(cyBle_serverInfo[j].uuid == discSrvcInfo->uuid)
 1553              		.loc 1 1541 0
 1554 0086 3B1C     		mov	r3, r7
 1555 0088 1733     		add	r3, r3, #23
 1556 008a 1A78     		ldrb	r2, [r3]
 1557 008c 5749     		ldr	r1, .L103+8
 1558 008e 131C     		mov	r3, r2
 1559 0090 5B00     		lsl	r3, r3, #1
 1560 0092 9B18     		add	r3, r3, r2
 1561 0094 5B00     		lsl	r3, r3, #1
 1562 0096 CB18     		add	r3, r1, r3
 1563 0098 9A88     		ldrh	r2, [r3, #4]
 1564 009a 3B69     		ldr	r3, [r7, #16]
 1565 009c 9B88     		ldrh	r3, [r3, #4]
 1566 009e 9A42     		cmp	r2, r3
 1567 00a0 46D1     		bne	.L97
1542:.\Generated_Source\PSoC4/BLE_eventHandler.c ****                         {
1543:.\Generated_Source\PSoC4/BLE_eventHandler.c ****                             if(cyBle_serverInfo[j].range.startHandle == CYBLE_GATT_INVALID_ATTR_HAN
 1568              		.loc 1 1543 0
 1569 00a2 3B1C     		mov	r3, r7
 1570 00a4 1733     		add	r3, r3, #23
 1571 00a6 1A78     		ldrb	r2, [r3]
 1572 00a8 5049     		ldr	r1, .L103+8
 1573 00aa 131C     		mov	r3, r2
 1574 00ac 5B00     		lsl	r3, r3, #1
 1575 00ae 9B18     		add	r3, r3, r2
 1576 00b0 5B00     		lsl	r3, r3, #1
 1577 00b2 5B5A     		ldrh	r3, [r3, r1]
 1578 00b4 002B     		cmp	r3, #0
 1579 00b6 1AD1     		bne	.L98
1544:.\Generated_Source\PSoC4/BLE_eventHandler.c ****                             {
ARM GAS  C:\Users\msuro\AppData\Local\Temp\ccG5pvI8.s 			page 56


1545:.\Generated_Source\PSoC4/BLE_eventHandler.c ****                                 cyBle_serverInfo[j].range = discSrvcInfo->range;
 1580              		.loc 1 1545 0
 1581 00b8 3B1C     		mov	r3, r7
 1582 00ba 1733     		add	r3, r3, #23
 1583 00bc 1A78     		ldrb	r2, [r3]
 1584 00be 4B49     		ldr	r1, .L103+8
 1585 00c0 131C     		mov	r3, r2
 1586 00c2 5B00     		lsl	r3, r3, #1
 1587 00c4 9B18     		add	r3, r3, r2
 1588 00c6 5B00     		lsl	r3, r3, #1
 1589 00c8 3A69     		ldr	r2, [r7, #16]
 1590 00ca C918     		add	r1, r1, r3
 1591 00cc 0423     		mov	r3, #4
 1592 00ce 081C     		mov	r0, r1
 1593 00d0 111C     		mov	r1, r2
 1594 00d2 1A1C     		mov	r2, r3
 1595 00d4 FFF7FEFF 		bl	memcpy
1546:.\Generated_Source\PSoC4/BLE_eventHandler.c ****                                 cyBle_disCount++;
 1596              		.loc 1 1546 0
 1597 00d8 454B     		ldr	r3, .L103+12
 1598 00da 1B78     		ldrb	r3, [r3]
 1599 00dc 0133     		add	r3, r3, #1
 1600 00de DAB2     		uxtb	r2, r3
 1601 00e0 434B     		ldr	r3, .L103+12
 1602 00e2 1A70     		strb	r2, [r3]
1547:.\Generated_Source\PSoC4/BLE_eventHandler.c ****                                 flag = 1u;
 1603              		.loc 1 1547 0
 1604 00e4 3B1C     		mov	r3, r7
 1605 00e6 0F33     		add	r3, r3, #15
 1606 00e8 0122     		mov	r2, #1
 1607 00ea 1A70     		strb	r2, [r3]
 1608 00ec 20E0     		b	.L97
 1609              	.L98:
1548:.\Generated_Source\PSoC4/BLE_eventHandler.c ****                             }
1549:.\Generated_Source\PSoC4/BLE_eventHandler.c ****                             else    /* Duplication of service */
1550:.\Generated_Source\PSoC4/BLE_eventHandler.c ****                             {
1551:.\Generated_Source\PSoC4/BLE_eventHandler.c ****                                 /* For multiple service support next service has the same uuid */
1552:.\Generated_Source\PSoC4/BLE_eventHandler.c ****                                 if((j >= (CYBLE_SRVI_COUNT - 1u)) || 
 1610              		.loc 1 1552 0
 1611 00ee 3B1C     		mov	r3, r7
 1612 00f0 1733     		add	r3, r3, #23
 1613 00f2 1B78     		ldrb	r3, [r3]
 1614 00f4 012B     		cmp	r3, #1
 1615 00f6 0ED8     		bhi	.L99
1553:.\Generated_Source\PSoC4/BLE_eventHandler.c ****                                    (cyBle_serverInfo[j + 1u].uuid != discSrvcInfo->uuid))
 1616              		.loc 1 1553 0 discriminator 1
 1617 00f8 3B1C     		mov	r3, r7
 1618 00fa 1733     		add	r3, r3, #23
 1619 00fc 1B78     		ldrb	r3, [r3]
 1620 00fe 5A1C     		add	r2, r3, #1
 1621 0100 3A49     		ldr	r1, .L103+8
 1622 0102 131C     		mov	r3, r2
 1623 0104 5B00     		lsl	r3, r3, #1
 1624 0106 9B18     		add	r3, r3, r2
 1625 0108 5B00     		lsl	r3, r3, #1
 1626 010a CB18     		add	r3, r1, r3
 1627 010c 9A88     		ldrh	r2, [r3, #4]
ARM GAS  C:\Users\msuro\AppData\Local\Temp\ccG5pvI8.s 			page 57


 1628 010e 3B69     		ldr	r3, [r7, #16]
 1629 0110 9B88     		ldrh	r3, [r3, #4]
1552:.\Generated_Source\PSoC4/BLE_eventHandler.c ****                                 if((j >= (CYBLE_SRVI_COUNT - 1u)) || 
 1630              		.loc 1 1552 0 discriminator 1
 1631 0112 9A42     		cmp	r2, r3
 1632 0114 0CD0     		beq	.L97
 1633              	.L99:
1554:.\Generated_Source\PSoC4/BLE_eventHandler.c ****                                 {
1555:.\Generated_Source\PSoC4/BLE_eventHandler.c ****                                     CyBle_ApplCallback(CYBLE_EVT_GATTC_SRVC_DUPLICATION, &discSrvcI
 1634              		.loc 1 1555 0
 1635 0116 374B     		ldr	r3, .L103+16
 1636 0118 1B68     		ldr	r3, [r3]
 1637 011a 3A69     		ldr	r2, [r7, #16]
 1638 011c 0432     		add	r2, r2, #4
 1639 011e 0C21     		mov	r1, #12
 1640 0120 FF31     		add	r1, r1, #255
 1641 0122 081C     		mov	r0, r1
 1642 0124 111C     		mov	r1, r2
 1643 0126 9847     		blx	r3
1556:.\Generated_Source\PSoC4/BLE_eventHandler.c ****                                     flag = 1u;
 1644              		.loc 1 1556 0
 1645 0128 3B1C     		mov	r3, r7
 1646 012a 0F33     		add	r3, r3, #15
 1647 012c 0122     		mov	r2, #1
 1648 012e 1A70     		strb	r2, [r3]
 1649              	.L97:
1539:.\Generated_Source\PSoC4/BLE_eventHandler.c **** 					for(j = 0u; (j < (uint8) CYBLE_SRVI_COUNT) && (flag == 0u); j++)
 1650              		.loc 1 1539 0
 1651 0130 3B1C     		mov	r3, r7
 1652 0132 1733     		add	r3, r3, #23
 1653 0134 1A78     		ldrb	r2, [r3]
 1654 0136 3B1C     		mov	r3, r7
 1655 0138 1733     		add	r3, r3, #23
 1656 013a 0132     		add	r2, r2, #1
 1657 013c 1A70     		strb	r2, [r3]
 1658              	.L96:
1539:.\Generated_Source\PSoC4/BLE_eventHandler.c **** 					for(j = 0u; (j < (uint8) CYBLE_SRVI_COUNT) && (flag == 0u); j++)
 1659              		.loc 1 1539 0 is_stmt 0 discriminator 1
 1660 013e 3B1C     		mov	r3, r7
 1661 0140 1733     		add	r3, r3, #23
 1662 0142 1B78     		ldrb	r3, [r3]
 1663 0144 022B     		cmp	r3, #2
 1664 0146 04D8     		bhi	.L95
1539:.\Generated_Source\PSoC4/BLE_eventHandler.c **** 					for(j = 0u; (j < (uint8) CYBLE_SRVI_COUNT) && (flag == 0u); j++)
 1665              		.loc 1 1539 0 discriminator 2
 1666 0148 3B1C     		mov	r3, r7
 1667 014a 0F33     		add	r3, r3, #15
 1668 014c 1B78     		ldrb	r3, [r3]
 1669 014e 002B     		cmp	r3, #0
 1670 0150 99D0     		beq	.L100
 1671              	.L95:
1532:.\Generated_Source\PSoC4/BLE_eventHandler.c ****             for(i = 0u; i < attrLength; i += dataLength)
 1672              		.loc 1 1532 0 is_stmt 1
 1673 0152 3B1C     		mov	r3, r7
 1674 0154 1433     		add	r3, r3, #20
 1675 0156 391C     		mov	r1, r7
 1676 0158 1431     		add	r1, r1, #20
ARM GAS  C:\Users\msuro\AppData\Local\Temp\ccG5pvI8.s 			page 58


 1677 015a 3A1C     		mov	r2, r7
 1678 015c 0C32     		add	r2, r2, #12
 1679 015e 0988     		ldrh	r1, [r1]
 1680 0160 1288     		ldrh	r2, [r2]
 1681 0162 8A18     		add	r2, r1, r2
 1682 0164 1A80     		strh	r2, [r3]
 1683              	.L94:
1532:.\Generated_Source\PSoC4/BLE_eventHandler.c ****             for(i = 0u; i < attrLength; i += dataLength)
 1684              		.loc 1 1532 0 is_stmt 0 discriminator 1
 1685 0166 3A1C     		mov	r2, r7
 1686 0168 1432     		add	r2, r2, #20
 1687 016a 3B1C     		mov	r3, r7
 1688 016c 0A33     		add	r3, r3, #10
 1689 016e 1288     		ldrh	r2, [r2]
 1690 0170 1B88     		ldrh	r3, [r3]
 1691 0172 9A42     		cmp	r2, r3
 1692 0174 00D2     		bcs	.LCB1290
 1693 0176 70E7     		b	.L101	@long jump
 1694              	.LCB1290:
1557:.\Generated_Source\PSoC4/BLE_eventHandler.c ****                                 }
1558:.\Generated_Source\PSoC4/BLE_eventHandler.c ****                             }
1559:.\Generated_Source\PSoC4/BLE_eventHandler.c ****                         }
1560:.\Generated_Source\PSoC4/BLE_eventHandler.c ****                     }
1561:.\Generated_Source\PSoC4/BLE_eventHandler.c ****                 }
1562:.\Generated_Source\PSoC4/BLE_eventHandler.c ****             }
1563:.\Generated_Source\PSoC4/BLE_eventHandler.c **** 
1564:.\Generated_Source\PSoC4/BLE_eventHandler.c ****             if((discSrvcInfo != NULL) && (discSrvcInfo->range.endHandle == CYBLE_GATT_ATTR_HANDLE_E
 1695              		.loc 1 1564 0 is_stmt 1
 1696 0178 3B69     		ldr	r3, [r7, #16]
 1697 017a 002B     		cmp	r3, #0
 1698 017c 1ED0     		beq	.L102
 1699              		.loc 1 1564 0 is_stmt 0 discriminator 1
 1700 017e 3B69     		ldr	r3, [r7, #16]
 1701 0180 5A88     		ldrh	r2, [r3, #2]
 1702 0182 1D4B     		ldr	r3, .L103+20
 1703 0184 9A42     		cmp	r2, r3
 1704 0186 19D1     		bne	.L102
1565:.\Generated_Source\PSoC4/BLE_eventHandler.c ****             {
1566:.\Generated_Source\PSoC4/BLE_eventHandler.c ****             #if(CYBLE_STACK_MODE_DEBUG)
1567:.\Generated_Source\PSoC4/BLE_eventHandler.c ****                 CyBle_ApplCallback(CYBLE_EVT_GATTC_SRVC_DISCOVERY_COMPLETE, NULL);
1568:.\Generated_Source\PSoC4/BLE_eventHandler.c ****             #endif /* CYBLE_STACK_MODE_DEBUG */   
1569:.\Generated_Source\PSoC4/BLE_eventHandler.c ****                 CyBle_SetClientState(CYBLE_CLIENT_STATE_INCL_DISCOVERING);
 1705              		.loc 1 1569 0 is_stmt 1
 1706 0188 164B     		ldr	r3, .L103
 1707 018a 0222     		mov	r2, #2
 1708 018c 1A70     		strb	r2, [r3]
1570:.\Generated_Source\PSoC4/BLE_eventHandler.c ****                 cyBle_disCount = 0u;
 1709              		.loc 1 1570 0
 1710 018e 184B     		ldr	r3, .L103+12
 1711 0190 0022     		mov	r2, #0
 1712 0192 1A70     		strb	r2, [r3]
1571:.\Generated_Source\PSoC4/BLE_eventHandler.c ****                 if(CYBLE_ERROR_OK != CyBle_NextInclDiscovery())
 1713              		.loc 1 1571 0
 1714 0194 FFF7FEFF 		bl	CyBle_NextInclDiscovery
 1715 0198 031C     		mov	r3, r0
 1716 019a 002B     		cmp	r3, #0
 1717 019c 0ED0     		beq	.L102
ARM GAS  C:\Users\msuro\AppData\Local\Temp\ccG5pvI8.s 			page 59


1572:.\Generated_Source\PSoC4/BLE_eventHandler.c ****                 {
1573:.\Generated_Source\PSoC4/BLE_eventHandler.c ****                     CyBle_ApplCallback(CYBLE_EVT_GATTC_INCL_DISCOVERY_FAILED, NULL);
 1718              		.loc 1 1573 0
 1719 019e 154B     		ldr	r3, .L103+16
 1720 01a0 1B68     		ldr	r3, [r3]
 1721 01a2 8422     		mov	r2, #132
 1722 01a4 5200     		lsl	r2, r2, #1
 1723 01a6 101C     		mov	r0, r2
 1724 01a8 0021     		mov	r1, #0
 1725 01aa 9847     		blx	r3
1574:.\Generated_Source\PSoC4/BLE_eventHandler.c ****                     cyBle_eventHandlerFlag &= (uint8)~CYBLE_AUTO_DISCOVERY;
 1726              		.loc 1 1574 0
 1727 01ac 0E4B     		ldr	r3, .L103+4
 1728 01ae 1B78     		ldrb	r3, [r3]
 1729 01b0 DBB2     		uxtb	r3, r3
 1730 01b2 0222     		mov	r2, #2
 1731 01b4 9343     		bic	r3, r2
 1732 01b6 DAB2     		uxtb	r2, r3
 1733 01b8 0B4B     		ldr	r3, .L103+4
 1734 01ba 1A70     		strb	r2, [r3]
 1735              	.L102:
1575:.\Generated_Source\PSoC4/BLE_eventHandler.c ****                 }
1576:.\Generated_Source\PSoC4/BLE_eventHandler.c ****             }
1577:.\Generated_Source\PSoC4/BLE_eventHandler.c ****             cyBle_eventHandlerFlag &= (uint8)~CYBLE_CALLBACK;
 1736              		.loc 1 1577 0
 1737 01bc 0A4B     		ldr	r3, .L103+4
 1738 01be 1B78     		ldrb	r3, [r3]
 1739 01c0 DBB2     		uxtb	r3, r3
 1740 01c2 0122     		mov	r2, #1
 1741 01c4 9343     		bic	r3, r2
 1742 01c6 DAB2     		uxtb	r2, r3
 1743 01c8 074B     		ldr	r3, .L103+4
 1744 01ca 1A70     		strb	r2, [r3]
 1745 01cc 06E0     		b	.L90
 1746              	.L93:
1578:.\Generated_Source\PSoC4/BLE_eventHandler.c ****         }
1579:.\Generated_Source\PSoC4/BLE_eventHandler.c ****         else
1580:.\Generated_Source\PSoC4/BLE_eventHandler.c ****         {
1581:.\Generated_Source\PSoC4/BLE_eventHandler.c ****             CyBle_ApplCallback(CYBLE_EVT_GATTC_SRVC_DISCOVERY_FAILED, NULL);
 1747              		.loc 1 1581 0
 1748 01ce 094B     		ldr	r3, .L103+16
 1749 01d0 1B68     		ldr	r3, [r3]
 1750 01d2 0822     		mov	r2, #8
 1751 01d4 FF32     		add	r2, r2, #255
 1752 01d6 101C     		mov	r0, r2
 1753 01d8 0021     		mov	r1, #0
 1754 01da 9847     		blx	r3
 1755              	.L90:
1582:.\Generated_Source\PSoC4/BLE_eventHandler.c ****         }
1583:.\Generated_Source\PSoC4/BLE_eventHandler.c ****     }
1584:.\Generated_Source\PSoC4/BLE_eventHandler.c **** }
 1756              		.loc 1 1584 0
 1757 01dc BD46     		mov	sp, r7
 1758 01de 06B0     		add	sp, sp, #24
 1759              		@ sp needed
 1760 01e0 80BD     		pop	{r7, pc}
 1761              	.L104:
ARM GAS  C:\Users\msuro\AppData\Local\Temp\ccG5pvI8.s 			page 60


 1762 01e2 C046     		.align	2
 1763              	.L103:
 1764 01e4 00000000 		.word	cyBle_clientState
 1765 01e8 00000000 		.word	cyBle_eventHandlerFlag
 1766 01ec 00000000 		.word	cyBle_serverInfo
 1767 01f0 00000000 		.word	cyBle_disCount
 1768 01f4 00000000 		.word	CyBle_ApplCallback
 1769 01f8 FFFF0000 		.word	65535
 1770              		.cfi_endproc
 1771              	.LFE15:
 1772              		.size	CyBle_ReadByGroupEventHandler, .-CyBle_ReadByGroupEventHandler
 1773              		.section	.text.CyBle_NextInclDiscovery,"ax",%progbits
 1774              		.align	2
 1775              		.global	CyBle_NextInclDiscovery
 1776              		.code	16
 1777              		.thumb_func
 1778              		.type	CyBle_NextInclDiscovery, %function
 1779              	CyBle_NextInclDiscovery:
 1780              	.LFB16:
1585:.\Generated_Source\PSoC4/BLE_eventHandler.c **** 
1586:.\Generated_Source\PSoC4/BLE_eventHandler.c **** 
1587:.\Generated_Source\PSoC4/BLE_eventHandler.c **** /****************************************************************************** 
1588:.\Generated_Source\PSoC4/BLE_eventHandler.c **** ##Function Name: CyBle_NextInclDiscovery
1589:.\Generated_Source\PSoC4/BLE_eventHandler.c **** *******************************************************************************
1590:.\Generated_Source\PSoC4/BLE_eventHandler.c **** 
1591:.\Generated_Source\PSoC4/BLE_eventHandler.c **** Summary:
1592:.\Generated_Source\PSoC4/BLE_eventHandler.c ****  Looks for the included services in the current service (pointed by
1593:.\Generated_Source\PSoC4/BLE_eventHandler.c ****   cyBle_disCount). If the current service handle range is invalid (any of start
1594:.\Generated_Source\PSoC4/BLE_eventHandler.c ****   or end handle is invalid), then increment the cyBle_disCount and check
1595:.\Generated_Source\PSoC4/BLE_eventHandler.c ****   the next service range and does so until a valid range is caught or the end of
1596:.\Generated_Source\PSoC4/BLE_eventHandler.c ****   the service set is reached.
1597:.\Generated_Source\PSoC4/BLE_eventHandler.c **** 
1598:.\Generated_Source\PSoC4/BLE_eventHandler.c **** Parameters:
1599:.\Generated_Source\PSoC4/BLE_eventHandler.c ****  None
1600:.\Generated_Source\PSoC4/BLE_eventHandler.c **** 
1601:.\Generated_Source\PSoC4/BLE_eventHandler.c **** Return:
1602:.\Generated_Source\PSoC4/BLE_eventHandler.c ****  uint16 apiResult - may be either:
1603:.\Generated_Source\PSoC4/BLE_eventHandler.c ****          - CYBLE_DESCR_DISC_DONE when there are no more descriptors.
1604:.\Generated_Source\PSoC4/BLE_eventHandler.c ****          - result of the CyBle_GattcDiscoverAllCharacteristicDescriptors().
1605:.\Generated_Source\PSoC4/BLE_eventHandler.c **** 
1606:.\Generated_Source\PSoC4/BLE_eventHandler.c **** ******************************************************************************/
1607:.\Generated_Source\PSoC4/BLE_eventHandler.c **** CYBLE_API_RESULT_T CyBle_NextInclDiscovery(void)
1608:.\Generated_Source\PSoC4/BLE_eventHandler.c **** {
 1781              		.loc 1 1608 0
 1782              		.cfi_startproc
 1783 0000 90B5     		push	{r4, r7, lr}
 1784              		.cfi_def_cfa_offset 12
 1785              		.cfi_offset 4, -12
 1786              		.cfi_offset 7, -8
 1787              		.cfi_offset 14, -4
 1788 0002 83B0     		sub	sp, sp, #12
 1789              		.cfi_def_cfa_offset 24
 1790 0004 00AF     		add	r7, sp, #0
 1791              		.cfi_def_cfa_register 7
1609:.\Generated_Source\PSoC4/BLE_eventHandler.c ****     CYBLE_API_RESULT_T apiResult;
1610:.\Generated_Source\PSoC4/BLE_eventHandler.c **** 
1611:.\Generated_Source\PSoC4/BLE_eventHandler.c ****     /* Skip not existing services */
ARM GAS  C:\Users\msuro\AppData\Local\Temp\ccG5pvI8.s 			page 61


1612:.\Generated_Source\PSoC4/BLE_eventHandler.c ****     while((cyBle_disCount < (uint8) CYBLE_SRVI_COUNT) &&
 1792              		.loc 1 1612 0
 1793 0006 05E0     		b	.L106
 1794              	.L108:
1613:.\Generated_Source\PSoC4/BLE_eventHandler.c ****           (cyBle_serverInfo[cyBle_disCount].range.startHandle == CYBLE_GATT_INVALID_ATTR_HANDLE_VAL
1614:.\Generated_Source\PSoC4/BLE_eventHandler.c ****     {
1615:.\Generated_Source\PSoC4/BLE_eventHandler.c ****         cyBle_disCount++;
 1795              		.loc 1 1615 0
 1796 0008 1A4B     		ldr	r3, .L112
 1797 000a 1B78     		ldrb	r3, [r3]
 1798 000c 0133     		add	r3, r3, #1
 1799 000e DAB2     		uxtb	r2, r3
 1800 0010 184B     		ldr	r3, .L112
 1801 0012 1A70     		strb	r2, [r3]
 1802              	.L106:
1612:.\Generated_Source\PSoC4/BLE_eventHandler.c ****     while((cyBle_disCount < (uint8) CYBLE_SRVI_COUNT) &&
 1803              		.loc 1 1612 0 discriminator 1
 1804 0014 174B     		ldr	r3, .L112
 1805 0016 1B78     		ldrb	r3, [r3]
 1806 0018 022B     		cmp	r3, #2
 1807 001a 0AD8     		bhi	.L107
1613:.\Generated_Source\PSoC4/BLE_eventHandler.c ****           (cyBle_serverInfo[cyBle_disCount].range.startHandle == CYBLE_GATT_INVALID_ATTR_HANDLE_VAL
 1808              		.loc 1 1613 0 discriminator 2
 1809 001c 154B     		ldr	r3, .L112
 1810 001e 1B78     		ldrb	r3, [r3]
 1811 0020 1A1C     		mov	r2, r3
 1812 0022 1549     		ldr	r1, .L112+4
 1813 0024 131C     		mov	r3, r2
 1814 0026 5B00     		lsl	r3, r3, #1
 1815 0028 9B18     		add	r3, r3, r2
 1816 002a 5B00     		lsl	r3, r3, #1
 1817 002c 5B5A     		ldrh	r3, [r3, r1]
1612:.\Generated_Source\PSoC4/BLE_eventHandler.c ****     while((cyBle_disCount < (uint8) CYBLE_SRVI_COUNT) &&
 1818              		.loc 1 1612 0 discriminator 2
 1819 002e 002B     		cmp	r3, #0
 1820 0030 EAD0     		beq	.L108
 1821              	.L107:
1616:.\Generated_Source\PSoC4/BLE_eventHandler.c ****     }
1617:.\Generated_Source\PSoC4/BLE_eventHandler.c **** 
1618:.\Generated_Source\PSoC4/BLE_eventHandler.c ****     if(cyBle_disCount < (uint8) CYBLE_SRVI_COUNT)
 1822              		.loc 1 1618 0
 1823 0032 104B     		ldr	r3, .L112
 1824 0034 1B78     		ldrb	r3, [r3]
 1825 0036 022B     		cmp	r3, #2
 1826 0038 11D8     		bhi	.L109
1619:.\Generated_Source\PSoC4/BLE_eventHandler.c ****     {
1620:.\Generated_Source\PSoC4/BLE_eventHandler.c ****         apiResult = CyBle_GattcFindIncludedServices(cyBle_connHandle, &cyBle_serverInfo[cyBle_disCo
 1827              		.loc 1 1620 0
 1828 003a 0E4B     		ldr	r3, .L112
 1829 003c 1B78     		ldrb	r3, [r3]
 1830 003e 1A1C     		mov	r2, r3
 1831 0040 131C     		mov	r3, r2
 1832 0042 5B00     		lsl	r3, r3, #1
 1833 0044 9B18     		add	r3, r3, r2
 1834 0046 5B00     		lsl	r3, r3, #1
 1835 0048 0B4A     		ldr	r2, .L112+4
 1836 004a 9A18     		add	r2, r3, r2
ARM GAS  C:\Users\msuro\AppData\Local\Temp\ccG5pvI8.s 			page 62


 1837 004c BC1D     		add	r4, r7, #6
 1838 004e 0B4B     		ldr	r3, .L112+8
 1839 0050 1868     		ldr	r0, [r3]
 1840 0052 111C     		mov	r1, r2
 1841 0054 FFF7FEFF 		bl	CyBle_GattcFindIncludedServices
 1842 0058 031C     		mov	r3, r0
 1843 005a 2380     		strh	r3, [r4]
 1844 005c 03E0     		b	.L110
 1845              	.L109:
1621:.\Generated_Source\PSoC4/BLE_eventHandler.c ****     }
1622:.\Generated_Source\PSoC4/BLE_eventHandler.c ****     else
1623:.\Generated_Source\PSoC4/BLE_eventHandler.c ****     {
1624:.\Generated_Source\PSoC4/BLE_eventHandler.c ****         apiResult = CYBLE_INCL_DISC_DONE;
 1846              		.loc 1 1624 0
 1847 005e BB1D     		add	r3, r7, #6
 1848 0060 8022     		mov	r2, #128
 1849 0062 5200     		lsl	r2, r2, #1
 1850 0064 1A80     		strh	r2, [r3]
 1851              	.L110:
1625:.\Generated_Source\PSoC4/BLE_eventHandler.c ****     }
1626:.\Generated_Source\PSoC4/BLE_eventHandler.c **** 
1627:.\Generated_Source\PSoC4/BLE_eventHandler.c ****     return (apiResult);
 1852              		.loc 1 1627 0
 1853 0066 BB1D     		add	r3, r7, #6
 1854 0068 1B88     		ldrh	r3, [r3]
1628:.\Generated_Source\PSoC4/BLE_eventHandler.c **** }
 1855              		.loc 1 1628 0
 1856 006a 181C     		mov	r0, r3
 1857 006c BD46     		mov	sp, r7
 1858 006e 03B0     		add	sp, sp, #12
 1859              		@ sp needed
 1860 0070 90BD     		pop	{r4, r7, pc}
 1861              	.L113:
 1862 0072 C046     		.align	2
 1863              	.L112:
 1864 0074 00000000 		.word	cyBle_disCount
 1865 0078 00000000 		.word	cyBle_serverInfo
 1866 007c 00000000 		.word	cyBle_connHandle
 1867              		.cfi_endproc
 1868              	.LFE16:
 1869              		.size	CyBle_NextInclDiscovery, .-CyBle_NextInclDiscovery
 1870              		.section	.text.CyBle_GapcDiscoverCharacteristicsEventHandler,"ax",%progbits
 1871              		.align	2
 1872              		.code	16
 1873              		.thumb_func
 1874              		.type	CyBle_GapcDiscoverCharacteristicsEventHandler, %function
 1875              	CyBle_GapcDiscoverCharacteristicsEventHandler:
 1876              	.LFB17:
1629:.\Generated_Source\PSoC4/BLE_eventHandler.c **** 
1630:.\Generated_Source\PSoC4/BLE_eventHandler.c **** 
1631:.\Generated_Source\PSoC4/BLE_eventHandler.c **** /****************************************************************************** 
1632:.\Generated_Source\PSoC4/BLE_eventHandler.c **** ##Function Name: CyBle_GapcDiscoverCharacteristicsEventHandler
1633:.\Generated_Source\PSoC4/BLE_eventHandler.c **** *******************************************************************************
1634:.\Generated_Source\PSoC4/BLE_eventHandler.c **** 
1635:.\Generated_Source\PSoC4/BLE_eventHandler.c **** Summary:
1636:.\Generated_Source\PSoC4/BLE_eventHandler.c ****  This function is called on receiving a "CYBLE_EVT_GATTC_READ_BY_TYPE_RSP"
1637:.\Generated_Source\PSoC4/BLE_eventHandler.c ****  event. Based on the service UUID, an appropriate data structure is populated
ARM GAS  C:\Users\msuro\AppData\Local\Temp\ccG5pvI8.s 			page 63


1638:.\Generated_Source\PSoC4/BLE_eventHandler.c ****  using the data received as part of the callback.
1639:.\Generated_Source\PSoC4/BLE_eventHandler.c **** 
1640:.\Generated_Source\PSoC4/BLE_eventHandler.c **** Parameters:
1641:.\Generated_Source\PSoC4/BLE_eventHandler.c ****  *discCharInfo:  the pointer to a characteristic information structure.
1642:.\Generated_Source\PSoC4/BLE_eventHandler.c **** 
1643:.\Generated_Source\PSoC4/BLE_eventHandler.c **** Return:
1644:.\Generated_Source\PSoC4/BLE_eventHandler.c ****  None
1645:.\Generated_Source\PSoC4/BLE_eventHandler.c **** 
1646:.\Generated_Source\PSoC4/BLE_eventHandler.c **** ******************************************************************************/
1647:.\Generated_Source\PSoC4/BLE_eventHandler.c **** static void CyBle_GapcDiscoverCharacteristicsEventHandler(CYBLE_DISC_CHAR_INFO_T *discCharInfo)
1648:.\Generated_Source\PSoC4/BLE_eventHandler.c **** {
 1877              		.loc 1 1648 0
 1878              		.cfi_startproc
 1879 0000 80B5     		push	{r7, lr}
 1880              		.cfi_def_cfa_offset 8
 1881              		.cfi_offset 7, -8
 1882              		.cfi_offset 14, -4
 1883 0002 82B0     		sub	sp, sp, #8
 1884              		.cfi_def_cfa_offset 16
 1885 0004 00AF     		add	r7, sp, #0
 1886              		.cfi_def_cfa_register 7
 1887 0006 7860     		str	r0, [r7, #4]
1649:.\Generated_Source\PSoC4/BLE_eventHandler.c ****     switch(discCharInfo->uuid.uuid16)
 1888              		.loc 1 1649 0
 1889 0008 7B68     		ldr	r3, [r7, #4]
 1890 000a DB88     		ldrh	r3, [r3, #6]
 1891 000c 364A     		ldr	r2, .L134
 1892 000e 9B18     		add	r3, r3, r2
 1893 0010 042B     		cmp	r3, #4
 1894 0012 00D9     		bls	.LCB1478
 1895 0014 63E0     		b	.L133	@long jump
 1896              	.LCB1478:
 1897 0016 9A00     		lsl	r2, r3, #2
 1898 0018 344B     		ldr	r3, .L134+4
 1899 001a D318     		add	r3, r2, r3
 1900 001c 1B68     		ldr	r3, [r3]
 1901 001e 9F46     		mov	pc, r3
 1902              		.section	.rodata
 1903              		.align	2
 1904              	.L117:
 1905 03ec 20000000 		.word	.L116
 1906 03f0 46000000 		.word	.L118
 1907 03f4 6C000000 		.word	.L119
 1908 03f8 92000000 		.word	.L120
 1909 03fc B8000000 		.word	.L121
 1910              		.section	.text.CyBle_GapcDiscoverCharacteristicsEventHandler
 1911              	.L116:
1650:.\Generated_Source\PSoC4/BLE_eventHandler.c ****     {
1651:.\Generated_Source\PSoC4/BLE_eventHandler.c ****     case CYBLE_UUID_CHAR_DEVICE_NAME:
1652:.\Generated_Source\PSoC4/BLE_eventHandler.c ****         CYBLE_GapcCheckCharHandle(cyBle_gapc.deviceNameCharHandle, discCharInfo);
 1912              		.loc 1 1652 0
 1913 0020 334B     		ldr	r3, .L134+8
 1914 0022 1B88     		ldrh	r3, [r3]
 1915 0024 002B     		cmp	r3, #0
 1916 0026 04D1     		bne	.L122
 1917              		.loc 1 1652 0 is_stmt 0 discriminator 1
 1918 0028 7B68     		ldr	r3, [r7, #4]
ARM GAS  C:\Users\msuro\AppData\Local\Temp\ccG5pvI8.s 			page 64


 1919 002a 9A88     		ldrh	r2, [r3, #4]
 1920 002c 304B     		ldr	r3, .L134+8
 1921 002e 1A80     		strh	r2, [r3]
1653:.\Generated_Source\PSoC4/BLE_eventHandler.c ****         break;
 1922              		.loc 1 1653 0 is_stmt 1 discriminator 1
 1923 0030 56E0     		b	.L114
 1924              	.L122:
1652:.\Generated_Source\PSoC4/BLE_eventHandler.c ****         CYBLE_GapcCheckCharHandle(cyBle_gapc.deviceNameCharHandle, discCharInfo);
 1925              		.loc 1 1652 0 discriminator 2
 1926 0032 304B     		ldr	r3, .L134+12
 1927 0034 1B68     		ldr	r3, [r3]
 1928 0036 7A68     		ldr	r2, [r7, #4]
 1929 0038 0632     		add	r2, r2, #6
 1930 003a 8621     		mov	r1, #134
 1931 003c 4900     		lsl	r1, r1, #1
 1932 003e 081C     		mov	r0, r1
 1933 0040 111C     		mov	r1, r2
 1934 0042 9847     		blx	r3
 1935              		.loc 1 1653 0 discriminator 2
 1936 0044 4CE0     		b	.L114
 1937              	.L118:
1654:.\Generated_Source\PSoC4/BLE_eventHandler.c **** 
1655:.\Generated_Source\PSoC4/BLE_eventHandler.c ****     case CYBLE_UUID_CHAR_APPEARANCE:
1656:.\Generated_Source\PSoC4/BLE_eventHandler.c ****         CYBLE_GapcCheckCharHandle(cyBle_gapc.appearanceCharHandle, discCharInfo);
 1938              		.loc 1 1656 0
 1939 0046 2A4B     		ldr	r3, .L134+8
 1940 0048 5B88     		ldrh	r3, [r3, #2]
 1941 004a 002B     		cmp	r3, #0
 1942 004c 04D1     		bne	.L125
 1943              		.loc 1 1656 0 is_stmt 0 discriminator 1
 1944 004e 7B68     		ldr	r3, [r7, #4]
 1945 0050 9A88     		ldrh	r2, [r3, #4]
 1946 0052 274B     		ldr	r3, .L134+8
 1947 0054 5A80     		strh	r2, [r3, #2]
1657:.\Generated_Source\PSoC4/BLE_eventHandler.c ****         break;
 1948              		.loc 1 1657 0 is_stmt 1 discriminator 1
 1949 0056 43E0     		b	.L114
 1950              	.L125:
1656:.\Generated_Source\PSoC4/BLE_eventHandler.c ****         CYBLE_GapcCheckCharHandle(cyBle_gapc.appearanceCharHandle, discCharInfo);
 1951              		.loc 1 1656 0 discriminator 2
 1952 0058 264B     		ldr	r3, .L134+12
 1953 005a 1B68     		ldr	r3, [r3]
 1954 005c 7A68     		ldr	r2, [r7, #4]
 1955 005e 0632     		add	r2, r2, #6
 1956 0060 8621     		mov	r1, #134
 1957 0062 4900     		lsl	r1, r1, #1
 1958 0064 081C     		mov	r0, r1
 1959 0066 111C     		mov	r1, r2
 1960 0068 9847     		blx	r3
 1961              		.loc 1 1657 0 discriminator 2
 1962 006a 39E0     		b	.L114
 1963              	.L119:
1658:.\Generated_Source\PSoC4/BLE_eventHandler.c **** 
1659:.\Generated_Source\PSoC4/BLE_eventHandler.c ****     case CYBLE_UUID_CHAR_PERIPH_PRIVCY_FLAG:
1660:.\Generated_Source\PSoC4/BLE_eventHandler.c ****         CYBLE_GapcCheckCharHandle(cyBle_gapc.periphPrivacyCharHandle, discCharInfo);
 1964              		.loc 1 1660 0
 1965 006c 204B     		ldr	r3, .L134+8
ARM GAS  C:\Users\msuro\AppData\Local\Temp\ccG5pvI8.s 			page 65


 1966 006e 9B88     		ldrh	r3, [r3, #4]
 1967 0070 002B     		cmp	r3, #0
 1968 0072 04D1     		bne	.L127
 1969              		.loc 1 1660 0 is_stmt 0 discriminator 1
 1970 0074 7B68     		ldr	r3, [r7, #4]
 1971 0076 9A88     		ldrh	r2, [r3, #4]
 1972 0078 1D4B     		ldr	r3, .L134+8
 1973 007a 9A80     		strh	r2, [r3, #4]
1661:.\Generated_Source\PSoC4/BLE_eventHandler.c ****         break;
 1974              		.loc 1 1661 0 is_stmt 1 discriminator 1
 1975 007c 30E0     		b	.L114
 1976              	.L127:
1660:.\Generated_Source\PSoC4/BLE_eventHandler.c ****         CYBLE_GapcCheckCharHandle(cyBle_gapc.periphPrivacyCharHandle, discCharInfo);
 1977              		.loc 1 1660 0 discriminator 2
 1978 007e 1D4B     		ldr	r3, .L134+12
 1979 0080 1B68     		ldr	r3, [r3]
 1980 0082 7A68     		ldr	r2, [r7, #4]
 1981 0084 0632     		add	r2, r2, #6
 1982 0086 8621     		mov	r1, #134
 1983 0088 4900     		lsl	r1, r1, #1
 1984 008a 081C     		mov	r0, r1
 1985 008c 111C     		mov	r1, r2
 1986 008e 9847     		blx	r3
 1987              		.loc 1 1661 0 discriminator 2
 1988 0090 26E0     		b	.L114
 1989              	.L120:
1662:.\Generated_Source\PSoC4/BLE_eventHandler.c **** 
1663:.\Generated_Source\PSoC4/BLE_eventHandler.c ****     case CYBLE_UUID_CHAR_RECONNECTION_ADDR:
1664:.\Generated_Source\PSoC4/BLE_eventHandler.c ****         CYBLE_GapcCheckCharHandle(cyBle_gapc.reconnAddrCharHandle, discCharInfo);
 1990              		.loc 1 1664 0
 1991 0092 174B     		ldr	r3, .L134+8
 1992 0094 DB88     		ldrh	r3, [r3, #6]
 1993 0096 002B     		cmp	r3, #0
 1994 0098 04D1     		bne	.L129
 1995              		.loc 1 1664 0 is_stmt 0 discriminator 1
 1996 009a 7B68     		ldr	r3, [r7, #4]
 1997 009c 9A88     		ldrh	r2, [r3, #4]
 1998 009e 144B     		ldr	r3, .L134+8
 1999 00a0 DA80     		strh	r2, [r3, #6]
1665:.\Generated_Source\PSoC4/BLE_eventHandler.c ****         break;
 2000              		.loc 1 1665 0 is_stmt 1 discriminator 1
 2001 00a2 1DE0     		b	.L114
 2002              	.L129:
1664:.\Generated_Source\PSoC4/BLE_eventHandler.c ****         CYBLE_GapcCheckCharHandle(cyBle_gapc.reconnAddrCharHandle, discCharInfo);
 2003              		.loc 1 1664 0 discriminator 2
 2004 00a4 134B     		ldr	r3, .L134+12
 2005 00a6 1B68     		ldr	r3, [r3]
 2006 00a8 7A68     		ldr	r2, [r7, #4]
 2007 00aa 0632     		add	r2, r2, #6
 2008 00ac 8621     		mov	r1, #134
 2009 00ae 4900     		lsl	r1, r1, #1
 2010 00b0 081C     		mov	r0, r1
 2011 00b2 111C     		mov	r1, r2
 2012 00b4 9847     		blx	r3
 2013              		.loc 1 1665 0 discriminator 2
 2014 00b6 13E0     		b	.L114
 2015              	.L121:
ARM GAS  C:\Users\msuro\AppData\Local\Temp\ccG5pvI8.s 			page 66


1666:.\Generated_Source\PSoC4/BLE_eventHandler.c **** 
1667:.\Generated_Source\PSoC4/BLE_eventHandler.c ****     case CYBLE_UUID_CHAR_PRFRRD_CNXN_PARAM:
1668:.\Generated_Source\PSoC4/BLE_eventHandler.c ****         CYBLE_GapcCheckCharHandle(cyBle_gapc.prefConnParamCharHandle, discCharInfo);
 2016              		.loc 1 1668 0
 2017 00b8 0D4B     		ldr	r3, .L134+8
 2018 00ba 1B89     		ldrh	r3, [r3, #8]
 2019 00bc 002B     		cmp	r3, #0
 2020 00be 04D1     		bne	.L131
 2021              		.loc 1 1668 0 is_stmt 0 discriminator 1
 2022 00c0 7B68     		ldr	r3, [r7, #4]
 2023 00c2 9A88     		ldrh	r2, [r3, #4]
 2024 00c4 0A4B     		ldr	r3, .L134+8
 2025 00c6 1A81     		strh	r2, [r3, #8]
1669:.\Generated_Source\PSoC4/BLE_eventHandler.c ****         break;
 2026              		.loc 1 1669 0 is_stmt 1 discriminator 1
 2027 00c8 0AE0     		b	.L114
 2028              	.L131:
1668:.\Generated_Source\PSoC4/BLE_eventHandler.c ****         CYBLE_GapcCheckCharHandle(cyBle_gapc.prefConnParamCharHandle, discCharInfo);
 2029              		.loc 1 1668 0 discriminator 2
 2030 00ca 0A4B     		ldr	r3, .L134+12
 2031 00cc 1B68     		ldr	r3, [r3]
 2032 00ce 7A68     		ldr	r2, [r7, #4]
 2033 00d0 0632     		add	r2, r2, #6
 2034 00d2 8621     		mov	r1, #134
 2035 00d4 4900     		lsl	r1, r1, #1
 2036 00d6 081C     		mov	r0, r1
 2037 00d8 111C     		mov	r1, r2
 2038 00da 9847     		blx	r3
 2039              		.loc 1 1669 0 discriminator 2
 2040 00dc 00E0     		b	.L114
 2041              	.L133:
1670:.\Generated_Source\PSoC4/BLE_eventHandler.c **** 
1671:.\Generated_Source\PSoC4/BLE_eventHandler.c ****     default:
1672:.\Generated_Source\PSoC4/BLE_eventHandler.c ****         break;
 2042              		.loc 1 1672 0
 2043 00de C046     		mov	r8, r8
 2044              	.L114:
1673:.\Generated_Source\PSoC4/BLE_eventHandler.c ****     }
1674:.\Generated_Source\PSoC4/BLE_eventHandler.c **** }
 2045              		.loc 1 1674 0
 2046 00e0 BD46     		mov	sp, r7
 2047 00e2 02B0     		add	sp, sp, #8
 2048              		@ sp needed
 2049 00e4 80BD     		pop	{r7, pc}
 2050              	.L135:
 2051 00e6 C046     		.align	2
 2052              	.L134:
 2053 00e8 00D6FFFF 		.word	-10752
 2054 00ec EC030000 		.word	.L117
 2055 00f0 00000000 		.word	cyBle_gapc
 2056 00f4 00000000 		.word	CyBle_ApplCallback
 2057              		.cfi_endproc
 2058              	.LFE17:
 2059              		.size	CyBle_GapcDiscoverCharacteristicsEventHandler, .-CyBle_GapcDiscoverCharacteristicsEventHandl
 2060              		.section	.text.CyBle_ReadByTypeEventHandler,"ax",%progbits
 2061              		.align	2
 2062              		.global	CyBle_ReadByTypeEventHandler
ARM GAS  C:\Users\msuro\AppData\Local\Temp\ccG5pvI8.s 			page 67


 2063              		.code	16
 2064              		.thumb_func
 2065              		.type	CyBle_ReadByTypeEventHandler, %function
 2066              	CyBle_ReadByTypeEventHandler:
 2067              	.LFB18:
1675:.\Generated_Source\PSoC4/BLE_eventHandler.c **** 
1676:.\Generated_Source\PSoC4/BLE_eventHandler.c **** 
1677:.\Generated_Source\PSoC4/BLE_eventHandler.c **** /****************************************************************************** 
1678:.\Generated_Source\PSoC4/BLE_eventHandler.c **** ##Function Name: CyBle_ReadByTypeEventHandler
1679:.\Generated_Source\PSoC4/BLE_eventHandler.c **** *******************************************************************************
1680:.\Generated_Source\PSoC4/BLE_eventHandler.c **** Summary:
1681:.\Generated_Source\PSoC4/BLE_eventHandler.c ****  Handles the Read By Type Response Event during an automatic server discovery
1682:.\Generated_Source\PSoC4/BLE_eventHandler.c ****  process.
1683:.\Generated_Source\PSoC4/BLE_eventHandler.c **** 
1684:.\Generated_Source\PSoC4/BLE_eventHandler.c **** Parameters:
1685:.\Generated_Source\PSoC4/BLE_eventHandler.c ****  CYBLE_GATT_READ_BY_TYPE_RSP_PARAM_T *eventParam: The event parameters for a
1686:.\Generated_Source\PSoC4/BLE_eventHandler.c ****                                                   Read By Type Response.
1687:.\Generated_Source\PSoC4/BLE_eventHandler.c **** 
1688:.\Generated_Source\PSoC4/BLE_eventHandler.c **** Return:
1689:.\Generated_Source\PSoC4/BLE_eventHandler.c ****  None.
1690:.\Generated_Source\PSoC4/BLE_eventHandler.c **** 
1691:.\Generated_Source\PSoC4/BLE_eventHandler.c **** ******************************************************************************/
1692:.\Generated_Source\PSoC4/BLE_eventHandler.c **** void CyBle_ReadByTypeEventHandler(CYBLE_GATTC_READ_BY_TYPE_RSP_PARAM_T *eventParam)
1693:.\Generated_Source\PSoC4/BLE_eventHandler.c **** {
 2068              		.loc 1 1693 0
 2069              		.cfi_startproc
 2070 0000 80B5     		push	{r7, lr}
 2071              		.cfi_def_cfa_offset 8
 2072              		.cfi_offset 7, -8
 2073              		.cfi_offset 14, -4
 2074 0002 92B0     		sub	sp, sp, #72
 2075              		.cfi_def_cfa_offset 80
 2076 0004 00AF     		add	r7, sp, #0
 2077              		.cfi_def_cfa_register 7
 2078 0006 7860     		str	r0, [r7, #4]
1694:.\Generated_Source\PSoC4/BLE_eventHandler.c ****     uint16 dataLength;
1695:.\Generated_Source\PSoC4/BLE_eventHandler.c ****     uint16 attrLength;
1696:.\Generated_Source\PSoC4/BLE_eventHandler.c ****     uint16 i, j;
1697:.\Generated_Source\PSoC4/BLE_eventHandler.c ****     uint8 *attrVal;
1698:.\Generated_Source\PSoC4/BLE_eventHandler.c **** 
1699:.\Generated_Source\PSoC4/BLE_eventHandler.c ****     if(0u != (cyBle_eventHandlerFlag & CYBLE_AUTO_DISCOVERY))
 2079              		.loc 1 1699 0
 2080 0008 CE4B     		ldr	r3, .L184
 2081 000a 1B78     		ldrb	r3, [r3]
 2082 000c DBB2     		uxtb	r3, r3
 2083 000e 1A1C     		mov	r2, r3
 2084 0010 0223     		mov	r3, #2
 2085 0012 1340     		and	r3, r2
 2086 0014 00D1     		bne	.LCB1656
 2087 0016 24E2     		b	.L136	@long jump
 2088              	.LCB1656:
1700:.\Generated_Source\PSoC4/BLE_eventHandler.c ****     {
1701:.\Generated_Source\PSoC4/BLE_eventHandler.c ****         /* Count of service information pieces in this mtu */
1702:.\Generated_Source\PSoC4/BLE_eventHandler.c ****         dataLength = eventParam->attrData.length;
 2089              		.loc 1 1702 0
 2090 0018 3B1C     		mov	r3, r7
 2091 001a 3E33     		add	r3, r3, #62
ARM GAS  C:\Users\msuro\AppData\Local\Temp\ccG5pvI8.s 			page 68


 2092 001c 7A68     		ldr	r2, [r7, #4]
 2093 001e 1289     		ldrh	r2, [r2, #8]
 2094 0020 1A80     		strh	r2, [r3]
1703:.\Generated_Source\PSoC4/BLE_eventHandler.c ****         attrLength = eventParam->attrData.attrLen;
 2095              		.loc 1 1703 0
 2096 0022 3B1C     		mov	r3, r7
 2097 0024 3C33     		add	r3, r3, #60
 2098 0026 7A68     		ldr	r2, [r7, #4]
 2099 0028 5289     		ldrh	r2, [r2, #10]
 2100 002a 1A80     		strh	r2, [r3]
1704:.\Generated_Source\PSoC4/BLE_eventHandler.c ****         attrVal = eventParam->attrData.attrValue;
 2101              		.loc 1 1704 0
 2102 002c 7B68     		ldr	r3, [r7, #4]
 2103 002e 5B68     		ldr	r3, [r3, #4]
 2104 0030 3B64     		str	r3, [r7, #64]
1705:.\Generated_Source\PSoC4/BLE_eventHandler.c ****         
1706:.\Generated_Source\PSoC4/BLE_eventHandler.c ****         if(CYBLE_CLIENT_STATE_CHAR_DISCOVERING == CyBle_GetClientState())
 2105              		.loc 1 1706 0
 2106 0032 C54B     		ldr	r3, .L184+4
 2107 0034 1B78     		ldrb	r3, [r3]
 2108 0036 032B     		cmp	r3, #3
 2109 0038 00D0     		beq	.LCB1673
 2110 003a E7E0     		b	.L138	@long jump
 2111              	.LCB1673:
 2112              	.LBB5:
1707:.\Generated_Source\PSoC4/BLE_eventHandler.c ****         {
1708:.\Generated_Source\PSoC4/BLE_eventHandler.c ****             CYBLE_DISC_CHAR_INFO_T discCharInfo;
1709:.\Generated_Source\PSoC4/BLE_eventHandler.c ****             
1710:.\Generated_Source\PSoC4/BLE_eventHandler.c ****             for(i = 0u; i < attrLength; i += dataLength)
 2113              		.loc 1 1710 0
 2114 003c 3B1C     		mov	r3, r7
 2115 003e 4633     		add	r3, r3, #70
 2116 0040 0022     		mov	r2, #0
 2117 0042 1A80     		strh	r2, [r3]
 2118 0044 D8E0     		b	.L139
 2119              	.L155:
1711:.\Generated_Source\PSoC4/BLE_eventHandler.c ****             {
1712:.\Generated_Source\PSoC4/BLE_eventHandler.c ****                 discCharInfo.charDeclHandle = CyBle_Get16ByPtr(attrVal);
 2120              		.loc 1 1712 0
 2121 0046 3B6C     		ldr	r3, [r7, #64]
 2122 0048 181C     		mov	r0, r3
 2123 004a FFF7FEFF 		bl	CyBle_Get16ByPtr
 2124 004e 031C     		mov	r3, r0
 2125 0050 1A1C     		mov	r2, r3
 2126 0052 3B1C     		mov	r3, r7
 2127 0054 2433     		add	r3, r3, #36
 2128 0056 1A80     		strh	r2, [r3]
1713:.\Generated_Source\PSoC4/BLE_eventHandler.c ****                 attrVal += sizeof(discCharInfo.charDeclHandle);
 2129              		.loc 1 1713 0
 2130 0058 3B6C     		ldr	r3, [r7, #64]
 2131 005a 0233     		add	r3, r3, #2
 2132 005c 3B64     		str	r3, [r7, #64]
1714:.\Generated_Source\PSoC4/BLE_eventHandler.c ****                 discCharInfo.properties = *attrVal;
 2133              		.loc 1 1714 0
 2134 005e 3B6C     		ldr	r3, [r7, #64]
 2135 0060 1A78     		ldrb	r2, [r3]
 2136 0062 3B1C     		mov	r3, r7
ARM GAS  C:\Users\msuro\AppData\Local\Temp\ccG5pvI8.s 			page 69


 2137 0064 2433     		add	r3, r3, #36
 2138 0066 9A70     		strb	r2, [r3, #2]
1715:.\Generated_Source\PSoC4/BLE_eventHandler.c ****                 attrVal += sizeof(discCharInfo.properties);
 2139              		.loc 1 1715 0
 2140 0068 3B6C     		ldr	r3, [r7, #64]
 2141 006a 0133     		add	r3, r3, #1
 2142 006c 3B64     		str	r3, [r7, #64]
1716:.\Generated_Source\PSoC4/BLE_eventHandler.c ****                 discCharInfo.valueHandle = CyBle_Get16ByPtr(attrVal);
 2143              		.loc 1 1716 0
 2144 006e 3B6C     		ldr	r3, [r7, #64]
 2145 0070 181C     		mov	r0, r3
 2146 0072 FFF7FEFF 		bl	CyBle_Get16ByPtr
 2147 0076 031C     		mov	r3, r0
 2148 0078 1A1C     		mov	r2, r3
 2149 007a 3B1C     		mov	r3, r7
 2150 007c 2433     		add	r3, r3, #36
 2151 007e 9A80     		strh	r2, [r3, #4]
1717:.\Generated_Source\PSoC4/BLE_eventHandler.c ****                 attrVal += sizeof(discCharInfo.valueHandle);
 2152              		.loc 1 1717 0
 2153 0080 3B6C     		ldr	r3, [r7, #64]
 2154 0082 0233     		add	r3, r3, #2
 2155 0084 3B64     		str	r3, [r7, #64]
1718:.\Generated_Source\PSoC4/BLE_eventHandler.c ****                 if(dataLength == CYBLE_DISC_CHAR_INFO_128_LEN)
 2156              		.loc 1 1718 0
 2157 0086 3B1C     		mov	r3, r7
 2158 0088 3E33     		add	r3, r3, #62
 2159 008a 1B88     		ldrh	r3, [r3]
 2160 008c 152B     		cmp	r3, #21
 2161 008e 12D1     		bne	.L140
1719:.\Generated_Source\PSoC4/BLE_eventHandler.c ****                 {
1720:.\Generated_Source\PSoC4/BLE_eventHandler.c ****                     discCharInfo.uuidFormat = CYBLE_GATT_128_BIT_UUID_FORMAT;
 2162              		.loc 1 1720 0
 2163 0090 3B1C     		mov	r3, r7
 2164 0092 2433     		add	r3, r3, #36
 2165 0094 0222     		mov	r2, #2
 2166 0096 9A75     		strb	r2, [r3, #22]
1721:.\Generated_Source\PSoC4/BLE_eventHandler.c ****                     (void)memcpy(&discCharInfo.uuid.uuid128, attrVal, CYBLE_GATT_128_BIT_UUID_SIZE)
 2167              		.loc 1 1721 0
 2168 0098 3A1C     		mov	r2, r7
 2169 009a 2A32     		add	r2, r2, #42
 2170 009c 3B6C     		ldr	r3, [r7, #64]
 2171 009e 111C     		mov	r1, r2
 2172 00a0 1A1C     		mov	r2, r3
 2173 00a2 1023     		mov	r3, #16
 2174 00a4 081C     		mov	r0, r1
 2175 00a6 111C     		mov	r1, r2
 2176 00a8 1A1C     		mov	r2, r3
 2177 00aa FFF7FEFF 		bl	memcpy
1722:.\Generated_Source\PSoC4/BLE_eventHandler.c ****                     attrVal += CYBLE_GATT_128_BIT_UUID_SIZE;
 2178              		.loc 1 1722 0
 2179 00ae 3B6C     		ldr	r3, [r7, #64]
 2180 00b0 1033     		add	r3, r3, #16
 2181 00b2 3B64     		str	r3, [r7, #64]
 2182 00b4 3BE0     		b	.L141
 2183              	.L140:
1723:.\Generated_Source\PSoC4/BLE_eventHandler.c ****                     /* Add custom profile support */
1724:.\Generated_Source\PSoC4/BLE_eventHandler.c ****                 }
ARM GAS  C:\Users\msuro\AppData\Local\Temp\ccG5pvI8.s 			page 70


1725:.\Generated_Source\PSoC4/BLE_eventHandler.c ****                 else if(dataLength == CYBLE_DISC_CHAR_INFO_LEN)
 2184              		.loc 1 1725 0
 2185 00b6 3B1C     		mov	r3, r7
 2186 00b8 3E33     		add	r3, r3, #62
 2187 00ba 1B88     		ldrh	r3, [r3]
 2188 00bc 072B     		cmp	r3, #7
 2189 00be 36D1     		bne	.L141
1726:.\Generated_Source\PSoC4/BLE_eventHandler.c ****                 {
1727:.\Generated_Source\PSoC4/BLE_eventHandler.c ****                     discCharInfo.uuidFormat = CYBLE_GATT_16_BIT_UUID_FORMAT;
 2190              		.loc 1 1727 0
 2191 00c0 3B1C     		mov	r3, r7
 2192 00c2 2433     		add	r3, r3, #36
 2193 00c4 0122     		mov	r2, #1
 2194 00c6 9A75     		strb	r2, [r3, #22]
1728:.\Generated_Source\PSoC4/BLE_eventHandler.c ****                     discCharInfo.uuid.uuid16 = CyBle_Get16ByPtr(attrVal);
 2195              		.loc 1 1728 0
 2196 00c8 3B6C     		ldr	r3, [r7, #64]
 2197 00ca 181C     		mov	r0, r3
 2198 00cc FFF7FEFF 		bl	CyBle_Get16ByPtr
 2199 00d0 031C     		mov	r3, r0
 2200 00d2 1A1C     		mov	r2, r3
 2201 00d4 3B1C     		mov	r3, r7
 2202 00d6 2433     		add	r3, r3, #36
 2203 00d8 DA80     		strh	r2, [r3, #6]
1729:.\Generated_Source\PSoC4/BLE_eventHandler.c ****                     attrVal += CYBLE_GATT_16_BIT_UUID_SIZE;
 2204              		.loc 1 1729 0
 2205 00da 3B6C     		ldr	r3, [r7, #64]
 2206 00dc 0233     		add	r3, r3, #2
 2207 00de 3B64     		str	r3, [r7, #64]
1730:.\Generated_Source\PSoC4/BLE_eventHandler.c **** 
1731:.\Generated_Source\PSoC4/BLE_eventHandler.c ****                     /* Switch by service uuid */
1732:.\Generated_Source\PSoC4/BLE_eventHandler.c ****                     switch (cyBle_serverInfo[cyBle_disCount].uuid)
 2208              		.loc 1 1732 0
 2209 00e0 9A4B     		ldr	r3, .L184+8
 2210 00e2 1B78     		ldrb	r3, [r3]
 2211 00e4 1A1C     		mov	r2, r3
 2212 00e6 9A49     		ldr	r1, .L184+12
 2213 00e8 131C     		mov	r3, r2
 2214 00ea 5B00     		lsl	r3, r3, #1
 2215 00ec 9B18     		add	r3, r3, r2
 2216 00ee 5B00     		lsl	r3, r3, #1
 2217 00f0 CB18     		add	r3, r1, r3
 2218 00f2 9B88     		ldrh	r3, [r3, #4]
 2219 00f4 974A     		ldr	r2, .L184+16
 2220 00f6 9342     		cmp	r3, r2
 2221 00f8 0DD0     		beq	.L143
 2222 00fa 974A     		ldr	r2, .L184+20
 2223 00fc 9342     		cmp	r3, r2
 2224 00fe 10D0     		beq	.L144
 2225 0100 C022     		mov	r2, #192
 2226 0102 5201     		lsl	r2, r2, #5
 2227 0104 9342     		cmp	r3, r2
 2228 0106 00D0     		beq	.L145
1733:.\Generated_Source\PSoC4/BLE_eventHandler.c ****                     {
1734:.\Generated_Source\PSoC4/BLE_eventHandler.c ****                     case CYBLE_UUID_GAP_SERVICE:
1735:.\Generated_Source\PSoC4/BLE_eventHandler.c ****                         CyBle_GapcDiscoverCharacteristicsEventHandler(&discCharInfo);
1736:.\Generated_Source\PSoC4/BLE_eventHandler.c ****                         break;
ARM GAS  C:\Users\msuro\AppData\Local\Temp\ccG5pvI8.s 			page 71


1737:.\Generated_Source\PSoC4/BLE_eventHandler.c **** 
1738:.\Generated_Source\PSoC4/BLE_eventHandler.c ****                     case CYBLE_UUID_GATT_SERVICE:
1739:.\Generated_Source\PSoC4/BLE_eventHandler.c ****                         CyBle_GattcDiscoverCharacteristicsEventHandler(&discCharInfo);
1740:.\Generated_Source\PSoC4/BLE_eventHandler.c ****                         break;
1741:.\Generated_Source\PSoC4/BLE_eventHandler.c ****                 
1742:.\Generated_Source\PSoC4/BLE_eventHandler.c ****                 #ifdef CYBLE_ANS_CLIENT
1743:.\Generated_Source\PSoC4/BLE_eventHandler.c ****                     case CYBLE_UUID_ALERT_NOTIFICATION_SERVICE:
1744:.\Generated_Source\PSoC4/BLE_eventHandler.c ****                         CyBle_AnscDiscoverCharacteristicsEventHandler(&discCharInfo);
1745:.\Generated_Source\PSoC4/BLE_eventHandler.c ****                         break;
1746:.\Generated_Source\PSoC4/BLE_eventHandler.c ****                 #endif /* CYBLE_ANS_CLIENT */
1747:.\Generated_Source\PSoC4/BLE_eventHandler.c ****                         
1748:.\Generated_Source\PSoC4/BLE_eventHandler.c ****                 #ifdef CYBLE_BAS_CLIENT
1749:.\Generated_Source\PSoC4/BLE_eventHandler.c ****                     case CYBLE_UUID_BAS_SERVICE:
1750:.\Generated_Source\PSoC4/BLE_eventHandler.c ****                         CyBle_BascDiscoverCharacteristicsEventHandler(cyBle_disCount - CYBLE_SRVI_B
1751:.\Generated_Source\PSoC4/BLE_eventHandler.c ****                         break;
1752:.\Generated_Source\PSoC4/BLE_eventHandler.c ****                 #endif /* CYBLE_BAS_CLIENT */
1753:.\Generated_Source\PSoC4/BLE_eventHandler.c **** 
1754:.\Generated_Source\PSoC4/BLE_eventHandler.c ****                 #ifdef CYBLE_BLS_CLIENT
1755:.\Generated_Source\PSoC4/BLE_eventHandler.c ****                     case CYBLE_UUID_BLOOD_PRESSURE_SERVICE:
1756:.\Generated_Source\PSoC4/BLE_eventHandler.c ****                         CyBle_BlscDiscoverCharacteristicsEventHandler(&discCharInfo);
1757:.\Generated_Source\PSoC4/BLE_eventHandler.c ****                         break;
1758:.\Generated_Source\PSoC4/BLE_eventHandler.c ****                 #endif /* CYBLE_BLS_CLIENT */
1759:.\Generated_Source\PSoC4/BLE_eventHandler.c ****                 
1760:.\Generated_Source\PSoC4/BLE_eventHandler.c ****                 #ifdef CYBLE_CGMS_CLIENT
1761:.\Generated_Source\PSoC4/BLE_eventHandler.c ****                     case CYBLE_UUID_CGM_SERVICE:
1762:.\Generated_Source\PSoC4/BLE_eventHandler.c ****                         CyBle_CgmscDiscoverCharacteristicsEventHandler(&discCharInfo);
1763:.\Generated_Source\PSoC4/BLE_eventHandler.c ****                         break;
1764:.\Generated_Source\PSoC4/BLE_eventHandler.c ****                 #endif /* CYBLE_CGMS_CLIENT */
1765:.\Generated_Source\PSoC4/BLE_eventHandler.c **** 
1766:.\Generated_Source\PSoC4/BLE_eventHandler.c ****                 #ifdef CYBLE_CPS_CLIENT
1767:.\Generated_Source\PSoC4/BLE_eventHandler.c ****                     case CYBLE_UUID_CPS_SERVICE:
1768:.\Generated_Source\PSoC4/BLE_eventHandler.c ****                         CyBle_CpscDiscoverCharacteristicsEventHandler(&discCharInfo);
1769:.\Generated_Source\PSoC4/BLE_eventHandler.c ****                         break;
1770:.\Generated_Source\PSoC4/BLE_eventHandler.c ****                 #endif /* CYBLE_CPS_CLIENT */
1771:.\Generated_Source\PSoC4/BLE_eventHandler.c **** 
1772:.\Generated_Source\PSoC4/BLE_eventHandler.c ****                 #ifdef CYBLE_CSCS_CLIENT
1773:.\Generated_Source\PSoC4/BLE_eventHandler.c ****                     case CYBLE_UUID_CYCLING_SPEED_AND_CADENCE_SERVICE:
1774:.\Generated_Source\PSoC4/BLE_eventHandler.c ****                         CyBle_CscscDiscoverCharacteristicsEventHandler(&discCharInfo);
1775:.\Generated_Source\PSoC4/BLE_eventHandler.c ****                         break;
1776:.\Generated_Source\PSoC4/BLE_eventHandler.c ****                 #endif /* CYBLE_CSCS_CLIENT */
1777:.\Generated_Source\PSoC4/BLE_eventHandler.c ****                 
1778:.\Generated_Source\PSoC4/BLE_eventHandler.c ****                 #ifdef CYBLE_CTS_CLIENT
1779:.\Generated_Source\PSoC4/BLE_eventHandler.c ****                     case CYBLE_UUID_CURRENT_TIME_SERVICE:
1780:.\Generated_Source\PSoC4/BLE_eventHandler.c ****                         CyBle_CtscDiscoverCharacteristicsEventHandler(&discCharInfo);
1781:.\Generated_Source\PSoC4/BLE_eventHandler.c ****                         break;
1782:.\Generated_Source\PSoC4/BLE_eventHandler.c ****                 #endif /* CYBLE_CTS_CLIENT */
1783:.\Generated_Source\PSoC4/BLE_eventHandler.c ****                 
1784:.\Generated_Source\PSoC4/BLE_eventHandler.c ****                 #ifdef CYBLE_DIS_CLIENT
1785:.\Generated_Source\PSoC4/BLE_eventHandler.c ****                     case CYBLE_UUID_DEVICE_INFO_SERVICE:
1786:.\Generated_Source\PSoC4/BLE_eventHandler.c ****                         CyBle_DiscDiscoverCharacteristicsEventHandler(&discCharInfo);
1787:.\Generated_Source\PSoC4/BLE_eventHandler.c ****                         break;
1788:.\Generated_Source\PSoC4/BLE_eventHandler.c ****                 #endif /* CYBLE_DIS_CLIENT */
1789:.\Generated_Source\PSoC4/BLE_eventHandler.c **** 
1790:.\Generated_Source\PSoC4/BLE_eventHandler.c ****                 #ifdef CYBLE_GLS_CLIENT
1791:.\Generated_Source\PSoC4/BLE_eventHandler.c ****                     case CYBLE_UUID_GLUCOSE_SERVICE:
1792:.\Generated_Source\PSoC4/BLE_eventHandler.c ****                         CyBle_GlscDiscoverCharacteristicsEventHandler(&discCharInfo);
1793:.\Generated_Source\PSoC4/BLE_eventHandler.c ****                         break;
ARM GAS  C:\Users\msuro\AppData\Local\Temp\ccG5pvI8.s 			page 72


1794:.\Generated_Source\PSoC4/BLE_eventHandler.c ****                 #endif /* CYBLE_GLS_CLIENT */
1795:.\Generated_Source\PSoC4/BLE_eventHandler.c ****                 
1796:.\Generated_Source\PSoC4/BLE_eventHandler.c ****                 #ifdef CYBLE_HIDS_CLIENT
1797:.\Generated_Source\PSoC4/BLE_eventHandler.c ****                     case CYBLE_UUID_HIDS_SERVICE:
1798:.\Generated_Source\PSoC4/BLE_eventHandler.c ****                         CyBle_HidscDiscoverCharacteristicsEventHandler(cyBle_disCount - CYBLE_SRVI_
1799:.\Generated_Source\PSoC4/BLE_eventHandler.c ****                         break;
1800:.\Generated_Source\PSoC4/BLE_eventHandler.c ****                 #endif /* CYBLE_HIDS_CLIENT */
1801:.\Generated_Source\PSoC4/BLE_eventHandler.c **** 
1802:.\Generated_Source\PSoC4/BLE_eventHandler.c ****                 #ifdef CYBLE_HRS_CLIENT
1803:.\Generated_Source\PSoC4/BLE_eventHandler.c ****                     case CYBLE_UUID_HEART_RATE_SERVICE:
1804:.\Generated_Source\PSoC4/BLE_eventHandler.c ****                         CyBle_HrscDiscoverCharacteristicsEventHandler(&discCharInfo);
1805:.\Generated_Source\PSoC4/BLE_eventHandler.c ****                         break;
1806:.\Generated_Source\PSoC4/BLE_eventHandler.c ****                 #endif /* CYBLE_HRS_CLIENT */
1807:.\Generated_Source\PSoC4/BLE_eventHandler.c **** 
1808:.\Generated_Source\PSoC4/BLE_eventHandler.c ****                 #ifdef CYBLE_HTS_CLIENT
1809:.\Generated_Source\PSoC4/BLE_eventHandler.c ****                     case CYBLE_UUID_HEALTH_THERMOMETER_SERVICE:
