ARM GAS  C:\Users\msuro\AppData\Local\Temp\ccVNp37g.s 			page 1


   1              		.cpu cortex-m0
   2              		.fpu softvfp
   3              		.eabi_attribute 20, 1
   4              		.eabi_attribute 21, 1
   5              		.eabi_attribute 23, 3
   6              		.eabi_attribute 24, 1
   7              		.eabi_attribute 25, 1
   8              		.eabi_attribute 26, 1
   9              		.eabi_attribute 30, 6
  10              		.eabi_attribute 34, 0
  11              		.eabi_attribute 18, 4
  12              		.code	16
  13              		.file	"main.c"
  14              		.text
  15              	.Ltext0:
  16              		.cfi_sections	.debug_frame
  17              		.global	deviceDetected
  18              		.bss
  19              		.type	deviceDetected, %object
  20              		.size	deviceDetected, 1
  21              	deviceDetected:
  22 0000 00       		.space	1
  23              		.comm	peerDeviceAddr,7,4
  24              		.section	.rodata
  25              		.align	2
  26              	.LC0:
  27 0000 424C4520 		.ascii	"BLE Stack ON:\015\000"
  27      53746163 
  27      6B204F4E 
  27      3A0D00
  28 000f 00       		.align	2
  29              	.LC2:
  30 0010 70656572 		.ascii	"peer address:\015\000"
  30      20616464 
  30      72657373 
  30      3A0D00
  31 001f 00       		.align	2
  32              	.LC5:
  33 0020 25322E32 		.ascii	"%2.2x\000"
  33      7800
  34 0026 0000     		.align	2
  35              	.LC7:
  36 0028 0D00     		.ascii	"\015\000"
  37 002a 0000     		.align	2
  38              	.LC11:
  39 002c 53746172 		.ascii	"Started to Scan\015\000"
  39      74656420 
  39      746F2053 
  39      63616E0D 
  39      00
  40 003d 000000   		.align	2
  41              	.LC13:
  42 0040 53746F70 		.ascii	"Stop scanning:\015\000"
  42      20736361 
  42      6E6E696E 
  42      673A0D00 
  43              		.align	2
ARM GAS  C:\Users\msuro\AppData\Local\Temp\ccVNp37g.s 			page 2


  44              	.LC15:
  45 0050 73756363 		.ascii	"success\015\000"
  45      6573730D 
  45      00
  46 0059 000000   		.align	2
  47              	.LC17:
  48 005c 636F6E6E 		.ascii	"connection failed:%x\015\012\000"
  48      65637469 
  48      6F6E2066 
  48      61696C65 
  48      643A2578 
  49 0073 00       		.align	2
  50              	.LC20:
  51 0074 44697363 		.ascii	"Discovery complete.\015\000"
  51      6F766572 
  51      7920636F 
  51      6D706C65 
  51      74652E0D 
  52 0089 000000   		.align	2
  53              	.LC23:
  54 008c 50656572 		.ascii	"Peer device supports Tx power Service \015\000"
  54      20646576 
  54      69636520 
  54      73757070 
  54      6F727473 
  55              		.align	2
  56              	.LC25:
  57 00b4 50656572 		.ascii	"Peer device doesn't supports Tx power Service \015\000"
  57      20646576 
  57      69636520 
  57      646F6573 
  57      6E277420 
  58              		.section	.text.StackEventHandler,"ax",%progbits
  59              		.align	2
  60              		.global	StackEventHandler
  61              		.code	16
  62              		.thumb_func
  63              		.type	StackEventHandler, %function
  64              	StackEventHandler:
  65              	.LFB35:
  66              		.file 1 ".\\main.c"
   1:.\main.c      **** /*******************************************************************************
   2:.\main.c      **** * File Name: main.c
   3:.\main.c      **** *
   4:.\main.c      **** * Version: 1.0
   5:.\main.c      **** *
   6:.\main.c      **** * Description:
   7:.\main.c      **** *  This project demonstrates simultaneous usage of the BLE GATT Client and 
   8:.\main.c      **** * Server roles. 
   9:.\main.c      **** *
  10:.\main.c      **** * Hardware Dependency:
  11:.\main.c      **** *  CY8CKIT-042-BLE Bluetooth Low Energy Pioneer Kit
  12:.\main.c      **** *
  13:.\main.c      **** ********************************************************************************
  14:.\main.c      **** * Copyright (2015), Cypress Semiconductor Corporation.
  15:.\main.c      **** ******************************************************************************
  16:.\main.c      **** * This software is owned by Cypress Semiconductor Corporation (Cypress) and is
ARM GAS  C:\Users\msuro\AppData\Local\Temp\ccVNp37g.s 			page 3


  17:.\main.c      **** * protected by and subject to worldwide patent protection (United States and
  18:.\main.c      **** * foreign), United States copyright laws and international treaty provisions.
  19:.\main.c      **** * Cypress hereby grants to licensee a personal, non-exclusive, non-transferable
  20:.\main.c      **** * license to copy, use, modify, create derivative works of, and compile the
  21:.\main.c      **** * Cypress Source Code and derivative works for the sole purpose of creating
  22:.\main.c      **** * custom software in support of licensee product to be used only in conjunction
  23:.\main.c      **** * with a Cypress integrated circuit as specified in the applicable agreement.
  24:.\main.c      **** * Any reproduction, modification, translation, compilation, or representation of
  25:.\main.c      **** * this software except as specified above is prohibited without the express
  26:.\main.c      **** * written permission of Cypress.
  27:.\main.c      **** *
  28:.\main.c      **** * Disclaimer: CYPRESS MAKES NO WARRANTY OF ANY KIND, EXPRESS OR IMPLIED, WITH
  29:.\main.c      **** * REGARD TO THIS MATERIAL, INCLUDING, BUT NOT LIMITED TO, THE IMPLIED
  30:.\main.c      **** * WARRANTIES OF MERCHANTABILITY AND FITNESS FOR A PARTICULAR PURPOSE.
  31:.\main.c      **** * Cypress reserves the right to make changes without further notice to the
  32:.\main.c      **** * materials described herein. Cypress does not assume any liability arising out
  33:.\main.c      **** * of the application or use of any product or circuit described herein. Cypress
  34:.\main.c      **** * does not authorize its products for use as critical components in life-support
  35:.\main.c      **** * systems where a malfunction or failure may reasonably be expected to result in
  36:.\main.c      **** * significant injury to the user. The inclusion of Cypress' product in a life-
  37:.\main.c      **** * support systems application implies that the manufacturer assumes all risk of
  38:.\main.c      **** * such use and in doing so indemnifies Cypress against all charges. Use may be
  39:.\main.c      **** * limited by and subject to the applicable Cypress software license agreement.
  40:.\main.c      **** *******************************************************************************/
  41:.\main.c      **** 
  42:.\main.c      **** /*******************************************************************************
  43:.\main.c      **** * Included headers
  44:.\main.c      **** *******************************************************************************/
  45:.\main.c      **** #include <project.h>
  46:.\main.c      **** #include "common.h"
  47:.\main.c      **** #include <stdio.h>
  48:.\main.c      **** 
  49:.\main.c      **** 
  50:.\main.c      **** /***************************************
  51:.\main.c      **** *        Global Variables
  52:.\main.c      **** ***************************************/
  53:.\main.c      **** uint8 deviceDetected=0;
  54:.\main.c      **** CYBLE_GAP_BD_ADDR_T  peerDeviceAddr;
  55:.\main.c      **** 
  56:.\main.c      **** 
  57:.\main.c      **** /*******************************************************************************
  58:.\main.c      **** * Function Name: StackEventHandler
  59:.\main.c      **** ********************************************************************************
  60:.\main.c      **** *
  61:.\main.c      **** * Summary:
  62:.\main.c      **** *  This is an event callback function to receive events from the CYBLE Component.
  63:.\main.c      **** *
  64:.\main.c      **** * Parameters:
  65:.\main.c      **** *  uint8 event:       Event from the CYBLE component.
  66:.\main.c      **** *  void* eventParams: A structure instance for corresponding event type. The
  67:.\main.c      **** *                     list of event structure is described in the component
  68:.\main.c      **** *                     datasheet.
  69:.\main.c      **** *
  70:.\main.c      **** * Return:
  71:.\main.c      **** *  None
  72:.\main.c      **** *
  73:.\main.c      **** *******************************************************************************/
ARM GAS  C:\Users\msuro\AppData\Local\Temp\ccVNp37g.s 			page 4


  74:.\main.c      **** 
  75:.\main.c      **** void StackEventHandler(uint32 event,void* eventParam)
  76:.\main.c      **** {
  67              		.loc 1 76 0
  68              		.cfi_startproc
  69 0000 90B5     		push	{r4, r7, lr}
  70              		.cfi_def_cfa_offset 12
  71              		.cfi_offset 4, -12
  72              		.cfi_offset 7, -8
  73              		.cfi_offset 14, -4
  74 0002 89B0     		sub	sp, sp, #36
  75              		.cfi_def_cfa_offset 48
  76 0004 00AF     		add	r7, sp, #0
  77              		.cfi_def_cfa_register 7
  78 0006 7860     		str	r0, [r7, #4]
  79 0008 3960     		str	r1, [r7]
  77:.\main.c      ****     
  78:.\main.c      ****    /*Declaring Local variables*/
  79:.\main.c      ****     uint8 i;
  80:.\main.c      ****     CYBLE_GAPC_ADV_REPORT_T scanReport;
  81:.\main.c      ****     CYBLE_API_RESULT_T apiResult;              
  82:.\main.c      ****    
  83:.\main.c      ****     switch(event)
  80              		.loc 1 83 0
  81 000a 7B68     		ldr	r3, [r7, #4]
  82 000c 272B     		cmp	r3, #39
  83 000e 00D1     		bne	.LCB17
  84 0010 B3E0     		b	.L3	@long jump
  85              	.LCB17:
  86 0012 04D8     		bhi	.L4
  87 0014 012B     		cmp	r3, #1
  88 0016 0ED0     		beq	.L5
  89 0018 202B     		cmp	r3, #32
  90 001a 14D0     		beq	.L6
  84:.\main.c      ****     {
  85:.\main.c      ****         
  86:.\main.c      ****         case CYBLE_EVT_STACK_ON:
  87:.\main.c      ****         
  88:.\main.c      ****                 printf("BLE Stack ON:\r\n");
  89:.\main.c      ****                 /*Start to Scan after Stack ON*/
  90:.\main.c      ****                 CyBle_GapcStartScan(CYBLE_SCANNING_FAST);
  91:.\main.c      ****             break;                   
  92:.\main.c      ****             
  93:.\main.c      ****         case CYBLE_EVT_GAPC_SCAN_PROGRESS_RESULT:
  94:.\main.c      ****                 scanReport=  *(CYBLE_GAPC_ADV_REPORT_T*)eventParam;
  95:.\main.c      ****                  
  96:.\main.c      ****                 /*Check for the Manufacturer specific data in scan response*/
  97:.\main.c      ****                 if(scanReport.data[1] == MANUFACTURER_SPECIFIC_DATA && scanReport.data[2] == COMPAN
  98:.\main.c      ****                 && scanReport.data[4] == MAN_SPEC_DATA_LSB && scanReport.data[5] == MAN_SPEC_DATA_M
  99:.\main.c      ****                 {
 100:.\main.c      ****                     printf("peer address:\r\n");
 101:.\main.c      ****                     
 102:.\main.c      ****                     for(i=0;i<CYBLE_GAP_BD_ADDR_SIZE;i++)
 103:.\main.c      ****                     {
 104:.\main.c      ****                         peerDeviceAddr.bdAddr[i]=scanReport.peerBdAddr[i];
 105:.\main.c      ****                         printf("%2.2x",scanReport.peerBdAddr[CYBLE_GAP_BD_ADDR_SIZE-1-i]);
 106:.\main.c      ****                     }
ARM GAS  C:\Users\msuro\AppData\Local\Temp\ccVNp37g.s 			page 5


 107:.\main.c      ****                     
 108:.\main.c      ****                     printf("\r\n");
 109:.\main.c      ****                     deviceDetected=TRUE;
 110:.\main.c      ****                     
 111:.\main.c      ****                     /*Start to scan after disconnection*/
 112:.\main.c      ****                     CyBle_GapcStopScan();
 113:.\main.c      ****                 }
 114:.\main.c      ****                  
 115:.\main.c      ****             break;
 116:.\main.c      ****                 
 117:.\main.c      ****         case CYBLE_EVT_GAPC_SCAN_START_STOP:
 118:.\main.c      ****                 
 119:.\main.c      ****                 if(CyBle_GetState()==CYBLE_STATE_SCANNING)
 120:.\main.c      ****                 {
 121:.\main.c      ****                     printf("Started to Scan\r\n");
 122:.\main.c      ****                 }
 123:.\main.c      ****                 else if(CyBle_GetState()==CYBLE_STATE_DISCONNECTED)
 124:.\main.c      ****                 {    
 125:.\main.c      ****                     printf("Stop scanning:\r\n");
 126:.\main.c      ****                     if(deviceDetected==TRUE)
 127:.\main.c      ****                     {
 128:.\main.c      ****                         apiResult=CyBle_GapcConnectDevice(&peerDeviceAddr);
 129:.\main.c      ****                         if(apiResult==CYBLE_ERROR_OK)
 130:.\main.c      ****                         {
 131:.\main.c      ****                             printf("success\r\n");
 132:.\main.c      ****                         }
 133:.\main.c      ****                         else 
 134:.\main.c      ****                         {
 135:.\main.c      ****                             printf("connection failed:%x\r\n",apiResult);
 136:.\main.c      ****                         }
 137:.\main.c      ****                         deviceDetected=FALSE;   
 138:.\main.c      ****                     }
 139:.\main.c      ****                 }
 140:.\main.c      ****             break;
 141:.\main.c      ****         
 142:.\main.c      ****          case CYBLE_EVT_GAP_DEVICE_CONNECTED:
 143:.\main.c      ****                 /*Start to dicovery the servioes of the serve after connection*/
 144:.\main.c      ****                 CyBle_GattcStartDiscovery(cyBle_connHandle);  
 145:.\main.c      ****             break;
 146:.\main.c      ****                 
 147:.\main.c      ****         case CYBLE_EVT_GAP_DEVICE_DISCONNECTED:           
 148:.\main.c      ****                 /*Start to scan after disconnection*/
 149:.\main.c      ****                 CyBle_GapcStartScan(CYBLE_SCANNING_FAST); 
 150:.\main.c      ****             break;
 151:.\main.c      ****                 
 152:.\main.c      ****         case CYBLE_EVT_GATTC_DISCOVERY_COMPLETE:
 153:.\main.c      ****                 printf("\r\n");
 154:.\main.c      ****                 printf("Discovery complete.\r\n");
 155:.\main.c      ****                 
 156:.\main.c      ****                 for(i = 0u; i < CYBLE_SRVI_COUNT; i++)
 157:.\main.c      ****                 {          
 158:.\main.c      ****                     /*Checking for the Tx power service*/
 159:.\main.c      ****                     if(cyBle_serverInfo[i].uuid == CYBLE_UUID_TX_POWER_SERVICE)
 160:.\main.c      ****                     {
 161:.\main.c      ****                         if(cyBle_serverInfo[i].range.startHandle < cyBle_serverInfo[i].range.endHan
 162:.\main.c      ****                         {
 163:.\main.c      ****                             printf("Peer device supports Tx power Service \r\n");      
ARM GAS  C:\Users\msuro\AppData\Local\Temp\ccVNp37g.s 			page 6


 164:.\main.c      ****                         }
 165:.\main.c      ****                         else
 166:.\main.c      ****                         {
 167:.\main.c      ****                             printf("Peer device doesn't supports Tx power Service \r\n");
 168:.\main.c      ****                         }
 169:.\main.c      ****                     }
 170:.\main.c      **** 
 171:.\main.c      ****                 }                
 172:.\main.c      ****                 printf("\r\n");
 173:.\main.c      ****             break;                   
 174:.\main.c      ****                 
 175:.\main.c      ****         default:               
 176:.\main.c      ****              break;
  91              		.loc 1 176 0
  92 001c 09E1     		b	.L1
  93              	.L4:
  83:.\main.c      ****     switch(event)
  94              		.loc 1 83 0
  95 001e 2B2B     		cmp	r3, #43
  96 0020 00D1     		bne	.LCB29
  97 0022 76E0     		b	.L7	@long jump
  98              	.LCB29:
  99 0024 1222     		mov	r2, #18
 100 0026 FF32     		add	r2, r2, #255
 101 0028 9342     		cmp	r3, r2
 102 002a 00D1     		bne	.LCB33
 103 002c B8E0     		b	.L8	@long jump
 104              	.LCB33:
 105 002e 282B     		cmp	r3, #40
 106 0030 00D1     		bne	.LCB35
 107 0032 B1E0     		b	.L9	@long jump
 108              	.LCB35:
 109              		.loc 1 176 0
 110 0034 FDE0     		b	.L1
 111              	.L5:
  88:.\main.c      ****                 printf("BLE Stack ON:\r\n");
 112              		.loc 1 88 0
 113 0036 804B     		ldr	r3, .L22
 114 0038 181C     		mov	r0, r3
 115 003a FFF7FEFF 		bl	puts
  90:.\main.c      ****                 CyBle_GapcStartScan(CYBLE_SCANNING_FAST);
 116              		.loc 1 90 0
 117 003e 0020     		mov	r0, #0
 118 0040 FFF7FEFF 		bl	CyBle_GapcStartScan
  91:.\main.c      ****             break;                   
 119              		.loc 1 91 0
 120 0044 F5E0     		b	.L1
 121              	.L6:
  94:.\main.c      ****                 scanReport=  *(CYBLE_GAPC_ADV_REPORT_T*)eventParam;
 122              		.loc 1 94 0
 123 0046 3B1C     		mov	r3, r7
 124 0048 0833     		add	r3, r3, #8
 125 004a 3A68     		ldr	r2, [r7]
 126 004c 13CA     		ldmia	r2!, {r0, r1, r4}
 127 004e 13C3     		stmia	r3!, {r0, r1, r4}
 128 0050 03CA     		ldmia	r2!, {r0, r1}
 129 0052 03C3     		stmia	r3!, {r0, r1}
ARM GAS  C:\Users\msuro\AppData\Local\Temp\ccVNp37g.s 			page 7


  97:.\main.c      ****                 if(scanReport.data[1] == MANUFACTURER_SPECIFIC_DATA && scanReport.data[2] == COMPAN
 130              		.loc 1 97 0
 131 0054 3B1C     		mov	r3, r7
 132 0056 0833     		add	r3, r3, #8
 133 0058 DB68     		ldr	r3, [r3, #12]
 134 005a 0133     		add	r3, r3, #1
 135 005c 1B78     		ldrb	r3, [r3]
 136 005e FF2B     		cmp	r3, #255
 137 0060 56D1     		bne	.L11
  97:.\main.c      ****                 if(scanReport.data[1] == MANUFACTURER_SPECIFIC_DATA && scanReport.data[2] == COMPAN
 138              		.loc 1 97 0 is_stmt 0 discriminator 1
 139 0062 3B1C     		mov	r3, r7
 140 0064 0833     		add	r3, r3, #8
 141 0066 DB68     		ldr	r3, [r3, #12]
 142 0068 0233     		add	r3, r3, #2
 143 006a 1B78     		ldrb	r3, [r3]
 144 006c 312B     		cmp	r3, #49
 145 006e 4FD1     		bne	.L11
 146 0070 3B1C     		mov	r3, r7
 147 0072 0833     		add	r3, r3, #8
 148 0074 DB68     		ldr	r3, [r3, #12]
 149 0076 0333     		add	r3, r3, #3
 150 0078 1B78     		ldrb	r3, [r3]
 151 007a 012B     		cmp	r3, #1
 152 007c 48D1     		bne	.L11
  98:.\main.c      ****                 && scanReport.data[4] == MAN_SPEC_DATA_LSB && scanReport.data[5] == MAN_SPEC_DATA_M
 153              		.loc 1 98 0 is_stmt 1
 154 007e 3B1C     		mov	r3, r7
 155 0080 0833     		add	r3, r3, #8
 156 0082 DB68     		ldr	r3, [r3, #12]
 157 0084 0433     		add	r3, r3, #4
 158 0086 1B78     		ldrb	r3, [r3]
 159 0088 342B     		cmp	r3, #52
 160 008a 41D1     		bne	.L11
  98:.\main.c      ****                 && scanReport.data[4] == MAN_SPEC_DATA_LSB && scanReport.data[5] == MAN_SPEC_DATA_M
 161              		.loc 1 98 0 is_stmt 0 discriminator 1
 162 008c 3B1C     		mov	r3, r7
 163 008e 0833     		add	r3, r3, #8
 164 0090 DB68     		ldr	r3, [r3, #12]
 165 0092 0533     		add	r3, r3, #5
 166 0094 1B78     		ldrb	r3, [r3]
 167 0096 122B     		cmp	r3, #18
 168 0098 3AD1     		bne	.L11
 100:.\main.c      ****                     printf("peer address:\r\n");
 169              		.loc 1 100 0 is_stmt 1
 170 009a 684B     		ldr	r3, .L22+4
 171 009c 181C     		mov	r0, r3
 172 009e FFF7FEFF 		bl	puts
 102:.\main.c      ****                     for(i=0;i<CYBLE_GAP_BD_ADDR_SIZE;i++)
 173              		.loc 1 102 0
 174 00a2 3B1C     		mov	r3, r7
 175 00a4 1F33     		add	r3, r3, #31
 176 00a6 0022     		mov	r2, #0
 177 00a8 1A70     		strb	r2, [r3]
 178 00aa 22E0     		b	.L12
 179              	.L13:
 104:.\main.c      ****                         peerDeviceAddr.bdAddr[i]=scanReport.peerBdAddr[i];
ARM GAS  C:\Users\msuro\AppData\Local\Temp\ccVNp37g.s 			page 8


 180              		.loc 1 104 0 discriminator 2
 181 00ac 3B1C     		mov	r3, r7
 182 00ae 1F33     		add	r3, r3, #31
 183 00b0 1A78     		ldrb	r2, [r3]
 184 00b2 3B1C     		mov	r3, r7
 185 00b4 0833     		add	r3, r3, #8
 186 00b6 5968     		ldr	r1, [r3, #4]
 187 00b8 3B1C     		mov	r3, r7
 188 00ba 1F33     		add	r3, r3, #31
 189 00bc 1B78     		ldrb	r3, [r3]
 190 00be CB18     		add	r3, r1, r3
 191 00c0 1978     		ldrb	r1, [r3]
 192 00c2 5F4B     		ldr	r3, .L22+8
 193 00c4 9954     		strb	r1, [r3, r2]
 105:.\main.c      ****                         printf("%2.2x",scanReport.peerBdAddr[CYBLE_GAP_BD_ADDR_SIZE-1-i]);
 194              		.loc 1 105 0 discriminator 2
 195 00c6 3B1C     		mov	r3, r7
 196 00c8 0833     		add	r3, r3, #8
 197 00ca 5A68     		ldr	r2, [r3, #4]
 198 00cc 3B1C     		mov	r3, r7
 199 00ce 1F33     		add	r3, r3, #31
 200 00d0 1B78     		ldrb	r3, [r3]
 201 00d2 0521     		mov	r1, #5
 202 00d4 CB1A     		sub	r3, r1, r3
 203 00d6 D318     		add	r3, r2, r3
 204 00d8 1B78     		ldrb	r3, [r3]
 205 00da 5A4A     		ldr	r2, .L22+12
 206 00dc 101C     		mov	r0, r2
 207 00de 191C     		mov	r1, r3
 208 00e0 FFF7FEFF 		bl	printf
 102:.\main.c      ****                     for(i=0;i<CYBLE_GAP_BD_ADDR_SIZE;i++)
 209              		.loc 1 102 0 discriminator 2
 210 00e4 3B1C     		mov	r3, r7
 211 00e6 1F33     		add	r3, r3, #31
 212 00e8 1A78     		ldrb	r2, [r3]
 213 00ea 3B1C     		mov	r3, r7
 214 00ec 1F33     		add	r3, r3, #31
 215 00ee 0132     		add	r2, r2, #1
 216 00f0 1A70     		strb	r2, [r3]
 217              	.L12:
 102:.\main.c      ****                     for(i=0;i<CYBLE_GAP_BD_ADDR_SIZE;i++)
 218              		.loc 1 102 0 is_stmt 0 discriminator 1
 219 00f2 3B1C     		mov	r3, r7
 220 00f4 1F33     		add	r3, r3, #31
 221 00f6 1B78     		ldrb	r3, [r3]
 222 00f8 052B     		cmp	r3, #5
 223 00fa D7D9     		bls	.L13
 108:.\main.c      ****                     printf("\r\n");
 224              		.loc 1 108 0 is_stmt 1
 225 00fc 524B     		ldr	r3, .L22+16
 226 00fe 181C     		mov	r0, r3
 227 0100 FFF7FEFF 		bl	puts
 109:.\main.c      ****                     deviceDetected=TRUE;
 228              		.loc 1 109 0
 229 0104 514B     		ldr	r3, .L22+20
 230 0106 0122     		mov	r2, #1
 231 0108 1A70     		strb	r2, [r3]
ARM GAS  C:\Users\msuro\AppData\Local\Temp\ccVNp37g.s 			page 9


 112:.\main.c      ****                     CyBle_GapcStopScan();
 232              		.loc 1 112 0
 233 010a FFF7FEFF 		bl	CyBle_GapcStopScan
 115:.\main.c      ****             break;
 234              		.loc 1 115 0
 235 010e 90E0     		b	.L1
 236              	.L11:
 237 0110 8FE0     		b	.L1
 238              	.L7:
 119:.\main.c      ****                 if(CyBle_GetState()==CYBLE_STATE_SCANNING)
 239              		.loc 1 119 0
 240 0112 4F4B     		ldr	r3, .L22+24
 241 0114 1B78     		ldrb	r3, [r3]
 242 0116 032B     		cmp	r3, #3
 243 0118 04D1     		bne	.L14
 121:.\main.c      ****                     printf("Started to Scan\r\n");
 244              		.loc 1 121 0
 245 011a 4E4B     		ldr	r3, .L22+28
 246 011c 181C     		mov	r0, r3
 247 011e FFF7FEFF 		bl	puts
 248 0122 29E0     		b	.L15
 249              	.L14:
 123:.\main.c      ****                 else if(CyBle_GetState()==CYBLE_STATE_DISCONNECTED)
 250              		.loc 1 123 0
 251 0124 4A4B     		ldr	r3, .L22+24
 252 0126 1B78     		ldrb	r3, [r3]
 253 0128 052B     		cmp	r3, #5
 254 012a 25D1     		bne	.L15
 125:.\main.c      ****                     printf("Stop scanning:\r\n");
 255              		.loc 1 125 0
 256 012c 4A4B     		ldr	r3, .L22+32
 257 012e 181C     		mov	r0, r3
 258 0130 FFF7FEFF 		bl	puts
 126:.\main.c      ****                     if(deviceDetected==TRUE)
 259              		.loc 1 126 0
 260 0134 454B     		ldr	r3, .L22+20
 261 0136 1B78     		ldrb	r3, [r3]
 262 0138 012B     		cmp	r3, #1
 263 013a 1DD1     		bne	.L15
 128:.\main.c      ****                         apiResult=CyBle_GapcConnectDevice(&peerDeviceAddr);
 264              		.loc 1 128 0
 265 013c 3C1C     		mov	r4, r7
 266 013e 1C34     		add	r4, r4, #28
 267 0140 3F4B     		ldr	r3, .L22+8
 268 0142 181C     		mov	r0, r3
 269 0144 FFF7FEFF 		bl	CyBle_GapcConnectDevice
 270 0148 031C     		mov	r3, r0
 271 014a 2380     		strh	r3, [r4]
 129:.\main.c      ****                         if(apiResult==CYBLE_ERROR_OK)
 272              		.loc 1 129 0
 273 014c 3B1C     		mov	r3, r7
 274 014e 1C33     		add	r3, r3, #28
 275 0150 1B88     		ldrh	r3, [r3]
 276 0152 002B     		cmp	r3, #0
 277 0154 04D1     		bne	.L16
 131:.\main.c      ****                             printf("success\r\n");
 278              		.loc 1 131 0
ARM GAS  C:\Users\msuro\AppData\Local\Temp\ccVNp37g.s 			page 10


 279 0156 414B     		ldr	r3, .L22+36
 280 0158 181C     		mov	r0, r3
 281 015a FFF7FEFF 		bl	puts
 282 015e 07E0     		b	.L17
 283              	.L16:
 135:.\main.c      ****                             printf("connection failed:%x\r\n",apiResult);
 284              		.loc 1 135 0
 285 0160 3B1C     		mov	r3, r7
 286 0162 1C33     		add	r3, r3, #28
 287 0164 1B88     		ldrh	r3, [r3]
 288 0166 3E4A     		ldr	r2, .L22+40
 289 0168 101C     		mov	r0, r2
 290 016a 191C     		mov	r1, r3
 291 016c FFF7FEFF 		bl	printf
 292              	.L17:
 137:.\main.c      ****                         deviceDetected=FALSE;   
 293              		.loc 1 137 0
 294 0170 364B     		ldr	r3, .L22+20
 295 0172 0022     		mov	r2, #0
 296 0174 1A70     		strb	r2, [r3]
 140:.\main.c      ****             break;
 297              		.loc 1 140 0
 298 0176 5CE0     		b	.L1
 299              	.L15:
 300 0178 5BE0     		b	.L1
 301              	.L3:
 144:.\main.c      ****                 CyBle_GattcStartDiscovery(cyBle_connHandle);  
 302              		.loc 1 144 0
 303 017a 3A4B     		ldr	r3, .L22+44
 304 017c 1A78     		ldrb	r2, [r3]
 305 017e 5B78     		ldrb	r3, [r3, #1]
 306 0180 1B02     		lsl	r3, r3, #8
 307 0182 1A43     		orr	r2, r3
 308 0184 0023     		mov	r3, #0
 309 0186 1204     		lsl	r2, r2, #16
 310 0188 120C     		lsr	r2, r2, #16
 311 018a 1B0C     		lsr	r3, r3, #16
 312 018c 1B04     		lsl	r3, r3, #16
 313 018e 1343     		orr	r3, r2
 314 0190 181C     		mov	r0, r3
 315 0192 FFF7FEFF 		bl	CyBle_GattcStartDiscovery
 145:.\main.c      ****             break;
 316              		.loc 1 145 0
 317 0196 4CE0     		b	.L1
 318              	.L9:
 149:.\main.c      ****                 CyBle_GapcStartScan(CYBLE_SCANNING_FAST); 
 319              		.loc 1 149 0
 320 0198 0020     		mov	r0, #0
 321 019a FFF7FEFF 		bl	CyBle_GapcStartScan
 150:.\main.c      ****             break;
 322              		.loc 1 150 0
 323 019e 48E0     		b	.L1
 324              	.L8:
 153:.\main.c      ****                 printf("\r\n");
 325              		.loc 1 153 0
 326 01a0 294B     		ldr	r3, .L22+16
 327 01a2 181C     		mov	r0, r3
ARM GAS  C:\Users\msuro\AppData\Local\Temp\ccVNp37g.s 			page 11


 328 01a4 FFF7FEFF 		bl	puts
 154:.\main.c      ****                 printf("Discovery complete.\r\n");
 329              		.loc 1 154 0
 330 01a8 2F4B     		ldr	r3, .L22+48
 331 01aa 181C     		mov	r0, r3
 332 01ac FFF7FEFF 		bl	puts
 156:.\main.c      ****                 for(i = 0u; i < CYBLE_SRVI_COUNT; i++)
 333              		.loc 1 156 0
 334 01b0 3B1C     		mov	r3, r7
 335 01b2 1F33     		add	r3, r3, #31
 336 01b4 0022     		mov	r2, #0
 337 01b6 1A70     		strb	r2, [r3]
 338 01b8 31E0     		b	.L18
 339              	.L21:
 159:.\main.c      ****                     if(cyBle_serverInfo[i].uuid == CYBLE_UUID_TX_POWER_SERVICE)
 340              		.loc 1 159 0
 341 01ba 3B1C     		mov	r3, r7
 342 01bc 1F33     		add	r3, r3, #31
 343 01be 1A78     		ldrb	r2, [r3]
 344 01c0 2A49     		ldr	r1, .L22+52
 345 01c2 131C     		mov	r3, r2
 346 01c4 5B00     		lsl	r3, r3, #1
 347 01c6 9B18     		add	r3, r3, r2
 348 01c8 5B00     		lsl	r3, r3, #1
 349 01ca CB18     		add	r3, r1, r3
 350 01cc 9A88     		ldrh	r2, [r3, #4]
 351 01ce 284B     		ldr	r3, .L22+56
 352 01d0 9A42     		cmp	r2, r3
 353 01d2 1DD1     		bne	.L19
 161:.\main.c      ****                         if(cyBle_serverInfo[i].range.startHandle < cyBle_serverInfo[i].range.endHan
 354              		.loc 1 161 0
 355 01d4 3B1C     		mov	r3, r7
 356 01d6 1F33     		add	r3, r3, #31
 357 01d8 1A78     		ldrb	r2, [r3]
 358 01da 2449     		ldr	r1, .L22+52
 359 01dc 131C     		mov	r3, r2
 360 01de 5B00     		lsl	r3, r3, #1
 361 01e0 9B18     		add	r3, r3, r2
 362 01e2 5B00     		lsl	r3, r3, #1
 363 01e4 595A     		ldrh	r1, [r3, r1]
 364 01e6 3B1C     		mov	r3, r7
 365 01e8 1F33     		add	r3, r3, #31
 366 01ea 1A78     		ldrb	r2, [r3]
 367 01ec 1F48     		ldr	r0, .L22+52
 368 01ee 131C     		mov	r3, r2
 369 01f0 5B00     		lsl	r3, r3, #1
 370 01f2 9B18     		add	r3, r3, r2
 371 01f4 5B00     		lsl	r3, r3, #1
 372 01f6 C318     		add	r3, r0, r3
 373 01f8 5B88     		ldrh	r3, [r3, #2]
 374 01fa 9942     		cmp	r1, r3
 375 01fc 04D2     		bcs	.L20
 163:.\main.c      ****                             printf("Peer device supports Tx power Service \r\n");      
 376              		.loc 1 163 0
 377 01fe 1D4B     		ldr	r3, .L22+60
 378 0200 181C     		mov	r0, r3
 379 0202 FFF7FEFF 		bl	puts
ARM GAS  C:\Users\msuro\AppData\Local\Temp\ccVNp37g.s 			page 12


 380 0206 03E0     		b	.L19
 381              	.L20:
 167:.\main.c      ****                             printf("Peer device doesn't supports Tx power Service \r\n");
 382              		.loc 1 167 0
 383 0208 1B4B     		ldr	r3, .L22+64
 384 020a 181C     		mov	r0, r3
 385 020c FFF7FEFF 		bl	puts
 386              	.L19:
 156:.\main.c      ****                 for(i = 0u; i < CYBLE_SRVI_COUNT; i++)
 387              		.loc 1 156 0
 388 0210 3B1C     		mov	r3, r7
 389 0212 1F33     		add	r3, r3, #31
 390 0214 1A78     		ldrb	r2, [r3]
 391 0216 3B1C     		mov	r3, r7
 392 0218 1F33     		add	r3, r3, #31
 393 021a 0132     		add	r2, r2, #1
 394 021c 1A70     		strb	r2, [r3]
 395              	.L18:
 156:.\main.c      ****                 for(i = 0u; i < CYBLE_SRVI_COUNT; i++)
 396              		.loc 1 156 0 is_stmt 0 discriminator 1
 397 021e 3B1C     		mov	r3, r7
 398 0220 1F33     		add	r3, r3, #31
 399 0222 1B78     		ldrb	r3, [r3]
 400 0224 022B     		cmp	r3, #2
 401 0226 C8D9     		bls	.L21
 172:.\main.c      ****                 printf("\r\n");
 402              		.loc 1 172 0 is_stmt 1
 403 0228 074B     		ldr	r3, .L22+16
 404 022a 181C     		mov	r0, r3
 405 022c FFF7FEFF 		bl	puts
 173:.\main.c      ****             break;                   
 406              		.loc 1 173 0
 407 0230 C046     		mov	r8, r8
 408              	.L1:
 177:.\main.c      ****                 
 178:.\main.c      ****     }
 179:.\main.c      **** }
 409              		.loc 1 179 0
 410 0232 BD46     		mov	sp, r7
 411 0234 09B0     		add	sp, sp, #36
 412              		@ sp needed
 413 0236 90BD     		pop	{r4, r7, pc}
 414              	.L23:
 415              		.align	2
 416              	.L22:
 417 0238 00000000 		.word	.LC0
 418 023c 10000000 		.word	.LC2
 419 0240 00000000 		.word	peerDeviceAddr
 420 0244 20000000 		.word	.LC5
 421 0248 28000000 		.word	.LC7
 422 024c 00000000 		.word	deviceDetected
 423 0250 00000000 		.word	cyBle_state
 424 0254 2C000000 		.word	.LC11
 425 0258 40000000 		.word	.LC13
 426 025c 50000000 		.word	.LC15
 427 0260 5C000000 		.word	.LC17
 428 0264 00000000 		.word	cyBle_connHandle
ARM GAS  C:\Users\msuro\AppData\Local\Temp\ccVNp37g.s 			page 13


 429 0268 74000000 		.word	.LC20
 430 026c 00000000 		.word	cyBle_serverInfo
 431 0270 04180000 		.word	6148
 432 0274 8C000000 		.word	.LC23
 433 0278 B4000000 		.word	.LC25
 434              		.cfi_endproc
 435              	.LFE35:
 436              		.size	StackEventHandler, .-StackEventHandler
 437              		.section	.rodata
 438              		.align	2
 439              	.LC27:
 440 00e4 31323334 		.ascii	"123456\000"
 440      353600
 441 00eb 00       		.section	.text.main,"ax",%progbits
 442              		.align	2
 443              		.global	main
 444              		.code	16
 445              		.thumb_func
 446              		.type	main, %function
 447              	main:
 448              	.LFB36:
 180:.\main.c      **** 
 181:.\main.c      **** /*******************************************************************************
 182:.\main.c      **** * Function Name: main
 183:.\main.c      **** ********************************************************************************
 184:.\main.c      **** *
 185:.\main.c      **** * Summary:
 186:.\main.c      **** *  Main function.
 187:.\main.c      **** *
 188:.\main.c      **** * Parameters:
 189:.\main.c      **** *  None
 190:.\main.c      **** *
 191:.\main.c      **** * Return:
 192:.\main.c      **** *  None
 193:.\main.c      **** *
 194:.\main.c      **** * Theory:
 195:.\main.c      **** * This function initializes the BLE component and then procesthe BLE events routinely
 196:.\main.c      **** *******************************************************************************/
 197:.\main.c      **** 
 198:.\main.c      **** int main()
 199:.\main.c      **** {
 449              		.loc 1 199 0
 450              		.cfi_startproc
 451 0000 80B5     		push	{r7, lr}
 452              		.cfi_def_cfa_offset 8
 453              		.cfi_offset 7, -8
 454              		.cfi_offset 14, -4
 455 0002 86B0     		sub	sp, sp, #24
 456              		.cfi_def_cfa_offset 32
 457 0004 02AF     		add	r7, sp, #8
 458              		.cfi_def_cfa 7, 24
 200:.\main.c      ****     /* Local variables*/
 201:.\main.c      ****     uint8 value;
 202:.\main.c      ****     char8 command;
 203:.\main.c      ****     const char8 serialNumber[] = "123456";       
 459              		.loc 1 203 0
 460 0006 3B1D     		add	r3, r7, #4
ARM GAS  C:\Users\msuro\AppData\Local\Temp\ccVNp37g.s 			page 14


 461 0008 384A     		ldr	r2, .L30
 462 000a 1168     		ldr	r1, [r2]
 463 000c 1960     		str	r1, [r3]
 464 000e 9188     		ldrh	r1, [r2, #4]
 465 0010 9980     		strh	r1, [r3, #4]
 466 0012 9279     		ldrb	r2, [r2, #6]
 467 0014 9A71     		strb	r2, [r3, #6]
 204:.\main.c      ****     
 205:.\main.c      ****     CyGlobalIntEnable;  
 468              		.loc 1 205 0
 469              	@ 205 ".\main.c" 1
 470 0016 62B6     		CPSIE   i
 471              	@ 0 "" 2
 206:.\main.c      ****     
 207:.\main.c      ****     UART_Start();
 472              		.loc 1 207 0
 473              		.code	16
 474 0018 FFF7FEFF 		bl	UART_Start
 208:.\main.c      ****     
 209:.\main.c      ****     CyBle_Start(StackEventHandler);/*Start BLE*/
 475              		.loc 1 209 0
 476 001c 344B     		ldr	r3, .L30+4
 477 001e 181C     		mov	r0, r3
 478 0020 FFF7FEFF 		bl	CyBle_Start
 210:.\main.c      ****     
 211:.\main.c      ****     /* Set Serial Number string not initialized in GUI */
 212:.\main.c      ****     CyBle_DissSetCharacteristicValue(CYBLE_DIS_SERIAL_NUMBER, sizeof(serialNumber), (uint8 *)serial
 479              		.loc 1 212 0
 480 0024 3B1D     		add	r3, r7, #4
 481 0026 0220     		mov	r0, #2
 482 0028 0721     		mov	r1, #7
 483 002a 1A1C     		mov	r2, r3
 484 002c FFF7FEFF 		bl	CyBle_DissSetCharacteristicValue
 213:.\main.c      ****         
 214:.\main.c      ****     
 215:.\main.c      ****     /* Register the event handler for TPS specific events */
 216:.\main.c      ****     CyBle_TpsRegisterAttrCallback(TpsServiceAppEventHandler);
 485              		.loc 1 216 0
 486 0030 304B     		ldr	r3, .L30+8
 487 0032 181C     		mov	r0, r3
 488 0034 FFF7FEFF 		bl	CyBle_TpsRegisterAttrCallback
 489              	.L29:
 217:.\main.c      ****    
 218:.\main.c      ****     for(;;)
 219:.\main.c      ****     {
 220:.\main.c      ****         CyBle_ProcessEvents();
 490              		.loc 1 220 0
 491 0038 FFF7FEFF 		bl	CyBle_ProcessEvents
 221:.\main.c      ****         
 222:.\main.c      ****         command=UART_UartGetChar();
 492              		.loc 1 222 0
 493 003c FFF7FEFF 		bl	UART_UartGetChar
 494 0040 021C     		mov	r2, r0
 495 0042 3B1C     		mov	r3, r7
 496 0044 0F33     		add	r3, r3, #15
 497 0046 1A70     		strb	r2, [r3]
 223:.\main.c      ****         if(command!=0u)
ARM GAS  C:\Users\msuro\AppData\Local\Temp\ccVNp37g.s 			page 15


 498              		.loc 1 223 0
 499 0048 3B1C     		mov	r3, r7
 500 004a 0F33     		add	r3, r3, #15
 501 004c 1B78     		ldrb	r3, [r3]
 502 004e 002B     		cmp	r3, #0
 503 0050 4BD0     		beq	.L25
 224:.\main.c      ****         {
 225:.\main.c      ****             switch(command)
 504              		.loc 1 225 0
 505 0052 3B1C     		mov	r3, r7
 506 0054 0F33     		add	r3, r3, #15
 507 0056 1B78     		ldrb	r3, [r3]
 508 0058 652B     		cmp	r3, #101
 509 005a 14D0     		beq	.L26
 510 005c 722B     		cmp	r3, #114
 511 005e 02D0     		beq	.L27
 512 0060 642B     		cmp	r3, #100
 513 0062 29D0     		beq	.L28
 226:.\main.c      ****             {
 227:.\main.c      ****                 case 'r':    /*Read Tx power level*/           
 228:.\main.c      ****                         CyBle_TpscGetCharacteristicValue(cyBle_connHandle,CYBLE_TPS_TX_POWER_LEVEL)
 229:.\main.c      ****                     break;      
 230:.\main.c      ****                         
 231:.\main.c      ****                 case 'e':   /*Enable the notification*/
 232:.\main.c      ****                         value=1;
 233:.\main.c      ****                         CyBle_TpscSetCharacteristicDescriptor(cyBle_connHandle,CYBLE_TPS_TX_POWER_L
 234:.\main.c      ****                             CYBLE_TPS_TX_POWER_LEVEL_SIZE*2,&value);            
 235:.\main.c      ****                     break;
 236:.\main.c      ****                         
 237:.\main.c      ****                 case 'd':   /*Disable the notification*/
 238:.\main.c      ****                         value=0;
 239:.\main.c      ****                         CyBle_TpscSetCharacteristicDescriptor(cyBle_connHandle,CYBLE_TPS_TX_POWER_L
 240:.\main.c      ****                             CYBLE_TPS_TX_POWER_LEVEL_SIZE*2,&value);
 241:.\main.c      ****                     break;
 242:.\main.c      ****             }
 243:.\main.c      ****         }
 244:.\main.c      ****     }
 514              		.loc 1 244 0
 515 0064 E8E7     		b	.L29
 516              	.L27:
 228:.\main.c      ****                         CyBle_TpscGetCharacteristicValue(cyBle_connHandle,CYBLE_TPS_TX_POWER_LEVEL)
 517              		.loc 1 228 0
 518 0066 244B     		ldr	r3, .L30+12
 519 0068 1A78     		ldrb	r2, [r3]
 520 006a 5B78     		ldrb	r3, [r3, #1]
 521 006c 1B02     		lsl	r3, r3, #8
 522 006e 1A43     		orr	r2, r3
 523 0070 0023     		mov	r3, #0
 524 0072 1204     		lsl	r2, r2, #16
 525 0074 120C     		lsr	r2, r2, #16
 526 0076 1B0C     		lsr	r3, r3, #16
 527 0078 1B04     		lsl	r3, r3, #16
 528 007a 1343     		orr	r3, r2
 529 007c 181C     		mov	r0, r3
 530 007e 0021     		mov	r1, #0
 531 0080 FFF7FEFF 		bl	CyBle_TpscGetCharacteristicValue
 229:.\main.c      ****                     break;      
ARM GAS  C:\Users\msuro\AppData\Local\Temp\ccVNp37g.s 			page 16


 532              		.loc 1 229 0
 533 0084 31E0     		b	.L25
 534              	.L26:
 232:.\main.c      ****                         value=1;
 535              		.loc 1 232 0
 536 0086 3B1C     		mov	r3, r7
 537 0088 0E33     		add	r3, r3, #14
 538 008a 0122     		mov	r2, #1
 539 008c 1A70     		strb	r2, [r3]
 233:.\main.c      ****                         CyBle_TpscSetCharacteristicDescriptor(cyBle_connHandle,CYBLE_TPS_TX_POWER_L
 540              		.loc 1 233 0
 541 008e 1A4B     		ldr	r3, .L30+12
 542 0090 3A1C     		mov	r2, r7
 543 0092 0E32     		add	r2, r2, #14
 544 0094 0092     		str	r2, [sp]
 545 0096 1A78     		ldrb	r2, [r3]
 546 0098 5B78     		ldrb	r3, [r3, #1]
 547 009a 1B02     		lsl	r3, r3, #8
 548 009c 1A43     		orr	r2, r3
 549 009e 0023     		mov	r3, #0
 550 00a0 1204     		lsl	r2, r2, #16
 551 00a2 120C     		lsr	r2, r2, #16
 552 00a4 1B0C     		lsr	r3, r3, #16
 553 00a6 1B04     		lsl	r3, r3, #16
 554 00a8 1343     		orr	r3, r2
 555 00aa 181C     		mov	r0, r3
 556 00ac 0021     		mov	r1, #0
 557 00ae 0022     		mov	r2, #0
 558 00b0 0223     		mov	r3, #2
 559 00b2 FFF7FEFF 		bl	CyBle_TpscSetCharacteristicDescriptor
 235:.\main.c      ****                     break;
 560              		.loc 1 235 0
 561 00b6 18E0     		b	.L25
 562              	.L28:
 238:.\main.c      ****                         value=0;
 563              		.loc 1 238 0
 564 00b8 3B1C     		mov	r3, r7
 565 00ba 0E33     		add	r3, r3, #14
 566 00bc 0022     		mov	r2, #0
 567 00be 1A70     		strb	r2, [r3]
 239:.\main.c      ****                         CyBle_TpscSetCharacteristicDescriptor(cyBle_connHandle,CYBLE_TPS_TX_POWER_L
 568              		.loc 1 239 0
 569 00c0 0D4B     		ldr	r3, .L30+12
 570 00c2 3A1C     		mov	r2, r7
 571 00c4 0E32     		add	r2, r2, #14
 572 00c6 0092     		str	r2, [sp]
 573 00c8 1A78     		ldrb	r2, [r3]
 574 00ca 5B78     		ldrb	r3, [r3, #1]
 575 00cc 1B02     		lsl	r3, r3, #8
 576 00ce 1A43     		orr	r2, r3
 577 00d0 0023     		mov	r3, #0
 578 00d2 1204     		lsl	r2, r2, #16
 579 00d4 120C     		lsr	r2, r2, #16
 580 00d6 1B0C     		lsr	r3, r3, #16
 581 00d8 1B04     		lsl	r3, r3, #16
 582 00da 1343     		orr	r3, r2
 583 00dc 181C     		mov	r0, r3
ARM GAS  C:\Users\msuro\AppData\Local\Temp\ccVNp37g.s 			page 17


 584 00de 0021     		mov	r1, #0
 585 00e0 0022     		mov	r2, #0
 586 00e2 0223     		mov	r3, #2
 587 00e4 FFF7FEFF 		bl	CyBle_TpscSetCharacteristicDescriptor
 241:.\main.c      ****                     break;
 588              		.loc 1 241 0
 589 00e8 C046     		mov	r8, r8
 590              	.L25:
 591              		.loc 1 244 0
 592 00ea A5E7     		b	.L29
 593              	.L31:
 594              		.align	2
 595              	.L30:
 596 00ec E4000000 		.word	.LC27
 597 00f0 00000000 		.word	StackEventHandler
 598 00f4 00000000 		.word	TpsServiceAppEventHandler
 599 00f8 00000000 		.word	cyBle_connHandle
 600              		.cfi_endproc
 601              	.LFE36:
 602              		.size	main, .-main
 603              		.text
 604              	.Letext0:
 605              		.file 2 ".\\Generated_Source\\PSoC4/cytypes.h"
 606              		.file 3 ".\\Generated_Source\\PSoC4/BLE_Stack.h"
 607              		.file 4 ".\\Generated_Source\\PSoC4/BLE_StackGap.h"
 608              		.file 5 ".\\Generated_Source\\PSoC4/BLE_StackGatt.h"
 609              		.file 6 ".\\Generated_Source\\PSoC4/BLE_gatt.h"
 610              		.file 7 ".\\Generated_Source\\PSoC4/BLE_tps.h"
 611              		.file 8 ".\\Generated_Source\\PSoC4/BLE_dis.h"
 612              		.file 9 ".\\Generated_Source\\PSoC4/BLE_eventHandler.h"