ARM GAS  C:\Users\msuro\AppData\Local\Temp\ccggOrAt.s 			page 1


   1              		.cpu cortex-m0
   2              		.fpu softvfp
   3              		.eabi_attribute 20, 1
   4              		.eabi_attribute 21, 1
   5              		.eabi_attribute 23, 3
   6              		.eabi_attribute 24, 1
   7              		.eabi_attribute 25, 1
   8              		.eabi_attribute 26, 1
   9              		.eabi_attribute 30, 6
  10              		.eabi_attribute 34, 0
  11              		.eabi_attribute 18, 4
  12              		.code	16
  13              		.file	"tps.c"
  14              		.text
  15              	.Ltext0:
  16              		.cfi_sections	.debug_frame
  17              		.section	.rodata
  18              		.align	2
  19              	.LC0:
  20 0000 4E6F7469 		.ascii	"Notification received. Tx Power Level:%d dBm\015\012"
  20      66696361 
  20      74696F6E 
  20      20726563 
  20      65697665 
  21 002e 00       		.ascii	"\000"
  22 002f 00       		.align	2
  23              	.LC2:
  24 0030 52656164 		.ascii	"Read Char Response. Tx Power Level: %d dBm\015\012\000"
  24      20436861 
  24      72205265 
  24      73706F6E 
  24      73652E20 
  25 005d 000000   		.align	2
  26              	.LC4:
  27 0060 57726974 		.ascii	"Write Descr Response\015\000"
  27      65204465 
  27      73637220 
  27      52657370 
  27      6F6E7365 
  28 0076 0000     		.align	2
  29              	.LC6:
  30 0078 4572726F 		.ascii	"Error Rsp\015\000"
  30      72205273 
  30      700D00
  31 0083 00       		.align	2
  32              	.LC8:
  33 0084 64656661 		.ascii	"default:\015\000"
  33      756C743A 
  33      0D00
  34 008e 0000     		.section	.text.TpsServiceAppEventHandler,"ax",%progbits
  35              		.align	2
  36              		.global	TpsServiceAppEventHandler
  37              		.code	16
  38              		.thumb_func
  39              		.type	TpsServiceAppEventHandler, %function
  40              	TpsServiceAppEventHandler:
  41              	.LFB35:
ARM GAS  C:\Users\msuro\AppData\Local\Temp\ccggOrAt.s 			page 2


  42              		.file 1 ".\\tps.c"
   1:.\tps.c       **** /*******************************************************************************
   2:.\tps.c       **** * File Name: tps.c
   3:.\tps.c       **** *
   4:.\tps.c       **** * Description:
   5:.\tps.c       **** *  This file contains Tx Power Service callback handler function.
   6:.\tps.c       **** * 
   7:.\tps.c       **** ********************************************************************************
   8:.\tps.c       **** * Copyright 2014, Cypress Semiconductor Corporation.  All rights reserved.
   9:.\tps.c       **** * You may use this file only in accordance with the license, terms, conditions,
  10:.\tps.c       **** * disclaimers, and limitations in the end user license agreement accompanying
  11:.\tps.c       **** * the software package with which this file was provided.
  12:.\tps.c       **** *******************************************************************************/
  13:.\tps.c       **** 
  14:.\tps.c       **** #include <common.h>
  15:.\tps.c       **** #include <stdio.h>
  16:.\tps.c       **** 
  17:.\tps.c       **** 
  18:.\tps.c       **** /*******************************************************************************
  19:.\tps.c       **** * Function Name: TpsServiceAppEventHandler
  20:.\tps.c       **** ********************************************************************************
  21:.\tps.c       **** *
  22:.\tps.c       **** * Summary:
  23:.\tps.c       **** *  This is an event callback function to receive events from the BLE Component,
  24:.\tps.c       **** *  which are specific to Tx Power Service.
  25:.\tps.c       **** *
  26:.\tps.c       **** * Parameters:
  27:.\tps.c       **** *  uint8 event:       Write Command event from the CYBLE component.
  28:.\tps.c       **** *  void* eventParams: A structure instance of CYBLE_GATT_HANDLE_VALUE_PAIR_T
  29:.\tps.c       **** *                     type.
  30:.\tps.c       **** *
  31:.\tps.c       **** * Return:
  32:.\tps.c       **** *  None
  33:.\tps.c       **** *
  34:.\tps.c       **** *******************************************************************************/
  35:.\tps.c       **** void TpsServiceAppEventHandler(uint32 event, void *eventParam)
  36:.\tps.c       **** {
  43              		.loc 1 36 0
  44              		.cfi_startproc
  45 0000 80B5     		push	{r7, lr}
  46              		.cfi_def_cfa_offset 8
  47              		.cfi_offset 7, -8
  48              		.cfi_offset 14, -4
  49 0002 84B0     		sub	sp, sp, #16
  50              		.cfi_def_cfa_offset 24
  51 0004 00AF     		add	r7, sp, #0
  52              		.cfi_def_cfa_register 7
  53 0006 7860     		str	r0, [r7, #4]
  54 0008 3960     		str	r1, [r7]
  37:.\tps.c       ****     
  38:.\tps.c       ****     CYBLE_TPS_CHAR_VALUE_T CharValue;
  39:.\tps.c       ****    
  40:.\tps.c       ****     switch(event)
  55              		.loc 1 40 0
  56 000a 7B68     		ldr	r3, [r7, #4]
  57 000c B422     		mov	r2, #180
  58 000e FF32     		add	r2, r2, #255
ARM GAS  C:\Users\msuro\AppData\Local\Temp\ccggOrAt.s 			page 3


  59 0010 9342     		cmp	r3, r2
  60 0012 0FD0     		beq	.L3
  61 0014 B422     		mov	r2, #180
  62 0016 FF32     		add	r2, r2, #255
  63 0018 9342     		cmp	r3, r2
  64 001a 02D8     		bhi	.L4
  65 001c 402B     		cmp	r3, #64
  66 001e 32D0     		beq	.L5
  67 0020 36E0     		b	.L2
  68              	.L4:
  69 0022 DA22     		mov	r2, #218
  70 0024 5200     		lsl	r2, r2, #1
  71 0026 9342     		cmp	r3, r2
  72 0028 16D0     		beq	.L6
  73 002a DB22     		mov	r2, #219
  74 002c 5200     		lsl	r2, r2, #1
  75 002e 9342     		cmp	r3, r2
  76 0030 24D0     		beq	.L7
  77 0032 2DE0     		b	.L2
  78              	.L3:
  41:.\tps.c       ****     {
  42:.\tps.c       ****     
  43:.\tps.c       ****     /***************************************
  44:.\tps.c       ****     *        TPS Client events
  45:.\tps.c       ****     ***************************************/
  46:.\tps.c       ****     case CYBLE_EVT_TPSC_NOTIFICATION:
  47:.\tps.c       ****             CharValue=*(CYBLE_TPS_CHAR_VALUE_T*)eventParam;
  79              		.loc 1 47 0
  80 0034 3B1C     		mov	r3, r7
  81 0036 0833     		add	r3, r3, #8
  82 0038 3A68     		ldr	r2, [r7]
  83 003a 03CA     		ldmia	r2!, {r0, r1}
  84 003c 03C3     		stmia	r3!, {r0, r1}
  48:.\tps.c       ****             printf("Notification received. Tx Power Level:%d dBm\r\n",(int8)(CharValue.value->val[0
  85              		.loc 1 48 0
  86 003e 3B1C     		mov	r3, r7
  87 0040 0833     		add	r3, r3, #8
  88 0042 5B68     		ldr	r3, [r3, #4]
  89 0044 1B68     		ldr	r3, [r3]
  90 0046 1B78     		ldrb	r3, [r3]
  91 0048 DBB2     		uxtb	r3, r3
  92 004a 5BB2     		sxtb	r3, r3
  93 004c 144A     		ldr	r2, .L9
  94 004e 101C     		mov	r0, r2
  95 0050 191C     		mov	r1, r3
  96 0052 FFF7FEFF 		bl	printf
  49:.\tps.c       ****         break;
  97              		.loc 1 49 0
  98 0056 20E0     		b	.L1
  99              	.L6:
  50:.\tps.c       ****             
  51:.\tps.c       ****     case CYBLE_EVT_TPSC_READ_CHAR_RESPONSE:
  52:.\tps.c       ****             CharValue=*(CYBLE_TPS_CHAR_VALUE_T*)eventParam;
 100              		.loc 1 52 0
 101 0058 3B1C     		mov	r3, r7
 102 005a 0833     		add	r3, r3, #8
 103 005c 3A68     		ldr	r2, [r7]
ARM GAS  C:\Users\msuro\AppData\Local\Temp\ccggOrAt.s 			page 4


 104 005e 03CA     		ldmia	r2!, {r0, r1}
 105 0060 03C3     		stmia	r3!, {r0, r1}
  53:.\tps.c       ****             printf("Read Char Response. Tx Power Level: %d dBm\r\n",(int8)(CharValue.value->val[0])
 106              		.loc 1 53 0
 107 0062 3B1C     		mov	r3, r7
 108 0064 0833     		add	r3, r3, #8
 109 0066 5B68     		ldr	r3, [r3, #4]
 110 0068 1B68     		ldr	r3, [r3]
 111 006a 1B78     		ldrb	r3, [r3]
 112 006c DBB2     		uxtb	r3, r3
 113 006e 5BB2     		sxtb	r3, r3
 114 0070 0C4A     		ldr	r2, .L9+4
 115 0072 101C     		mov	r0, r2
 116 0074 191C     		mov	r1, r3
 117 0076 FFF7FEFF 		bl	printf
  54:.\tps.c       ****         break;
 118              		.loc 1 54 0
 119 007a 0EE0     		b	.L1
 120              	.L7:
  55:.\tps.c       ****                       
  56:.\tps.c       ****     case CYBLE_EVT_TPSC_WRITE_DESCR_RESPONSE:
  57:.\tps.c       ****              printf("Write Descr Response\r\n");
 121              		.loc 1 57 0
 122 007c 0A4B     		ldr	r3, .L9+8
 123 007e 181C     		mov	r0, r3
 124 0080 FFF7FEFF 		bl	puts
  58:.\tps.c       ****         break;
 125              		.loc 1 58 0
 126 0084 09E0     		b	.L1
 127              	.L5:
  59:.\tps.c       ****             
  60:.\tps.c       ****      case CYBLE_EVT_GATTC_ERROR_RSP:
  61:.\tps.c       ****              printf("Error Rsp\r\n");
 128              		.loc 1 61 0
 129 0086 094B     		ldr	r3, .L9+12
 130 0088 181C     		mov	r0, r3
 131 008a FFF7FEFF 		bl	puts
  62:.\tps.c       ****         break;
 132              		.loc 1 62 0
 133 008e 04E0     		b	.L1
 134              	.L2:
  63:.\tps.c       ****      
  64:.\tps.c       ****     default:                 
  65:.\tps.c       ****              printf("default:\r\n");            
 135              		.loc 1 65 0
 136 0090 074B     		ldr	r3, .L9+16
 137 0092 181C     		mov	r0, r3
 138 0094 FFF7FEFF 		bl	puts
  66:.\tps.c       ****         break;
 139              		.loc 1 66 0
 140 0098 C046     		mov	r8, r8
 141              	.L1:
  67:.\tps.c       ****     }
  68:.\tps.c       **** }
 142              		.loc 1 68 0
 143 009a BD46     		mov	sp, r7
 144 009c 04B0     		add	sp, sp, #16
ARM GAS  C:\Users\msuro\AppData\Local\Temp\ccggOrAt.s 			page 5


 145              		@ sp needed
 146 009e 80BD     		pop	{r7, pc}
 147              	.L10:
 148              		.align	2
 149              	.L9:
 150 00a0 00000000 		.word	.LC0
 151 00a4 30000000 		.word	.LC2
 152 00a8 60000000 		.word	.LC4
 153 00ac 78000000 		.word	.LC6
 154 00b0 84000000 		.word	.LC8
 155              		.cfi_endproc
 156              	.LFE35:
 157              		.size	TpsServiceAppEventHandler, .-TpsServiceAppEventHandler
 158              		.text
 159              	.Letext0:
 160              		.file 2 ".\\Generated_Source\\PSoC4/cytypes.h"
 161              		.file 3 ".\\Generated_Source\\PSoC4/BLE_StackGatt.h"
 162              		.file 4 ".\\Generated_Source\\PSoC4/BLE_Stack.h"
 163              		.file 5 ".\\Generated_Source\\PSoC4/BLE_tps.h"
 164              		.file 6 ".\\Generated_Source\\PSoC4/BLE_eventHandler.h"